
========================================================================

** ELF Header Information

    File Name: bin\multi_boot.axf

    Machine class: ELFCLASS32 (32-bit)
    Data encoding: ELFDATA2LSB (Little endian)
    Header version: EV_CURRENT (Current version)
    Operating System ABI: none
    ABI Version: 0
    File Type: ET_EXEC (Executable) (2)
    Machine: EM_ARM (ARM)

    Image Entry point: 0x000000a1
    Flags: EF_ARM_HASENTRY (0x05000002)

    ARM ELF revision: 5 (ABI version 2)

    Conforms to Base float procedure-call standard

    Built with
    Component: ARM Compiler 5.06 update 2 (build 183) Tool: armasm [4d35b2]
    Component: ARM Compiler 5.06 update 2 (build 183) Tool: armlink [4d35b7]

    Header size: 52 bytes (0x34)
    Program header entry size: 32 bytes (0x20)
    Section header entry size: 40 bytes (0x28)

    Program header entries: 2
    Section header entries: 17

    Program header offset: 88700 (0x00015a7c)
    Section header offset: 88764 (0x00015abc)

    Section header string table index: 16

========================================================================

** Program header #0 (PT_LOAD) [PF_X + PF_W + PF_R + PF_ARM_ENTRY]
    Size : 12040 bytes (7020 bytes in file)
    Virtual address: 0x00000000 (Alignment 8)


====================================

** Program header #1 (PT_LOAD) [PF_R]
    Size : 5168 bytes
    Virtual address: 0x00008000 (Alignment 4)


========================================================================

** Section #1 'FLASH' (SHT_PROGBITS) [SHF_ALLOC + SHF_EXECINSTR]
    Size   : 6856 bytes (alignment 4)
    Address: 0x00000000

    $d
    RESET
    __Vectors
        0x00000000:    10001440    @...    DCD    268440640
        0x00000004:    00000071    q...    DCD    113
        0x00000008:    0000008d    ....    DCD    141
        0x0000000c:    0000008f    ....    DCD    143
        0x00000010:    00000093    ....    DCD    147
        0x00000014:    00000095    ....    DCD    149
        0x00000018:    00000097    ....    DCD    151
        0x0000001c:    00000000    ....    DCD    0
        0x00000020:    00000000    ....    DCD    0
        0x00000024:    00000000    ....    DCD    0
        0x00000028:    00000000    ....    DCD    0
        0x0000002c:    00000099    ....    DCD    153
        0x00000030:    00000099    ....    DCD    153
        0x00000034:    00000000    ....    DCD    0
        0x00000038:    00000099    ....    DCD    153
        0x0000003c:    00000099    ....    DCD    153
        0x00000040:    00000099    ....    DCD    153
        0x00000044:    00000099    ....    DCD    153
        0x00000048:    00000099    ....    DCD    153
        0x0000004c:    00000099    ....    DCD    153
        0x00000050:    00000c59    Y...    DCD    3161
        0x00000054:    00000b35    5...    DCD    2869
        0x00000058:    00000099    ....    DCD    153
        0x0000005c:    00000099    ....    DCD    153
        0x00000060:    00000099    ....    DCD    153
        0x00000064:    00000639    9...    DCD    1593
        0x00000068:    00000099    ....    DCD    153
        0x0000006c:    00000c71    q...    DCD    3185
    $t
    $v0
    Reset_Handler
        0x00000070:    f64e5088    N..P    MOV      r0,#0xed88
        0x00000074:    f2ce0000    ....    MOVT     r0,#0xe000
        0x00000078:    6801        .h      LDR      r1,[r0,#0]
        0x0000007a:    f4410170    A.p.    ORR      r1,r1,#0xf00000
        0x0000007e:    6001        .`      STR      r1,[r0,#0]
        0x00000080:    f3bf8f4f    ..O.    DSB      
        0x00000084:    f3bf8f6f    ..o.    ISB      
        0x00000088:    4804        .H      LDR      r0,[pc,#16] ; [0x9c] = 0xa1
        0x0000008a:    4700        .G      BX       r0
    am_nmi_isr
        0x0000008c:    e7fe        ..      B        am_nmi_isr ; 0x8c
    am_fault_isr
        0x0000008e:    e7fe        ..      B        am_fault_isr ; 0x8e
    am_memmanage_isr
        0x00000090:    e7fe        ..      B        am_memmanage_isr ; 0x90
    am_mpufault_isr
        0x00000092:    e7fe        ..      B        am_mpufault_isr ; 0x92
    am_busfault_isr
        0x00000094:    e7fe        ..      B        am_busfault_isr ; 0x94
    am_usagefault_isr
        0x00000096:    e7fe        ..      B        am_usagefault_isr ; 0x96
    am_adc_isr
    am_brownout_isr
    am_clkgen_isr
    am_ctimer_isr
    am_debugmon_isr
    am_iomaster0_isr
    am_iomaster1_isr
    am_pendsv_isr
    am_svcall_isr
    am_systick_isr
    am_vcomp_isr
    am_watchdog_isr
        0x00000098:    e7fe        ..      B        am_adc_isr ; 0x98
    $d
        0x0000009a:    0000        ..      DCW    0
        0x0000009c:    000000a1    ....    DCD    161
    $t
    !!!main
    __main
        0x000000a0:    f000f802    ....    BL       __scatterload ; 0xa8
        0x000000a4:    f000f83c    ..<.    BL       __rt_entry ; 0x120
    !!!scatter
    __scatterload
    __scatterload_rt2
    __scatterload_rt2_thumb_only
        0x000000a8:    a00a        ..      ADR      r0,{pc}+0x2c ; 0xd4
        0x000000aa:    e8900c00    ....    LDM      r0,{r10,r11}
        0x000000ae:    4482        .D      ADD      r10,r10,r0
        0x000000b0:    4483        .D      ADD      r11,r11,r0
        0x000000b2:    f1aa0701    ....    SUB      r7,r10,#1
    __scatterload_null
        0x000000b6:    45da        .E      CMP      r10,r11
        0x000000b8:    d101        ..      BNE      0xbe ; __scatterload_null + 8
        0x000000ba:    f000f831    ..1.    BL       __rt_entry ; 0x120
        0x000000be:    f2af0e09    ....    ADR      lr,{pc}-7 ; 0xb7
        0x000000c2:    e8ba000f    ....    LDM      r10!,{r0-r3}
        0x000000c6:    f0130f01    ....    TST      r3,#1
        0x000000ca:    bf18        ..      IT       NE
        0x000000cc:    1afb        ..      SUBNE    r3,r7,r3
        0x000000ce:    f0430301    C...    ORR      r3,r3,#1
        0x000000d2:    4718        .G      BX       r3
    $d
        0x000000d4:    000019d4    ....    DCD    6612
        0x000000d8:    000019f4    ....    DCD    6644
    $t
    !!handler_copy
    __scatterload_copy
        0x000000dc:    3a10        .:      SUBS     r2,r2,#0x10
        0x000000de:    bf24        $.      ITT      CS
        0x000000e0:    c878        x.      LDMCS    r0!,{r3-r6}
        0x000000e2:    c178        x.      STMCS    r1!,{r3-r6}
        0x000000e4:    d8fa        ..      BHI      __scatterload_copy ; 0xdc
        0x000000e6:    0752        R.      LSLS     r2,r2,#29
        0x000000e8:    bf24        $.      ITT      CS
        0x000000ea:    c830        0.      LDMCS    r0!,{r4,r5}
        0x000000ec:    c130        0.      STMCS    r1!,{r4,r5}
        0x000000ee:    bf44        D.      ITT      MI
        0x000000f0:    6804        .h      LDRMI    r4,[r0,#0]
        0x000000f2:    600c        .`      STRMI    r4,[r1,#0]
        0x000000f4:    4770        pG      BX       lr
        0x000000f6:    0000        ..      MOVS     r0,r0
    !!handler_zi
    __scatterload_zeroinit
        0x000000f8:    2300        .#      MOVS     r3,#0
        0x000000fa:    2400        .$      MOVS     r4,#0
        0x000000fc:    2500        .%      MOVS     r5,#0
        0x000000fe:    2600        .&      MOVS     r6,#0
        0x00000100:    3a10        .:      SUBS     r2,r2,#0x10
        0x00000102:    bf28        (.      IT       CS
        0x00000104:    c178        x.      STMCS    r1!,{r3-r6}
        0x00000106:    d8fb        ..      BHI      0x100 ; __scatterload_zeroinit + 8
        0x00000108:    0752        R.      LSLS     r2,r2,#29
        0x0000010a:    bf28        (.      IT       CS
        0x0000010c:    c130        0.      STMCS    r1!,{r4,r5}
        0x0000010e:    bf48        H.      IT       MI
        0x00000110:    600b        .`      STRMI    r3,[r1,#0]
        0x00000112:    4770        pG      BX       lr
    .ARM.Collect$$libinit$$00000000
    __rt_lib_init
        0x00000114:    b51f        ..      PUSH     {r0-r4,lr}
    .ARM.Collect$$libinit$$00000001
    __rt_lib_init_fp_1
        0x00000116:    f001fabf    ....    BL       _fp_init ; 0x1698
    .ARM.Collect$$libinit$$00000004
    .ARM.Collect$$libinit$$0000000A
    .ARM.Collect$$libinit$$0000000C
    .ARM.Collect$$libinit$$0000000E
    .ARM.Collect$$libinit$$00000011
    .ARM.Collect$$libinit$$00000013
    .ARM.Collect$$libinit$$00000015
    .ARM.Collect$$libinit$$00000017
    .ARM.Collect$$libinit$$00000019
    .ARM.Collect$$libinit$$0000001B
    .ARM.Collect$$libinit$$0000001D
    .ARM.Collect$$libinit$$0000001F
    .ARM.Collect$$libinit$$00000021
    .ARM.Collect$$libinit$$00000023
    .ARM.Collect$$libinit$$00000025
    .ARM.Collect$$libinit$$0000002C
    .ARM.Collect$$libinit$$0000002E
    .ARM.Collect$$libinit$$00000030
    .ARM.Collect$$libinit$$00000032
    .ARM.Collect$$libinit$$00000033
    __rt_lib_init_alloca_1
    __rt_lib_init_argv_1
    __rt_lib_init_atexit_1
    __rt_lib_init_clock_1
    __rt_lib_init_cpp_1
    __rt_lib_init_exceptions_1
    __rt_lib_init_fp_trap_1
    __rt_lib_init_getenv_1
    __rt_lib_init_heap_1
    __rt_lib_init_lc_collate_1
    __rt_lib_init_lc_ctype_1
    __rt_lib_init_lc_monetary_1
    __rt_lib_init_lc_numeric_1
    __rt_lib_init_lc_time_1
    __rt_lib_init_preinit_1
    __rt_lib_init_rand_1
    __rt_lib_init_return
    __rt_lib_init_signal_1
    __rt_lib_init_stdio_1
    __rt_lib_init_user_alloc_1
        0x0000011a:    bd1f        ..      POP      {r0-r4,pc}
    .ARM.Collect$$libshutdown$$00000000
    __rt_lib_shutdown
        0x0000011c:    b510        ..      PUSH     {r4,lr}
    .ARM.Collect$$libshutdown$$00000002
    .ARM.Collect$$libshutdown$$00000004
    .ARM.Collect$$libshutdown$$00000007
    .ARM.Collect$$libshutdown$$0000000A
    .ARM.Collect$$libshutdown$$0000000C
    .ARM.Collect$$libshutdown$$0000000F
    .ARM.Collect$$libshutdown$$00000010
    __rt_lib_shutdown_cpp_1
    __rt_lib_shutdown_fp_trap_1
    __rt_lib_shutdown_heap_1
    __rt_lib_shutdown_return
    __rt_lib_shutdown_signal_1
    __rt_lib_shutdown_stdio_1
    __rt_lib_shutdown_user_alloc_1
        0x0000011e:    bd10        ..      POP      {r4,pc}
    .ARM.Collect$$rtentry$$00000000
    .ARM.Collect$$rtentry$$00000002
    .ARM.Collect$$rtentry$$00000004
    __rt_entry
    __rt_entry_presh_1
    __rt_entry_sh
        0x00000120:    f000f869    ..i.    BL       __user_setup_stackheap ; 0x1f6
        0x00000124:    4611        .F      MOV      r1,r2
    .ARM.Collect$$rtentry$$00000009
    .ARM.Collect$$rtentry$$0000000A
    __rt_entry_li
    __rt_entry_postsh_1
        0x00000126:    f7fffff5    ....    BL       __rt_lib_init ; 0x114
    .ARM.Collect$$rtentry$$0000000C
    .ARM.Collect$$rtentry$$0000000D
    __rt_entry_main
    __rt_entry_postli_1
        0x0000012a:    f001f8c1    ....    BL       main ; 0x12b0
        0x0000012e:    f000f887    ....    BL       exit ; 0x240
    .ARM.Collect$$rtexit$$00000000
    __rt_exit
        0x00000132:    b403        ..      PUSH     {r0,r1}
    .ARM.Collect$$rtexit$$00000002
    .ARM.Collect$$rtexit$$00000003
    __rt_exit_ls
    __rt_exit_prels_1
        0x00000134:    f7fffff2    ....    BL       __rt_lib_shutdown ; 0x11c
    .ARM.Collect$$rtexit$$00000004
    __rt_exit_exit
        0x00000138:    bc03        ..      POP      {r0,r1}
        0x0000013a:    f000f88f    ....    BL       _sys_exit ; 0x25c
        0x0000013e:    0000        ..      MOVS     r0,r0
    .emb_text
    $v0
    am_util_delay_cycles
        0x00000140:    3801        .8      SUBS     r0,#1
        0x00000142:    d1fd        ..      BNE      am_util_delay_cycles ; 0x140
        0x00000144:    4770        pG      BX       lr
        0x00000146:    0000        ..      MOVS     r0,r0
    .emb_text
    $v0
    am_bootloader_image_run
        0x00000148:    6941        Ai      LDR      r1,[r0,#0x14]
        0x0000014a:    6982        .i      LDR      r2,[r0,#0x18]
        0x0000014c:    6800        .h      LDR      r0,[r0,#0]
        0x0000014e:    f64e5308    N..S    MOV      r3,#0xed08
        0x00000152:    f2ce0300    ....    MOVT     r3,#0xe000
        0x00000156:    6018        .`      STR      r0,[r3,#0]
        0x00000158:    468d        .F      MOV      sp,r1
        0x0000015a:    4710        .G      BX       r2
    .emb_text
    $v0
    am_hal_interrupt_master_enable
        0x0000015c:    f3ef8010    ....    MRS      r0,PRIMASK
        0x00000160:    b662        b.      CPSIE    i
        0x00000162:    4770        pG      BX       lr
    am_hal_interrupt_master_disable
        0x00000164:    f3ef8010    ....    MRS      r0,PRIMASK
        0x00000168:    b672        r.      CPSID    i
        0x0000016a:    4770        pG      BX       lr
    am_hal_interrupt_master_set
        0x0000016c:    f3808810    ....    MSR      PRIMASK,r0
        0x00000170:    4770        pG      BX       lr
        0x00000172:    0000        ..      MOVS     r0,r0
    .text
    $v0
    __user_initial_stackheap
        0x00000174:    4802        .H      LDR      r0,[pc,#8] ; [0x180] = 0x10001240
        0x00000176:    4903        .I      LDR      r1,[pc,#12] ; [0x184] = 0x10001440
        0x00000178:    4a01        .J      LDR      r2,[pc,#4] ; [0x180] = 0x10001240
        0x0000017a:    4b03        .K      LDR      r3,[pc,#12] ; [0x188] = 0x10001240
        0x0000017c:    4770        pG      BX       lr
    $d
        0x0000017e:    0000        ..      DCW    0
        0x00000180:    10001240    @...    DCD    268440128
        0x00000184:    10001440    @...    DCD    268440640
        0x00000188:    10001240    @...    DCD    268440128
    $t
    .text
    __aeabi_memcpy4
    __aeabi_memcpy8
    __rt_memcpy_w
        0x0000018c:    b510        ..      PUSH     {r4,lr}
        0x0000018e:    3a20         :      SUBS     r2,r2,#0x20
        0x00000190:    f0c0800b    ....    BCC.W    0x1aa ; __aeabi_memcpy4 + 30
        0x00000194:    e8b15018    ...P    LDM      r1!,{r3,r4,r12,lr}
        0x00000198:    3a20         :      SUBS     r2,r2,#0x20
        0x0000019a:    e8a05018    ...P    STM      r0!,{r3,r4,r12,lr}
        0x0000019e:    e8b15018    ...P    LDM      r1!,{r3,r4,r12,lr}
        0x000001a2:    e8a05018    ...P    STM      r0!,{r3,r4,r12,lr}
        0x000001a6:    f4bfaff5    ....    BCS.W    0x194 ; __aeabi_memcpy4 + 8
        0x000001aa:    ea5f7c02    _..|    LSLS     r12,r2,#28
        0x000001ae:    bf24        $.      ITT      CS
        0x000001b0:    e8b15018    ...P    LDMCS    r1!,{r3,r4,r12,lr}
        0x000001b4:    e8a05018    ...P    STMCS    r0!,{r3,r4,r12,lr}
        0x000001b8:    bf44        D.      ITT      MI
        0x000001ba:    c918        ..      LDMMI    r1!,{r3,r4}
        0x000001bc:    c018        ..      STMMI    r0!,{r3,r4}
        0x000001be:    e8bd4010    ...@    POP      {r4,lr}
        0x000001c2:    ea5f7c82    _..|    LSLS     r12,r2,#30
        0x000001c6:    bf24        $.      ITT      CS
        0x000001c8:    f8513b04    Q..;    LDRCS    r3,[r1],#4
        0x000001cc:    f8403b04    @..;    STRCS    r3,[r0],#4
        0x000001d0:    bf08        ..      IT       EQ
        0x000001d2:    4770        pG      BXEQ     lr
    _memcpy_lastbytes_aligned
        0x000001d4:    07d2        ..      LSLS     r2,r2,#31
        0x000001d6:    bf28        (.      IT       CS
        0x000001d8:    f8313b02    1..;    LDRHCS   r3,[r1],#2
        0x000001dc:    bf48        H.      IT       MI
        0x000001de:    f8112b01    ...+    LDRBMI   r2,[r1],#1
        0x000001e2:    bf28        (.      IT       CS
        0x000001e4:    f8203b02     ..;    STRHCS   r3,[r0],#2
        0x000001e8:    bf48        H.      IT       MI
        0x000001ea:    f8002b01    ...+    STRBMI   r2,[r0],#1
        0x000001ee:    4770        pG      BX       lr
    .text
    __use_two_region_memory
        0x000001f0:    4770        pG      BX       lr
    __rt_heap_escrow$2region
        0x000001f2:    4770        pG      BX       lr
    __rt_heap_expand$2region
        0x000001f4:    4770        pG      BX       lr
    .text
    __user_setup_stackheap
        0x000001f6:    4675        uF      MOV      r5,lr
        0x000001f8:    f000f82c    ..,.    BL       __user_libspace ; 0x254
        0x000001fc:    46ae        .F      MOV      lr,r5
        0x000001fe:    0005        ..      MOVS     r5,r0
        0x00000200:    4669        iF      MOV      r1,sp
        0x00000202:    4653        SF      MOV      r3,r10
        0x00000204:    f0200007     ...    BIC      r0,r0,#7
        0x00000208:    4685        .F      MOV      sp,r0
        0x0000020a:    b018        ..      ADD      sp,sp,#0x60
        0x0000020c:    b520         .      PUSH     {r5,lr}
        0x0000020e:    f7ffffb1    ....    BL       __user_initial_stackheap ; 0x174
        0x00000212:    e8bd4020    .. @    POP      {r5,lr}
        0x00000216:    f04f0600    O...    MOV      r6,#0
        0x0000021a:    f04f0700    O...    MOV      r7,#0
        0x0000021e:    f04f0800    O...    MOV      r8,#0
        0x00000222:    f04f0b00    O...    MOV      r11,#0
        0x00000226:    f0210107    !...    BIC      r1,r1,#7
        0x0000022a:    46ac        .F      MOV      r12,r5
        0x0000022c:    e8ac09c0    ....    STM      r12!,{r6-r8,r11}
        0x00000230:    e8ac09c0    ....    STM      r12!,{r6-r8,r11}
        0x00000234:    e8ac09c0    ....    STM      r12!,{r6-r8,r11}
        0x00000238:    e8ac09c0    ....    STM      r12!,{r6-r8,r11}
        0x0000023c:    468d        .F      MOV      sp,r1
        0x0000023e:    4770        pG      BX       lr
    .text
    exit
        0x00000240:    b510        ..      PUSH     {r4,lr}
        0x00000242:    4604        .F      MOV      r4,r0
        0x00000244:    f3af8000    ....    NOP.W    
        0x00000248:    4620         F      MOV      r0,r4
        0x0000024a:    e8bd4010    ...@    POP      {r4,lr}
        0x0000024e:    f7ffbf70    ..p.    B.W      __rt_exit ; 0x132
        0x00000252:    0000        ..      MOVS     r0,r0
    .text
    __user_libspace
    __user_perproc_libspace
    __user_perthread_libspace
        0x00000254:    4800        .H      LDR      r0,[pc,#0] ; [0x258] = 0x100011e0
        0x00000256:    4770        pG      BX       lr
    $d
        0x00000258:    100011e0    ....    DCD    268440032
    $t
    .text
    _sys_exit
        0x0000025c:    4901        .I      LDR      r1,[pc,#4] ; [0x264] = 0x20026
        0x0000025e:    2018        .       MOVS     r0,#0x18
        0x00000260:    beab        ..      BKPT     #0xab
        0x00000262:    e7fe        ..      B        0x262 ; _sys_exit + 6
    $d
        0x00000264:    00020026    &...    DCD    131110
    $t
    .text
    __I$use$semihosting
    __use_no_semihosting_swi
        0x00000268:    4770        pG      BX       lr
    i.am_bootloader_boot_from_storage
    .text
    __semihosting_library_function
    am_bootloader_boot_from_storage
        0x0000026a:    b510        ..      PUSH     {r4,lr}
        0x0000026c:    b08a        ..      SUB      sp,sp,#0x28
        0x0000026e:    4604        .F      MOV      r4,r0
        0x00000270:    69e0        .i      LDR      r0,[r4,#0x1c]
        0x00000272:    2801        .(      CMP      r0,#1
        0x00000274:    d12e        ..      BNE      0x2d4 ; __semihosting_library_function + 106
        0x00000276:    2101        .!      MOVS     r1,#1
        0x00000278:    4620         F      MOV      r0,r4
        0x0000027a:    f000f97b    ..{.    BL       am_bootloader_new_image_check ; 0x574
        0x0000027e:    b908        ..      CBNZ     r0,0x284 ; __semihosting_library_function + 26
        0x00000280:    b00a        ..      ADD      sp,sp,#0x28
        0x00000282:    bd10        ..      POP      {r4,pc}
        0x00000284:    e9d40200    ....    LDRD     r0,r2,[r4,#0]
        0x00000288:    6a21        !j      LDR      r1,[r4,#0x20]
        0x0000028a:    f000fe77    ..w.    BL       flash_load_from_image ; 0xf7c
        0x0000028e:    e9d40100    ....    LDRD     r0,r1,[r4,#0]
        0x00000292:    f000f823    ..#.    BL       am_bootloader_fast_crc32 ; 0x2dc
        0x00000296:    68a1        .h      LDR      r1,[r4,#8]
        0x00000298:    4288        .B      CMP      r0,r1
        0x0000029a:    d000        ..      BEQ      0x29e ; __semihosting_library_function + 52
        0x0000029c:    e7f0        ..      B        0x280 ; __semihosting_library_function + 22
        0x0000029e:    6820         h      LDR      r0,[r4,#0]
        0x000002a0:    9000        ..      STR      r0,[sp,#0]
        0x000002a2:    6860        `h      LDR      r0,[r4,#4]
        0x000002a4:    9001        ..      STR      r0,[sp,#4]
        0x000002a6:    68a0        .h      LDR      r0,[r4,#8]
        0x000002a8:    9002        ..      STR      r0,[sp,#8]
        0x000002aa:    68e0        .h      LDR      r0,[r4,#0xc]
        0x000002ac:    9003        ..      STR      r0,[sp,#0xc]
        0x000002ae:    6920         i      LDR      r0,[r4,#0x10]
        0x000002b0:    9004        ..      STR      r0,[sp,#0x10]
        0x000002b2:    6960        `i      LDR      r0,[r4,#0x14]
        0x000002b4:    9005        ..      STR      r0,[sp,#0x14]
        0x000002b6:    69a0        .i      LDR      r0,[r4,#0x18]
        0x000002b8:    9006        ..      STR      r0,[sp,#0x18]
        0x000002ba:    f8940024    ..$.    LDRB     r0,[r4,#0x24]
        0x000002be:    f88d0024    ..$.    STRB     r0,[sp,#0x24]
        0x000002c2:    f04f30ff    O..0    MOV      r0,#0xffffffff
        0x000002c6:    9007        ..      STR      r0,[sp,#0x1c]
        0x000002c8:    9008        ..      STR      r0,[sp,#0x20]
        0x000002ca:    4621        !F      MOV      r1,r4
        0x000002cc:    4668        hF      MOV      r0,sp
        0x000002ce:    f000f81b    ....    BL       am_bootloader_flag_page_update ; 0x308
        0x000002d2:    e000        ..      B        0x2d6 ; __semihosting_library_function + 108
        0x000002d4:    bf00        ..      NOP      
        0x000002d6:    bf00        ..      NOP      
        0x000002d8:    e7d2        ..      B        0x280 ; __semihosting_library_function + 22
        0x000002da:    0000        ..      MOVS     r0,r0
    i.am_bootloader_fast_crc32
    am_bootloader_fast_crc32
        0x000002dc:    b570        p.      PUSH     {r4-r6,lr}
        0x000002de:    4602        .F      MOV      r2,r0
        0x000002e0:    460b        .F      MOV      r3,r1
        0x000002e2:    2000        .       MOVS     r0,#0
        0x000002e4:    4615        .F      MOV      r5,r2
        0x000002e6:    2100        .!      MOVS     r1,#0
        0x000002e8:    e008        ..      B        0x2fc ; am_bootloader_fast_crc32 + 32
        0x000002ea:    5c6e        n\      LDRB     r6,[r5,r1]
        0x000002ec:    ea866410    ...d    EOR      r4,r6,r0,LSR #24
        0x000002f0:    4e04        .N      LDR      r6,[pc,#16] ; [0x304] = 0x16a4
        0x000002f2:    f8566024    V.$`    LDR      r6,[r6,r4,LSL #2]
        0x000002f6:    ea862000    ...     EOR      r0,r6,r0,LSL #8
        0x000002fa:    1c49        I.      ADDS     r1,r1,#1
        0x000002fc:    4299        .B      CMP      r1,r3
        0x000002fe:    d3f4        ..      BCC      0x2ea ; am_bootloader_fast_crc32 + 14
        0x00000300:    bd70        p.      POP      {r4-r6,pc}
    $d
        0x00000302:    0000        ..      DCW    0
        0x00000304:    000016a4    ....    DCD    5796
    $t
    i.am_bootloader_flag_page_update
    am_bootloader_flag_page_update
        0x00000308:    e92d41f0    -..A    PUSH     {r4-r8,lr}
        0x0000030c:    4605        .F      MOV      r5,r0
        0x0000030e:    460c        .F      MOV      r4,r1
        0x00000310:    f3c427c6    ...'    UBFX     r7,r4,#11,#7
        0x00000314:    f3c44680    ...F    UBFX     r6,r4,#18,#1
        0x00000318:    463a        :F      MOV      r2,r7
        0x0000031a:    4631        1F      MOV      r1,r6
        0x0000031c:    4806        .H      LDR      r0,[pc,#24] ; [0x338] = 0x12344321
        0x0000031e:    f000fa2b    ..+.    BL       am_hal_flash_page_erase ; 0x778
        0x00000322:    4680        .F      MOV      r8,r0
        0x00000324:    230a        .#      MOVS     r3,#0xa
        0x00000326:    4622        "F      MOV      r2,r4
        0x00000328:    4629        )F      MOV      r1,r5
        0x0000032a:    4803        .H      LDR      r0,[pc,#12] ; [0x338] = 0x12344321
        0x0000032c:    f000fa2a    ..*.    BL       am_hal_flash_program_main ; 0x784
        0x00000330:    4680        .F      MOV      r8,r0
        0x00000332:    4640        @F      MOV      r0,r8
        0x00000334:    e8bd81f0    ....    POP      {r4-r8,pc}
    $d
        0x00000338:    12344321    !C4.    DCD    305414945
    $t
    i.am_bootloader_flash_check
    am_bootloader_flash_check
        0x0000033c:    b5f0        ..      PUSH     {r4-r7,lr}
        0x0000033e:    4604        .F      MOV      r4,r0
        0x00000340:    6827        'h      LDR      r7,[r4,#0]
        0x00000342:    f5b72f00    .../    CMP      r7,#0x80000
        0x00000346:    d901        ..      BLS      0x34c ; am_bootloader_flash_check + 16
        0x00000348:    2000        .       MOVS     r0,#0
        0x0000034a:    bdf0        ..      POP      {r4-r7,pc}
        0x0000034c:    f8940024    ..$.    LDRB     r0,[r4,#0x24]
        0x00000350:    b920         .      CBNZ     r0,0x35c ; am_bootloader_flash_check + 32
        0x00000352:    6820         h      LDR      r0,[r4,#0]
        0x00000354:    6806        .h      LDR      r6,[r0,#0]
        0x00000356:    6820         h      LDR      r0,[r4,#0]
        0x00000358:    6845        Eh      LDR      r5,[r0,#4]
        0x0000035a:    e001        ..      B        0x360 ; am_bootloader_flash_check + 36
        0x0000035c:    6966        fi      LDR      r6,[r4,#0x14]
        0x0000035e:    69a5        .i      LDR      r5,[r4,#0x18]
        0x00000360:    f1b65f80    ..._    CMP      r6,#0x10000000
        0x00000364:    d302        ..      BCC      0x36c ; am_bootloader_flash_check + 48
        0x00000366:    f1b65f00    ..._    CMP      r6,#0x20000000
        0x0000036a:    d301        ..      BCC      0x370 ; am_bootloader_flash_check + 52
        0x0000036c:    2000        .       MOVS     r0,#0
        0x0000036e:    e7ec        ..      B        0x34a ; am_bootloader_flash_check + 14
        0x00000370:    42bd        .B      CMP      r5,r7
        0x00000372:    d303        ..      BCC      0x37c ; am_bootloader_flash_check + 64
        0x00000374:    6860        `h      LDR      r0,[r4,#4]
        0x00000376:    4438        8D      ADD      r0,r0,r7
        0x00000378:    42a8        .B      CMP      r0,r5
        0x0000037a:    d201        ..      BCS      0x380 ; am_bootloader_flash_check + 68
        0x0000037c:    2000        .       MOVS     r0,#0
        0x0000037e:    e7e4        ..      B        0x34a ; am_bootloader_flash_check + 14
        0x00000380:    f8940024    ..$.    LDRB     r0,[r4,#0x24]
        0x00000384:    b940        @.      CBNZ     r0,0x398 ; am_bootloader_flash_check + 92
        0x00000386:    e9d40100    ....    LDRD     r0,r1,[r4,#0]
        0x0000038a:    f7ffffa7    ....    BL       am_bootloader_fast_crc32 ; 0x2dc
        0x0000038e:    68a1        .h      LDR      r1,[r4,#8]
        0x00000390:    4288        .B      CMP      r0,r1
        0x00000392:    d001        ..      BEQ      0x398 ; am_bootloader_flash_check + 92
        0x00000394:    2000        .       MOVS     r0,#0
        0x00000396:    e7d8        ..      B        0x34a ; am_bootloader_flash_check + 14
        0x00000398:    2001        .       MOVS     r0,#1
        0x0000039a:    e7d6        ..      B        0x34a ; am_bootloader_flash_check + 14
    i.am_bootloader_image_check
    am_bootloader_image_check
        0x0000039c:    b510        ..      PUSH     {r4,lr}
        0x0000039e:    4604        .F      MOV      r4,r0
        0x000003a0:    68e0        .h      LDR      r0,[r4,#0xc]
        0x000003a2:    1c40        @.      ADDS     r0,r0,#1
        0x000003a4:    2800        .(      CMP      r0,#0
        0x000003a6:    d07d        }.      BEQ      0x4a4 ; am_bootloader_image_check + 264
        0x000003a8:    bf00        ..      NOP      
        0x000003aa:    68e0        .h      LDR      r0,[r4,#0xc]
        0x000003ac:    2800        .(      CMP      r0,#0
        0x000003ae:    da00        ..      BGE      0x3b2 ; am_bootloader_image_check + 22
        0x000003b0:    e035        5.      B        0x41e ; am_bootloader_image_check + 130
        0x000003b2:    2073        s       MOVS     r0,#0x73
        0x000003b4:    4a6e        nJ      LDR      r2,[pc,#440] ; [0x570] = 0x40010000
        0x000003b6:    6610        .f      STR      r0,[r2,#0x60]
        0x000003b8:    7b20         {      LDRB     r0,[r4,#0xc]
        0x000003ba:    f00000f8    ....    AND      r0,r0,#0xf8
        0x000003be:    eb020050    ..P.    ADD      r0,r2,r0,LSR #1
        0x000003c2:    6c00        .l      LDR      r0,[r0,#0x40]
        0x000003c4:    7b22        "{      LDRB     r2,[r4,#0xc]
        0x000003c6:    0752        R.      LSLS     r2,r2,#29
        0x000003c8:    0ed3        ..      LSRS     r3,r2,#27
        0x000003ca:    2207        ."      MOVS     r2,#7
        0x000003cc:    409a        .@      LSLS     r2,r2,r3
        0x000003ce:    4390        .C      BICS     r0,r0,r2
        0x000003d0:    7b22        "{      LDRB     r2,[r4,#0xc]
        0x000003d2:    0752        R.      LSLS     r2,r2,#29
        0x000003d4:    0ed3        ..      LSRS     r3,r2,#27
        0x000003d6:    2200        ."      MOVS     r2,#0
        0x000003d8:    409a        .@      LSLS     r2,r2,r3
        0x000003da:    4310        .C      ORRS     r0,r0,r2
        0x000003dc:    7b22        "{      LDRB     r2,[r4,#0xc]
        0x000003de:    f00202f8    ....    AND      r2,r2,#0xf8
        0x000003e2:    4b63        cK      LDR      r3,[pc,#396] ; [0x570] = 0x40010000
        0x000003e4:    eb030252    ..R.    ADD      r2,r3,r2,LSR #1
        0x000003e8:    6410        .d      STR      r0,[r2,#0x40]
        0x000003ea:    7b20         {      LDRB     r0,[r4,#0xc]
        0x000003ec:    f00000fc    ....    AND      r0,r0,#0xfc
        0x000003f0:    461a        .F      MOV      r2,r3
        0x000003f2:    5880        .X      LDR      r0,[r0,r2]
        0x000003f4:    7b22        "{      LDRB     r2,[r4,#0xc]
        0x000003f6:    0792        ..      LSLS     r2,r2,#30
        0x000003f8:    0ed3        ..      LSRS     r3,r2,#27
        0x000003fa:    22ff        ."      MOVS     r2,#0xff
        0x000003fc:    409a        .@      LSLS     r2,r2,r3
        0x000003fe:    4390        .C      BICS     r0,r0,r2
        0x00000400:    7b22        "{      LDRB     r2,[r4,#0xc]
        0x00000402:    0792        ..      LSLS     r2,r2,#30
        0x00000404:    0ed3        ..      LSRS     r3,r2,#27
        0x00000406:    221a        ."      MOVS     r2,#0x1a
        0x00000408:    409a        .@      LSLS     r2,r2,r3
        0x0000040a:    4310        .C      ORRS     r0,r0,r2
        0x0000040c:    7b22        "{      LDRB     r2,[r4,#0xc]
        0x0000040e:    f00202fc    ....    AND      r2,r2,#0xfc
        0x00000412:    4b57        WK      LDR      r3,[pc,#348] ; [0x570] = 0x40010000
        0x00000414:    50d0        .P      STR      r0,[r2,r3]
        0x00000416:    2000        .       MOVS     r0,#0
        0x00000418:    461a        .F      MOV      r2,r3
        0x0000041a:    6610        .f      STR      r0,[r2,#0x60]
        0x0000041c:    bf00        ..      NOP      
        0x0000041e:    bf00        ..      NOP      
        0x00000420:    7b20         {      LDRB     r0,[r4,#0xc]
        0x00000422:    f0000020    .. .    AND      r0,r0,#0x20
        0x00000426:    4a52        RJ      LDR      r2,[pc,#328] ; [0x570] = 0x40010000
        0x00000428:    eb0200d0    ....    ADD      r0,r2,r0,LSR #3
        0x0000042c:    f8d00080    ....    LDR      r0,[r0,#0x80]
        0x00000430:    7b22        "{      LDRB     r2,[r4,#0xc]
        0x00000432:    f002031f    ....    AND      r3,r2,#0x1f
        0x00000436:    2201        ."      MOVS     r2,#1
        0x00000438:    409a        .@      LSLS     r2,r2,r3
        0x0000043a:    4010        .@      ANDS     r0,r0,r2
        0x0000043c:    b108        ..      CBZ      r0,0x442 ; am_bootloader_image_check + 166
        0x0000043e:    2001        .       MOVS     r0,#1
        0x00000440:    e000        ..      B        0x444 ; am_bootloader_image_check + 168
        0x00000442:    2000        .       MOVS     r0,#0
        0x00000444:    4601        .F      MOV      r1,r0
        0x00000446:    7c20         |      LDRB     r0,[r4,#0x10]
        0x00000448:    f0000001    ....    AND      r0,r0,#1
        0x0000044c:    4288        .B      CMP      r0,r1
        0x0000044e:    d13f        ?.      BNE      0x4d0 ; am_bootloader_image_check + 308
        0x00000450:    bf00        ..      NOP      
        0x00000452:    68e0        .h      LDR      r0,[r4,#0xc]
        0x00000454:    2800        .(      CMP      r0,#0
        0x00000456:    da00        ..      BGE      0x45a ; am_bootloader_image_check + 190
        0x00000458:    e037        7.      B        0x4ca ; am_bootloader_image_check + 302
        0x0000045a:    2073        s       MOVS     r0,#0x73
        0x0000045c:    4a44        DJ      LDR      r2,[pc,#272] ; [0x570] = 0x40010000
        0x0000045e:    6610        .f      STR      r0,[r2,#0x60]
        0x00000460:    7b20         {      LDRB     r0,[r4,#0xc]
        0x00000462:    f00000f8    ....    AND      r0,r0,#0xf8
        0x00000466:    eb020050    ..P.    ADD      r0,r2,r0,LSR #1
        0x0000046a:    6c00        .l      LDR      r0,[r0,#0x40]
        0x0000046c:    7b22        "{      LDRB     r2,[r4,#0xc]
        0x0000046e:    0752        R.      LSLS     r2,r2,#29
        0x00000470:    0ed3        ..      LSRS     r3,r2,#27
        0x00000472:    2207        ."      MOVS     r2,#7
        0x00000474:    409a        .@      LSLS     r2,r2,r3
        0x00000476:    4390        .C      BICS     r0,r0,r2
        0x00000478:    7b22        "{      LDRB     r2,[r4,#0xc]
        0x0000047a:    0752        R.      LSLS     r2,r2,#29
        0x0000047c:    0ed3        ..      LSRS     r3,r2,#27
        0x0000047e:    2200        ."      MOVS     r2,#0
        0x00000480:    409a        .@      LSLS     r2,r2,r3
        0x00000482:    4310        .C      ORRS     r0,r0,r2
        0x00000484:    7b22        "{      LDRB     r2,[r4,#0xc]
        0x00000486:    f00202f8    ....    AND      r2,r2,#0xf8
        0x0000048a:    4b39        9K      LDR      r3,[pc,#228] ; [0x570] = 0x40010000
        0x0000048c:    eb030252    ..R.    ADD      r2,r3,r2,LSR #1
        0x00000490:    6410        .d      STR      r0,[r2,#0x40]
        0x00000492:    7b20         {      LDRB     r0,[r4,#0xc]
        0x00000494:    f00000fc    ....    AND      r0,r0,#0xfc
        0x00000498:    461a        .F      MOV      r2,r3
        0x0000049a:    5880        .X      LDR      r0,[r0,r2]
        0x0000049c:    7b22        "{      LDRB     r2,[r4,#0xc]
        0x0000049e:    0792        ..      LSLS     r2,r2,#30
        0x000004a0:    0ed3        ..      LSRS     r3,r2,#27
        0x000004a2:    e000        ..      B        0x4a6 ; am_bootloader_image_check + 266
        0x000004a4:    e051        Q.      B        0x54a ; am_bootloader_image_check + 430
        0x000004a6:    22ff        ."      MOVS     r2,#0xff
        0x000004a8:    409a        .@      LSLS     r2,r2,r3
        0x000004aa:    4390        .C      BICS     r0,r0,r2
        0x000004ac:    7b22        "{      LDRB     r2,[r4,#0xc]
        0x000004ae:    0792        ..      LSLS     r2,r2,#30
        0x000004b0:    0ed3        ..      LSRS     r3,r2,#27
        0x000004b2:    2218        ."      MOVS     r2,#0x18
        0x000004b4:    409a        .@      LSLS     r2,r2,r3
        0x000004b6:    4310        .C      ORRS     r0,r0,r2
        0x000004b8:    7b22        "{      LDRB     r2,[r4,#0xc]
        0x000004ba:    f00202fc    ....    AND      r2,r2,#0xfc
        0x000004be:    4b2c        ,K      LDR      r3,[pc,#176] ; [0x570] = 0x40010000
        0x000004c0:    50d0        .P      STR      r0,[r2,r3]
        0x000004c2:    2000        .       MOVS     r0,#0
        0x000004c4:    461a        .F      MOV      r2,r3
        0x000004c6:    6610        .f      STR      r0,[r2,#0x60]
        0x000004c8:    bf00        ..      NOP      
        0x000004ca:    bf00        ..      NOP      
        0x000004cc:    2000        .       MOVS     r0,#0
        0x000004ce:    bd10        ..      POP      {r4,pc}
        0x000004d0:    bf00        ..      NOP      
        0x000004d2:    68e0        .h      LDR      r0,[r4,#0xc]
        0x000004d4:    2800        .(      CMP      r0,#0
        0x000004d6:    da00        ..      BGE      0x4da ; am_bootloader_image_check + 318
        0x000004d8:    e035        5.      B        0x546 ; am_bootloader_image_check + 426
        0x000004da:    2073        s       MOVS     r0,#0x73
        0x000004dc:    4a24        $J      LDR      r2,[pc,#144] ; [0x570] = 0x40010000
        0x000004de:    6610        .f      STR      r0,[r2,#0x60]
        0x000004e0:    7b20         {      LDRB     r0,[r4,#0xc]
        0x000004e2:    f00000f8    ....    AND      r0,r0,#0xf8
        0x000004e6:    eb020050    ..P.    ADD      r0,r2,r0,LSR #1
        0x000004ea:    6c00        .l      LDR      r0,[r0,#0x40]
        0x000004ec:    7b22        "{      LDRB     r2,[r4,#0xc]
        0x000004ee:    0752        R.      LSLS     r2,r2,#29
        0x000004f0:    0ed3        ..      LSRS     r3,r2,#27
        0x000004f2:    2207        ."      MOVS     r2,#7
        0x000004f4:    409a        .@      LSLS     r2,r2,r3
        0x000004f6:    4390        .C      BICS     r0,r0,r2
        0x000004f8:    7b22        "{      LDRB     r2,[r4,#0xc]
        0x000004fa:    0752        R.      LSLS     r2,r2,#29
        0x000004fc:    0ed3        ..      LSRS     r3,r2,#27
        0x000004fe:    2200        ."      MOVS     r2,#0
        0x00000500:    409a        .@      LSLS     r2,r2,r3
        0x00000502:    4310        .C      ORRS     r0,r0,r2
        0x00000504:    7b22        "{      LDRB     r2,[r4,#0xc]
        0x00000506:    f00202f8    ....    AND      r2,r2,#0xf8
        0x0000050a:    4b19        .K      LDR      r3,[pc,#100] ; [0x570] = 0x40010000
        0x0000050c:    eb030252    ..R.    ADD      r2,r3,r2,LSR #1
        0x00000510:    6410        .d      STR      r0,[r2,#0x40]
        0x00000512:    7b20         {      LDRB     r0,[r4,#0xc]
        0x00000514:    f00000fc    ....    AND      r0,r0,#0xfc
        0x00000518:    461a        .F      MOV      r2,r3
        0x0000051a:    5880        .X      LDR      r0,[r0,r2]
        0x0000051c:    7b22        "{      LDRB     r2,[r4,#0xc]
        0x0000051e:    0792        ..      LSLS     r2,r2,#30
        0x00000520:    0ed3        ..      LSRS     r3,r2,#27
        0x00000522:    22ff        ."      MOVS     r2,#0xff
        0x00000524:    409a        .@      LSLS     r2,r2,r3
        0x00000526:    4390        .C      BICS     r0,r0,r2
        0x00000528:    7b22        "{      LDRB     r2,[r4,#0xc]
        0x0000052a:    0792        ..      LSLS     r2,r2,#30
        0x0000052c:    0ed3        ..      LSRS     r3,r2,#27
        0x0000052e:    2218        ."      MOVS     r2,#0x18
        0x00000530:    409a        .@      LSLS     r2,r2,r3
        0x00000532:    4310        .C      ORRS     r0,r0,r2
        0x00000534:    7b22        "{      LDRB     r2,[r4,#0xc]
        0x00000536:    f00202fc    ....    AND      r2,r2,#0xfc
        0x0000053a:    4b0d        .K      LDR      r3,[pc,#52] ; [0x570] = 0x40010000
        0x0000053c:    50d0        .P      STR      r0,[r2,r3]
        0x0000053e:    2000        .       MOVS     r0,#0
        0x00000540:    461a        .F      MOV      r2,r3
        0x00000542:    6610        .f      STR      r0,[r2,#0x60]
        0x00000544:    bf00        ..      NOP      
        0x00000546:    bf00        ..      NOP      
        0x00000548:    bf00        ..      NOP      
        0x0000054a:    69e0        .i      LDR      r0,[r4,#0x1c]
        0x0000054c:    1c40        @.      ADDS     r0,r0,#1
        0x0000054e:    b158        X.      CBZ      r0,0x568 ; am_bootloader_image_check + 460
        0x00000550:    69e0        .i      LDR      r0,[r4,#0x1c]
        0x00000552:    2801        .(      CMP      r0,#1
        0x00000554:    d002        ..      BEQ      0x55c ; am_bootloader_image_check + 448
        0x00000556:    69e0        .i      LDR      r0,[r4,#0x1c]
        0x00000558:    2802        .(      CMP      r0,#2
        0x0000055a:    d105        ..      BNE      0x568 ; am_bootloader_image_check + 460
        0x0000055c:    4620         F      MOV      r0,r4
        0x0000055e:    f7fffe84    ....    BL       __semihosting_library_function ; 0x26a
        0x00000562:    4620         F      MOV      r0,r4
        0x00000564:    f7fffdf0    ....    BL       am_bootloader_image_run ; 0x148
        0x00000568:    4620         F      MOV      r0,r4
        0x0000056a:    f7fffee7    ....    BL       am_bootloader_flash_check ; 0x33c
        0x0000056e:    e7ae        ..      B        0x4ce ; am_bootloader_image_check + 306
    $d
        0x00000570:    40010000    ...@    DCD    1073807360
    $t
    i.am_bootloader_new_image_check
    am_bootloader_new_image_check
        0x00000574:    e92d41f0    -..A    PUSH     {r4-r8,lr}
        0x00000578:    4604        .F      MOV      r4,r0
        0x0000057a:    4688        .F      MOV      r8,r1
        0x0000057c:    6827        'h      LDR      r7,[r4,#0]
        0x0000057e:    f5b72f00    .../    CMP      r7,#0x80000
        0x00000582:    d902        ..      BLS      0x58a ; am_bootloader_new_image_check + 22
        0x00000584:    2000        .       MOVS     r0,#0
        0x00000586:    e8bd81f0    ....    POP      {r4-r8,pc}
        0x0000058a:    f8940024    ..$.    LDRB     r0,[r4,#0x24]
        0x0000058e:    b920         .      CBNZ     r0,0x59a ; am_bootloader_new_image_check + 38
        0x00000590:    6a20         j      LDR      r0,[r4,#0x20]
        0x00000592:    6806        .h      LDR      r6,[r0,#0]
        0x00000594:    6a20         j      LDR      r0,[r4,#0x20]
        0x00000596:    6845        Eh      LDR      r5,[r0,#4]
        0x00000598:    e001        ..      B        0x59e ; am_bootloader_new_image_check + 42
        0x0000059a:    6966        fi      LDR      r6,[r4,#0x14]
        0x0000059c:    69a5        .i      LDR      r5,[r4,#0x18]
        0x0000059e:    f1b65f80    ..._    CMP      r6,#0x10000000
        0x000005a2:    d302        ..      BCC      0x5aa ; am_bootloader_new_image_check + 54
        0x000005a4:    f1b65f00    ..._    CMP      r6,#0x20000000
        0x000005a8:    d301        ..      BCC      0x5ae ; am_bootloader_new_image_check + 58
        0x000005aa:    2000        .       MOVS     r0,#0
        0x000005ac:    e7eb        ..      B        0x586 ; am_bootloader_new_image_check + 18
        0x000005ae:    42bd        .B      CMP      r5,r7
        0x000005b0:    d303        ..      BCC      0x5ba ; am_bootloader_new_image_check + 70
        0x000005b2:    6860        `h      LDR      r0,[r4,#4]
        0x000005b4:    4438        8D      ADD      r0,r0,r7
        0x000005b6:    42a8        .B      CMP      r0,r5
        0x000005b8:    d201        ..      BCS      0x5be ; am_bootloader_new_image_check + 74
        0x000005ba:    2000        .       MOVS     r0,#0
        0x000005bc:    e7e3        ..      B        0x586 ; am_bootloader_new_image_check + 18
        0x000005be:    f8940024    ..$.    LDRB     r0,[r4,#0x24]
        0x000005c2:    b960        `.      CBNZ     r0,0x5de ; am_bootloader_new_image_check + 106
        0x000005c4:    f1b80f01    ....    CMP      r8,#1
        0x000005c8:    d108        ..      BNE      0x5dc ; am_bootloader_new_image_check + 104
        0x000005ca:    6861        ah      LDR      r1,[r4,#4]
        0x000005cc:    6a20         j      LDR      r0,[r4,#0x20]
        0x000005ce:    f7fffe85    ....    BL       am_bootloader_fast_crc32 ; 0x2dc
        0x000005d2:    68a1        .h      LDR      r1,[r4,#8]
        0x000005d4:    4288        .B      CMP      r0,r1
        0x000005d6:    d002        ..      BEQ      0x5de ; am_bootloader_new_image_check + 106
        0x000005d8:    2000        .       MOVS     r0,#0
        0x000005da:    e7d4        ..      B        0x586 ; am_bootloader_new_image_check + 18
        0x000005dc:    bf00        ..      NOP      
        0x000005de:    2001        .       MOVS     r0,#1
        0x000005e0:    e7d1        ..      B        0x586 ; am_bootloader_new_image_check + 18
        0x000005e2:    0000        ..      MOVS     r0,r0
    i.am_bootloader_partial_crc32
    am_bootloader_partial_crc32
        0x000005e4:    b5f0        ..      PUSH     {r4-r7,lr}
        0x000005e6:    4603        .F      MOV      r3,r0
        0x000005e8:    460c        .F      MOV      r4,r1
        0x000005ea:    6811        .h      LDR      r1,[r2,#0]
        0x000005ec:    461e        .F      MOV      r6,r3
        0x000005ee:    2000        .       MOVS     r0,#0
        0x000005f0:    e008        ..      B        0x604 ; am_bootloader_partial_crc32 + 32
        0x000005f2:    5c37        7\      LDRB     r7,[r6,r0]
        0x000005f4:    ea876511    ...e    EOR      r5,r7,r1,LSR #24
        0x000005f8:    4f04        .O      LDR      r7,[pc,#16] ; [0x60c] = 0x16a4
        0x000005fa:    f8577025    W.%p    LDR      r7,[r7,r5,LSL #2]
        0x000005fe:    ea872101    ...!    EOR      r1,r7,r1,LSL #8
        0x00000602:    1c40        @.      ADDS     r0,r0,#1
        0x00000604:    42a0        .B      CMP      r0,r4
        0x00000606:    d3f4        ..      BCC      0x5f2 ; am_bootloader_partial_crc32 + 14
        0x00000608:    6011        .`      STR      r1,[r2,#0]
        0x0000060a:    bdf0        ..      POP      {r4-r7,pc}
    $d
        0x0000060c:    000016a4    ....    DCD    5796
    $t
    i.am_bsp_low_power_init
    am_bsp_low_power_init
        0x00000610:    b510        ..      PUSH     {r4,lr}
        0x00000612:    f000f9d5    ....    BL       am_hal_mcuctrl_bucks_enable ; 0x9c0
        0x00000616:    f000fa87    ....    BL       am_hal_vcomp_disable ; 0xb28
        0x0000061a:    2001        .       MOVS     r0,#1
        0x0000061c:    f000f9f0    ....    BL       am_hal_rtc_osc_select ; 0xa00
        0x00000620:    2001        .       MOVS     r0,#1
        0x00000622:    f000f86b    ..k.    BL       am_hal_clkgen_osc_stop ; 0x6fc
        0x00000626:    2002        .       MOVS     r0,#2
        0x00000628:    f000f868    ..h.    BL       am_hal_clkgen_osc_stop ; 0x6fc
        0x0000062c:    f000f9e1    ....    BL       am_hal_rtc_osc_disable ; 0x9f2
        0x00000630:    e8bd4010    ...@    POP      {r4,lr}
        0x00000634:    f000b9bc    ....    B.W      am_hal_mcuctrl_bandgap_disable ; 0x9b0
    i.am_gpio_isr
    am_gpio_isr
        0x00000638:    e92d41f0    -..A    PUSH     {r4-r8,lr}
        0x0000063c:    f000f9eb    ....    BL       am_hal_systick_count ; 0xa16
        0x00000640:    4607        .F      MOV      r7,r0
        0x00000642:    bf00        ..      NOP      
        0x00000644:    482b        +H      LDR      r0,[pc,#172] ; [0x6f4] = 0x40010080
        0x00000646:    6800        .h      LDR      r0,[r0,#0]
        0x00000648:    f0000002    ....    AND      r0,r0,#2
        0x0000064c:    2800        .(      CMP      r0,#0
        0x0000064e:    d0f9        ..      BEQ      0x644 ; am_gpio_isr + 12
        0x00000650:    bf00        ..      NOP      
        0x00000652:    4828        (H      LDR      r0,[pc,#160] ; [0x6f4] = 0x40010080
        0x00000654:    6800        .h      LDR      r0,[r0,#0]
        0x00000656:    f0000002    ....    AND      r0,r0,#2
        0x0000065a:    2800        .(      CMP      r0,#0
        0x0000065c:    d1f9        ..      BNE      0x652 ; am_gpio_isr + 26
        0x0000065e:    bf00        ..      NOP      
        0x00000660:    4824        $H      LDR      r0,[pc,#144] ; [0x6f4] = 0x40010080
        0x00000662:    6800        .h      LDR      r0,[r0,#0]
        0x00000664:    f0000002    ....    AND      r0,r0,#2
        0x00000668:    2800        .(      CMP      r0,#0
        0x0000066a:    d0f9        ..      BEQ      0x660 ; am_gpio_isr + 40
        0x0000066c:    bf00        ..      NOP      
        0x0000066e:    4821        !H      LDR      r0,[pc,#132] ; [0x6f4] = 0x40010080
        0x00000670:    6800        .h      LDR      r0,[r0,#0]
        0x00000672:    f0000002    ....    AND      r0,r0,#2
        0x00000676:    2800        .(      CMP      r0,#0
        0x00000678:    d1f9        ..      BNE      0x66e ; am_gpio_isr + 54
        0x0000067a:    bf00        ..      NOP      
        0x0000067c:    481d        .H      LDR      r0,[pc,#116] ; [0x6f4] = 0x40010080
        0x0000067e:    6800        .h      LDR      r0,[r0,#0]
        0x00000680:    f0000002    ....    AND      r0,r0,#2
        0x00000684:    2800        .(      CMP      r0,#0
        0x00000686:    d0f9        ..      BEQ      0x67c ; am_gpio_isr + 68
        0x00000688:    bf00        ..      NOP      
        0x0000068a:    481a        .H      LDR      r0,[pc,#104] ; [0x6f4] = 0x40010080
        0x0000068c:    6800        .h      LDR      r0,[r0,#0]
        0x0000068e:    f0000002    ....    AND      r0,r0,#2
        0x00000692:    2800        .(      CMP      r0,#0
        0x00000694:    d1f9        ..      BNE      0x68a ; am_gpio_isr + 82
        0x00000696:    bf00        ..      NOP      
        0x00000698:    4816        .H      LDR      r0,[pc,#88] ; [0x6f4] = 0x40010080
        0x0000069a:    6800        .h      LDR      r0,[r0,#0]
        0x0000069c:    f0000002    ....    AND      r0,r0,#2
        0x000006a0:    2800        .(      CMP      r0,#0
        0x000006a2:    d0f9        ..      BEQ      0x698 ; am_gpio_isr + 96
        0x000006a4:    bf00        ..      NOP      
        0x000006a6:    4813        .H      LDR      r0,[pc,#76] ; [0x6f4] = 0x40010080
        0x000006a8:    6800        .h      LDR      r0,[r0,#0]
        0x000006aa:    f0000002    ....    AND      r0,r0,#2
        0x000006ae:    2800        .(      CMP      r0,#0
        0x000006b0:    d1f9        ..      BNE      0x6a6 ; am_gpio_isr + 110
        0x000006b2:    bf00        ..      NOP      
        0x000006b4:    480f        .H      LDR      r0,[pc,#60] ; [0x6f4] = 0x40010080
        0x000006b6:    6800        .h      LDR      r0,[r0,#0]
        0x000006b8:    f0000002    ....    AND      r0,r0,#2
        0x000006bc:    2800        .(      CMP      r0,#0
        0x000006be:    d0f9        ..      BEQ      0x6b4 ; am_gpio_isr + 124
        0x000006c0:    f000f9a9    ....    BL       am_hal_systick_count ; 0xa16
        0x000006c4:    4604        .F      MOV      r4,r0
        0x000006c6:    2002        .       MOVS     r0,#2
        0x000006c8:    2100        .!      MOVS     r1,#0
        0x000006ca:    f000f86b    ..k.    BL       am_hal_gpio_int_disable ; 0x7a4
        0x000006ce:    2002        .       MOVS     r0,#2
        0x000006d0:    2100        .!      MOVS     r1,#0
        0x000006d2:    f000f85f    .._.    BL       am_hal_gpio_int_clear ; 0x794
        0x000006d6:    1b3d        =.      SUBS     r5,r7,r4
        0x000006d8:    4807        .H      LDR      r0,[pc,#28] ; [0x6f8] = 0xcdfe600
        0x000006da:    fbb0f6f5    ....    UDIV     r6,r0,r5
        0x000006de:    4631        1F      MOV      r1,r6
        0x000006e0:    2000        .       MOVS     r0,#0
        0x000006e2:    f000ff6f    ..o.    BL       setup_serial ; 0x15c4
        0x000006e6:    2155        U!      MOVS     r1,#0x55
        0x000006e8:    2000        .       MOVS     r0,#0
        0x000006ea:    f000f9a3    ....    BL       am_hal_uart_char_transmit_polled ; 0xa34
        0x000006ee:    e8bd81f0    ....    POP      {r4-r8,pc}
    $d
        0x000006f2:    0000        ..      DCW    0
        0x000006f4:    40010080    ...@    DCD    1073807488
        0x000006f8:    0cdfe600    ....    DCD    216000000
    $t
    i.am_hal_clkgen_osc_stop
    am_hal_clkgen_osc_stop
        0x000006fc:    f04f2140    O.@!    MOV      r1,#0x40004000
        0x00000700:    68ca        .h      LDR      r2,[r1,#0xc]
        0x00000702:    4310        .C      ORRS     r0,r0,r2
        0x00000704:    60c8        .`      STR      r0,[r1,#0xc]
        0x00000706:    4770        pG      BX       lr
    i.am_hal_clkgen_sysclk_get
    am_hal_clkgen_sysclk_get
        0x00000708:    f04f2040    O.@     MOV      r0,#0x40004000
        0x0000070c:    6980        .i      LDR      r0,[r0,#0x18]
        0x0000070e:    f0000007    ....    AND      r0,r0,#7
        0x00000712:    2808        .(      CMP      r0,#8
        0x00000714:    d215        ..      BCS      0x742 ; am_hal_clkgen_sysclk_get + 58
        0x00000716:    e8dff000    ....    TBB      [pc,r0]
    $d
        0x0000071a:    0604        ..      DCW    1540
        0x0000071c:    0e0c0a08    ....    DCD    235670024
        0x00000720:    1210        ..      DCW    4624
    $t
        0x00000722:    4809        .H      LDR      r0,[pc,#36] ; [0x748] = 0x16e3600
        0x00000724:    4770        pG      BX       lr
        0x00000726:    4809        .H      LDR      r0,[pc,#36] ; [0x74c] = 0xb71b00
        0x00000728:    4770        pG      BX       lr
        0x0000072a:    4809        .H      LDR      r0,[pc,#36] ; [0x750] = 0x7a1200
        0x0000072c:    4770        pG      BX       lr
        0x0000072e:    4809        .H      LDR      r0,[pc,#36] ; [0x754] = 0x5b8d80
        0x00000730:    4770        pG      BX       lr
        0x00000732:    4809        .H      LDR      r0,[pc,#36] ; [0x758] = 0x493e00
        0x00000734:    4770        pG      BX       lr
        0x00000736:    4809        .H      LDR      r0,[pc,#36] ; [0x75c] = 0x3d0900
        0x00000738:    4770        pG      BX       lr
        0x0000073a:    4809        .H      LDR      r0,[pc,#36] ; [0x760] = 0x3450db
        0x0000073c:    4770        pG      BX       lr
        0x0000073e:    4809        .H      LDR      r0,[pc,#36] ; [0x764] = 0x2dc6c0
        0x00000740:    4770        pG      BX       lr
        0x00000742:    f04f30ff    O..0    MOV      r0,#0xffffffff
        0x00000746:    4770        pG      BX       lr
    $d
        0x00000748:    016e3600    .6n.    DCD    24000000
        0x0000074c:    00b71b00    ....    DCD    12000000
        0x00000750:    007a1200    ..z.    DCD    8000000
        0x00000754:    005b8d80    ..[.    DCD    6000000
        0x00000758:    00493e00    .>I.    DCD    4800000
        0x0000075c:    003d0900    ..=.    DCD    4000000
        0x00000760:    003450db    .P4.    DCD    3428571
        0x00000764:    002dc6c0    ..-.    DCD    3000000
    $t
    i.am_hal_clkgen_sysclk_select
    am_hal_clkgen_sysclk_select
        0x00000768:    f04f2140    O.@!    MOV      r1,#0x40004000
        0x0000076c:    2247        G"      MOVS     r2,#0x47
        0x0000076e:    614a        Ja      STR      r2,[r1,#0x14]
        0x00000770:    6188        .a      STR      r0,[r1,#0x18]
        0x00000772:    2000        .       MOVS     r0,#0
        0x00000774:    6148        Ha      STR      r0,[r1,#0x14]
        0x00000776:    4770        pG      BX       lr
    i.am_hal_flash_page_erase
    am_hal_flash_page_erase
        0x00000778:    4b01        .K      LDR      r3,[pc,#4] ; [0x780] = 0x10000078
        0x0000077a:    685b        [h      LDR      r3,[r3,#4]
        0x0000077c:    4718        .G      BX       r3
    $d
        0x0000077e:    0000        ..      DCW    0
        0x00000780:    10000078    x...    DCD    268435576
    $t
    i.am_hal_flash_program_main
    am_hal_flash_program_main
        0x00000784:    f8dfc008    ....    LDR      r12,[pc,#8] ; [0x790] = 0x10000078
        0x00000788:    f8dcc008    ....    LDR      r12,[r12,#8]
        0x0000078c:    4760        `G      BX       r12
    $d
        0x0000078e:    0000        ..      DCW    0
        0x00000790:    10000078    x...    DCD    268435576
    $t
    i.am_hal_gpio_int_clear
    am_hal_gpio_int_clear
        0x00000794:    4a02        .J      LDR      r2,[pc,#8] ; [0x7a0] = 0x40010000
        0x00000796:    f8c21218    ....    STR      r1,[r2,#0x218]
        0x0000079a:    f8c20208    ....    STR      r0,[r2,#0x208]
        0x0000079e:    4770        pG      BX       lr
    $d
        0x000007a0:    40010000    ...@    DCD    1073807360
    $t
    i.am_hal_gpio_int_disable
    am_hal_gpio_int_disable
        0x000007a4:    4a06        .J      LDR      r2,[pc,#24] ; [0x7c0] = 0x40010000
        0x000007a6:    f8d23210    ...2    LDR      r3,[r2,#0x210]
        0x000007aa:    ea230101    #...    BIC      r1,r3,r1
        0x000007ae:    f8c21210    ....    STR      r1,[r2,#0x210]
        0x000007b2:    f8d21200    ....    LDR      r1,[r2,#0x200]
        0x000007b6:    ea210000    !...    BIC      r0,r1,r0
        0x000007ba:    f8c20200    ....    STR      r0,[r2,#0x200]
        0x000007be:    4770        pG      BX       lr
    $d
        0x000007c0:    40010000    ...@    DCD    1073807360
    $t
    i.am_hal_gpio_int_enable
    am_hal_gpio_int_enable
        0x000007c4:    4a05        .J      LDR      r2,[pc,#20] ; [0x7dc] = 0x40010000
        0x000007c6:    f8d23210    ...2    LDR      r3,[r2,#0x210]
        0x000007ca:    4319        .C      ORRS     r1,r1,r3
        0x000007cc:    f8c21210    ....    STR      r1,[r2,#0x210]
        0x000007d0:    f8d21200    ....    LDR      r1,[r2,#0x200]
        0x000007d4:    4308        .C      ORRS     r0,r0,r1
        0x000007d6:    f8c20200    ....    STR      r0,[r2,#0x200]
        0x000007da:    4770        pG      BX       lr
    $d
        0x000007dc:    40010000    ...@    DCD    1073807360
    $t
    i.am_hal_interrupt_enable
    am_hal_interrupt_enable
        0x000007e0:    280f        .(      CMP      r0,#0xf
        0x000007e2:    d90a        ..      BLS      0x7fa ; am_hal_interrupt_enable + 26
        0x000007e4:    3810        .8      SUBS     r0,r0,#0x10
        0x000007e6:    f000001f    ....    AND      r0,r0,#0x1f
        0x000007ea:    2101        .!      MOVS     r1,#1
        0x000007ec:    fa01f000    ....    LSL      r0,r1,r0
        0x000007f0:    f04f21e0    O..!    MOV      r1,#0xe000e000
        0x000007f4:    f8c10100    ....    STR      r0,[r1,#0x100]
        0x000007f8:    4770        pG      BX       lr
        0x000007fa:    490b        .I      LDR      r1,[pc,#44] ; [0x828] = 0xe000ed24
        0x000007fc:    2804        .(      CMP      r0,#4
        0x000007fe:    d00d        ..      BEQ      0x81c ; am_hal_interrupt_enable + 60
        0x00000800:    2805        .(      CMP      r0,#5
        0x00000802:    bf04        ..      ITT      EQ
        0x00000804:    6808        .h      LDREQ    r0,[r1,#0]
        0x00000806:    f4403000    @..0    ORREQ    r0,r0,#0x20000
        0x0000080a:    d005        ..      BEQ      0x818 ; am_hal_interrupt_enable + 56
        0x0000080c:    2806        .(      CMP      r0,#6
        0x0000080e:    bf06        ..      ITTE     EQ
        0x00000810:    6808        .h      LDREQ    r0,[r1,#0]
        0x00000812:    f4402080    @..     ORREQ    r0,r0,#0x40000
        0x00000816:    4770        pG      BXNE     lr
        0x00000818:    6008        .`      STR      r0,[r1,#0]
        0x0000081a:    4770        pG      BX       lr
        0x0000081c:    6808        .h      LDR      r0,[r1,#0]
        0x0000081e:    f4403080    @..0    ORR      r0,r0,#0x10000
        0x00000822:    6008        .`      STR      r0,[r1,#0]
        0x00000824:    4770        pG      BX       lr
    $d
        0x00000826:    0000        ..      DCW    0
        0x00000828:    e000ed24    $...    DCD    3758157092
    $t
    i.am_hal_ios_access_int_clear
    am_hal_ios_access_int_clear
        0x0000082c:    f04f41a0    O..A    MOV      r1,#0x50000000
        0x00000830:    f8c10218    ....    STR      r0,[r1,#0x218]
        0x00000834:    4770        pG      BX       lr
    i.am_hal_ios_access_int_enable
    am_hal_ios_access_int_enable
        0x00000836:    f04f41a0    O..A    MOV      r1,#0x50000000
        0x0000083a:    f8d12210    ..."    LDR      r2,[r1,#0x210]
        0x0000083e:    4310        .C      ORRS     r0,r0,r2
        0x00000840:    f8c10210    ....    STR      r0,[r1,#0x210]
        0x00000844:    4770        pG      BX       lr
    i.am_hal_ios_access_int_status_get
    am_hal_ios_access_int_status_get
        0x00000846:    f04f41a0    O..A    MOV      r1,#0x50000000
        0x0000084a:    2800        .(      CMP      r0,#0
        0x0000084c:    f8d10214    ....    LDR      r0,[r1,#0x214]
        0x00000850:    bf1c        ..      ITT      NE
        0x00000852:    f8d11210    ....    LDRNE    r1,[r1,#0x210]
        0x00000856:    4008        .@      ANDNE    r0,r0,r1
        0x00000858:    4770        pG      BX       lr
        0x0000085a:    0000        ..      MOVS     r0,r0
    i.am_hal_ios_config
    am_hal_ios_config
        0x0000085c:    b410        ..      PUSH     {r4}
        0x0000085e:    6883        .h      LDR      r3,[r0,#8]
        0x00000860:    4a20         J      LDR      r2,[pc,#128] ; [0x8e4] = 0x10000098
        0x00000862:    f10341a0    ...A    ADD      r1,r3,#0x50000000
        0x00000866:    f04f547c    O.|T    MOV      r4,#0x3f000000
        0x0000086a:    6011        .`      STR      r1,[r2,#0]
        0x0000086c:    68c1        .h      LDR      r1,[r0,#0xc]
        0x0000086e:    f3c303c4    ....    UBFX     r3,r3,#3,#5
        0x00000872:    f1014ca0    ...L    ADD      r12,r1,#0x50000000
        0x00000876:    f8c2c004    ....    STR      r12,[r2,#4]
        0x0000087a:    f8b0c004    ....    LDRH     r12,[r0,#4]
        0x0000087e:    08c9        ..      LSRS     r1,r1,#3
        0x00000880:    ea4f0cdc    O...    LSR      r12,r12,#3
        0x00000884:    ea046c0c    ...l    AND      r12,r4,r12,LSL #24
        0x00000888:    ea43030c    C...    ORR      r3,r3,r12
        0x0000088c:    f44f5c7c    O.|\    MOV      r12,#0x3f00
        0x00000890:    ea0c2101    ...!    AND      r1,r12,r1,LSL #8
        0x00000894:    430b        .C      ORRS     r3,r3,r1
        0x00000896:    f04f41a0    O..A    MOV      r1,#0x50000000
        0x0000089a:    f8d1c118    ....    LDR      r12,[r1,#0x118]
        0x0000089e:    f02c4c00    ,..L    BIC      r12,r12,#0x80000000
        0x000008a2:    f8c1c118    ....    STR      r12,[r1,#0x118]
        0x000008a6:    f8d0c000    ....    LDR      r12,[r0,#0]
        0x000008aa:    f8c1c118    ....    STR      r12,[r1,#0x118]
        0x000008ae:    f8c13104    ...1    STR      r3,[r1,#0x104]
        0x000008b2:    f8d13118    ...1    LDR      r3,[r1,#0x118]
        0x000008b6:    f0434300    C..C    ORR      r3,r3,#0x80000000
        0x000008ba:    f8c13118    ...1    STR      r3,[r1,#0x118]
        0x000008be:    f04f0c01    O...    MOV      r12,#1
        0x000008c2:    6883        .h      LDR      r3,[r0,#8]
        0x000008c4:    f8c1c10c    ....    STR      r12,[r1,#0x10c]
        0x000008c8:    f8c13100    ...1    STR      r3,[r1,#0x100]
        0x000008cc:    f04f0c00    O...    MOV      r12,#0
        0x000008d0:    f8c1c10c    ....    STR      r12,[r1,#0x10c]
        0x000008d4:    f10343a0    ...C    ADD      r3,r3,#0x50000000
        0x000008d8:    6093        .`      STR      r3,[r2,#8]
        0x000008da:    6900        .i      LDR      r0,[r0,#0x10]
        0x000008dc:    f8c10108    ....    STR      r0,[r1,#0x108]
        0x000008e0:    bc10        ..      POP      {r4}
        0x000008e2:    4770        pG      BX       lr
    $d
        0x000008e4:    10000098    ....    DCD    268435608
    $t
    i.am_hal_ios_fifo_service
    am_hal_ios_fifo_service
        0x000008e8:    b410        ..      PUSH     {r4}
        0x000008ea:    f0100f01    ....    TST      r0,#1
        0x000008ee:    bf04        ..      ITT      EQ
        0x000008f0:    bc10        ..      POPEQ    {r4}
        0x000008f2:    4770        pG      BXEQ     lr
        0x000008f4:    4920         I      LDR      r1,[pc,#128] ; [0x978] = 0x10000098
        0x000008f6:    f04f43a0    O..C    MOV      r3,#0x50000000
        0x000008fa:    e9d12000    ...     LDRD     r2,r0,[r1,#0]
        0x000008fe:    1a80        ..      SUBS     r0,r0,r2
        0x00000900:    f8d32100    ...!    LDR      r2,[r3,#0x100]
        0x00000904:    f3c22207    ..."    UBFX     r2,r2,#8,#8
        0x00000908:    4290        .B      CMP      r0,r2
        0x0000090a:    bf12        ..      ITEE     NE
        0x0000090c:    481b        .H      LDRNE    r0,[pc,#108] ; [0x97c] = 0x100011cc
        0x0000090e:    bc10        ..      POPEQ    {r4}
        0x00000910:    4770        pG      BXEQ     lr
        0x00000912:    68c2        .h      LDR      r2,[r0,#0xc]
        0x00000914:    2a00        .*      CMP      r2,#0
        0x00000916:    bf04        ..      ITT      EQ
        0x00000918:    bc10        ..      POPEQ    {r4}
        0x0000091a:    4770        pG      BXEQ     lr
        0x0000091c:    688a        .h      LDR      r2,[r1,#8]
        0x0000091e:    f8d0c00c    ....    LDR      r12,[r0,#0xc]
        0x00000922:    f1bc0f00    ....    CMP      r12,#0
        0x00000926:    d012        ..      BEQ      0x94e ; am_hal_ios_fifo_service + 102
        0x00000928:    f8d0c000    ....    LDR      r12,[r0,#0]
        0x0000092c:    6884        .h      LDR      r4,[r0,#8]
        0x0000092e:    f81cc004    ....    LDRB     r12,[r12,r4]
        0x00000932:    f882c000    ....    STRB     r12,[r2,#0]
        0x00000936:    6882        .h      LDR      r2,[r0,#8]
        0x00000938:    f1020c01    ....    ADD      r12,r2,#1
        0x0000093c:    6902        .i      LDR      r2,[r0,#0x10]
        0x0000093e:    fbbcf4f2    ....    UDIV     r4,r12,r2
        0x00000942:    fb02c214    ....    MLS      r2,r2,r4,r12
        0x00000946:    6082        .`      STR      r2,[r0,#8]
        0x00000948:    68c2        .h      LDR      r2,[r0,#0xc]
        0x0000094a:    1e52        R.      SUBS     r2,r2,#1
        0x0000094c:    60c2        .`      STR      r2,[r0,#0xc]
        0x0000094e:    688a        .h      LDR      r2,[r1,#8]
        0x00000950:    1c52        R.      ADDS     r2,r2,#1
        0x00000952:    608a        .`      STR      r2,[r1,#8]
        0x00000954:    f8d1c004    ....    LDR      r12,[r1,#4]
        0x00000958:    4562        bE      CMP      r2,r12
        0x0000095a:    bf04        ..      ITT      EQ
        0x0000095c:    680a        .h      LDREQ    r2,[r1,#0]
        0x0000095e:    608a        .`      STREQ    r2,[r1,#8]
        0x00000960:    680a        .h      LDR      r2,[r1,#0]
        0x00000962:    ebac0202    ....    SUB      r2,r12,r2
        0x00000966:    f8d3c100    ....    LDR      r12,[r3,#0x100]
        0x0000096a:    f3cc2c07    ...,    UBFX     r12,r12,#8,#8
        0x0000096e:    4562        bE      CMP      r2,r12
        0x00000970:    d1cf        ..      BNE      0x912 ; am_hal_ios_fifo_service + 42
        0x00000972:    bc10        ..      POP      {r4}
        0x00000974:    4770        pG      BX       lr
    $d
        0x00000976:    0000        ..      DCW    0
        0x00000978:    10000098    ....    DCD    268435608
        0x0000097c:    100011cc    ....    DCD    268440012
    $t
    i.am_hal_ios_int_clear
    am_hal_ios_int_clear
        0x00000980:    f04f41a0    O..A    MOV      r1,#0x50000000
        0x00000984:    f8c10208    ....    STR      r0,[r1,#0x208]
        0x00000988:    4770        pG      BX       lr
    i.am_hal_ios_int_enable
    am_hal_ios_int_enable
        0x0000098a:    f04f41a0    O..A    MOV      r1,#0x50000000
        0x0000098e:    f8d12200    ..."    LDR      r2,[r1,#0x200]
        0x00000992:    4310        .C      ORRS     r0,r0,r2
        0x00000994:    f8c10200    ....    STR      r0,[r1,#0x200]
        0x00000998:    4770        pG      BX       lr
    i.am_hal_ios_int_status_get
    am_hal_ios_int_status_get
        0x0000099a:    f04f41a0    O..A    MOV      r1,#0x50000000
        0x0000099e:    2800        .(      CMP      r0,#0
        0x000009a0:    f8d10204    ....    LDR      r0,[r1,#0x204]
        0x000009a4:    bf1c        ..      ITT      NE
        0x000009a6:    f8d11200    ....    LDRNE    r1,[r1,#0x200]
        0x000009aa:    4008        .@      ANDNE    r0,r0,r1
        0x000009ac:    4770        pG      BX       lr
        0x000009ae:    0000        ..      MOVS     r0,r0
    i.am_hal_mcuctrl_bandgap_disable
    am_hal_mcuctrl_bandgap_disable
        0x000009b0:    4902        .I      LDR      r1,[pc,#8] ; [0x9bc] = 0x40020000
        0x000009b2:    f06f0001    o...    MVN      r0,#1
        0x000009b6:    f8c100fc    ....    STR      r0,[r1,#0xfc]
        0x000009ba:    4770        pG      BX       lr
    $d
        0x000009bc:    40020000    ...@    DCD    1073872896
    $t
    i.am_hal_mcuctrl_bucks_enable
    am_hal_mcuctrl_bucks_enable
        0x000009c0:    4808        .H      LDR      r0,[pc,#32] ; [0x9e4] = 0x40020000
        0x000009c2:    6901        .i      LDR      r1,[r0,#0x10]
        0x000009c4:    f0410102    A...    ORR      r1,r1,#2
        0x000009c8:    6101        .a      STR      r1,[r0,#0x10]
        0x000009ca:    6901        .i      LDR      r1,[r0,#0x10]
        0x000009cc:    f0410101    A...    ORR      r1,r1,#1
        0x000009d0:    6101        .a      STR      r1,[r0,#0x10]
        0x000009d2:    6941        Ai      LDR      r1,[r0,#0x14]
        0x000009d4:    f0110f02    ....    TST      r1,#2
        0x000009d8:    d0fb        ..      BEQ      0x9d2 ; am_hal_mcuctrl_bucks_enable + 18
        0x000009da:    6941        Ai      LDR      r1,[r0,#0x14]
        0x000009dc:    f0110f01    ....    TST      r1,#1
        0x000009e0:    d0fb        ..      BEQ      0x9da ; am_hal_mcuctrl_bucks_enable + 26
        0x000009e2:    4770        pG      BX       lr
    $d
        0x000009e4:    40020000    ...@    DCD    1073872896
    $t
    i.am_hal_reset_poi
    am_hal_reset_poi
        0x000009e8:    f04f4180    O..A    MOV      r1,#0x40000000
        0x000009ec:    201b        .       MOVS     r0,#0x1b
        0x000009ee:    6048        H`      STR      r0,[r1,#4]
        0x000009f0:    4770        pG      BX       lr
    i.am_hal_rtc_osc_disable
    am_hal_rtc_osc_disable
        0x000009f2:    f04f2040    O.@     MOV      r0,#0x40004000
        0x000009f6:    6d01        .m      LDR      r1,[r0,#0x50]
        0x000009f8:    f0410110    A...    ORR      r1,r1,#0x10
        0x000009fc:    6501        .e      STR      r1,[r0,#0x50]
        0x000009fe:    4770        pG      BX       lr
    i.am_hal_rtc_osc_select
    am_hal_rtc_osc_select
        0x00000a00:    f04f2140    O.@!    MOV      r1,#0x40004000
        0x00000a04:    2800        .(      CMP      r0,#0
        0x00000a06:    68c8        .h      LDR      r0,[r1,#0xc]
        0x00000a08:    bf14        ..      ITE      NE
        0x00000a0a:    f0400080    @...    ORRNE    r0,r0,#0x80
        0x00000a0e:    f0200080     ...    BICEQ    r0,r0,#0x80
        0x00000a12:    60c8        .`      STR      r0,[r1,#0xc]
        0x00000a14:    4770        pG      BX       lr
    i.am_hal_systick_count
    am_hal_systick_count
        0x00000a16:    f04f20e0    O..     MOV      r0,#0xe000e000
        0x00000a1a:    6980        .i      LDR      r0,[r0,#0x18]
        0x00000a1c:    4770        pG      BX       lr
    i.am_hal_systick_load
    am_hal_systick_load
        0x00000a1e:    f04f21e0    O..!    MOV      r1,#0xe000e000
        0x00000a22:    6148        Ha      STR      r0,[r1,#0x14]
        0x00000a24:    4770        pG      BX       lr
    i.am_hal_systick_start
    am_hal_systick_start
        0x00000a26:    f04f20e0    O..     MOV      r0,#0xe000e000
        0x00000a2a:    6901        .i      LDR      r1,[r0,#0x10]
        0x00000a2c:    f0410101    A...    ORR      r1,r1,#1
        0x00000a30:    6101        .a      STR      r1,[r0,#0x10]
        0x00000a32:    4770        pG      BX       lr
    i.am_hal_uart_char_transmit_polled
    am_hal_uart_char_transmit_polled
        0x00000a34:    4803        .H      LDR      r0,[pc,#12] ; [0xa44] = 0x4001c000
        0x00000a36:    6982        .i      LDR      r2,[r0,#0x18]
        0x00000a38:    f0120f20    .. .    TST      r2,#0x20
        0x00000a3c:    d1fb        ..      BNE      0xa36 ; am_hal_uart_char_transmit_polled + 2
        0x00000a3e:    6001        .`      STR      r1,[r0,#0]
        0x00000a40:    4770        pG      BX       lr
    $d
        0x00000a42:    0000        ..      DCW    0
        0x00000a44:    4001c000    ...@    DCD    1073856512
    $t
    i.am_hal_uart_clock_enable
    am_hal_uart_clock_enable
        0x00000a48:    f04f2040    O.@     MOV      r0,#0x40004000
        0x00000a4c:    6ac1        .j      LDR      r1,[r0,#0x2c]
        0x00000a4e:    f0410101    A...    ORR      r1,r1,#1
        0x00000a52:    62c1        .b      STR      r1,[r0,#0x2c]
        0x00000a54:    4804        .H      LDR      r0,[pc,#16] ; [0xa68] = 0x4001c000
        0x00000a56:    6b01        .k      LDR      r1,[r0,#0x30]
        0x00000a58:    f0410108    A...    ORR      r1,r1,#8
        0x00000a5c:    6301        .c      STR      r1,[r0,#0x30]
        0x00000a5e:    6b01        .k      LDR      r1,[r0,#0x30]
        0x00000a60:    f0410110    A...    ORR      r1,r1,#0x10
        0x00000a64:    6301        .c      STR      r1,[r0,#0x30]
        0x00000a66:    4770        pG      BX       lr
    $d
        0x00000a68:    4001c000    ...@    DCD    1073856512
    $t
    i.am_hal_uart_config
    am_hal_uart_config
        0x00000a6c:    b570        p.      PUSH     {r4-r6,lr}
        0x00000a6e:    460c        .F      MOV      r4,r1
        0x00000a70:    680d        .h      LDR      r5,[r1,#0]
        0x00000a72:    f7fffe49    ..I.    BL       am_hal_clkgen_sysclk_get ; 0x708
        0x00000a76:    0129        ).      LSLS     r1,r5,#4
        0x00000a78:    fbb0f2f1    ....    UDIV     r2,r0,r1
        0x00000a7c:    0180        ..      LSLS     r0,r0,#6
        0x00000a7e:    fbb0f0f1    ....    UDIV     r0,r0,r1
        0x00000a82:    0191        ..      LSLS     r1,r2,#6
        0x00000a84:    1a41        A.      SUBS     r1,r0,r1
        0x00000a86:    b1ba        ..      CBZ      r2,0xab8 ; am_hal_uart_config + 76
        0x00000a88:    480c        .H      LDR      r0,[pc,#48] ; [0xabc] = 0x4001c000
        0x00000a8a:    6242        Bb      STR      r2,[r0,#0x24]
        0x00000a8c:    6242        Bb      STR      r2,[r0,#0x24]
        0x00000a8e:    6281        .b      STR      r1,[r0,#0x28]
        0x00000a90:    7a22        "z      LDRB     r2,[r4,#8]
        0x00000a92:    6861        ah      LDR      r1,[r4,#4]
        0x00000a94:    2a00        .*      CMP      r2,#0
        0x00000a96:    bf18        ..      IT       NE
        0x00000a98:    2208        ."      MOVNE    r2,#8
        0x00000a9a:    4311        .C      ORRS     r1,r1,r2
        0x00000a9c:    68e2        .h      LDR      r2,[r4,#0xc]
        0x00000a9e:    4311        .C      ORRS     r1,r1,r2
        0x00000aa0:    6ac2        .j      LDR      r2,[r0,#0x2c]
        0x00000aa2:    4311        .C      ORRS     r1,r1,r2
        0x00000aa4:    62c1        .b      STR      r1,[r0,#0x2c]
        0x00000aa6:    6b01        .k      LDR      r1,[r0,#0x30]
        0x00000aa8:    6922        "i      LDR      r2,[r4,#0x10]
        0x00000aaa:    4311        .C      ORRS     r1,r1,r2
        0x00000aac:    6301        .c      STR      r1,[r0,#0x30]
        0x00000aae:    6b01        .k      LDR      r1,[r0,#0x30]
        0x00000ab0:    f0410110    A...    ORR      r1,r1,#0x10
        0x00000ab4:    6301        .c      STR      r1,[r0,#0x30]
        0x00000ab6:    bd70        p.      POP      {r4-r6,pc}
        0x00000ab8:    e7fe        ..      B        0xab8 ; am_hal_uart_config + 76
    $d
        0x00000aba:    0000        ..      DCW    0
        0x00000abc:    4001c000    ...@    DCD    1073856512
    $t
    i.am_hal_uart_disable
    am_hal_uart_disable
        0x00000ac0:    4803        .H      LDR      r0,[pc,#12] ; [0xad0] = 0x4001c000
        0x00000ac2:    6b01        .k      LDR      r1,[r0,#0x30]
        0x00000ac4:    f0210101    !...    BIC      r1,r1,#1
        0x00000ac8:    f4217140    !.@q    BIC      r1,r1,#0x300
        0x00000acc:    6301        .c      STR      r1,[r0,#0x30]
        0x00000ace:    4770        pG      BX       lr
    $d
        0x00000ad0:    4001c000    ...@    DCD    1073856512
    $t
    i.am_hal_uart_enable
    am_hal_uart_enable
        0x00000ad4:    4803        .H      LDR      r0,[pc,#12] ; [0xae4] = 0x4001c000
        0x00000ad6:    6b01        .k      LDR      r1,[r0,#0x30]
        0x00000ad8:    f2403201    @..2    MOV      r2,#0x301
        0x00000adc:    4311        .C      ORRS     r1,r1,r2
        0x00000ade:    6301        .c      STR      r1,[r0,#0x30]
        0x00000ae0:    4770        pG      BX       lr
    $d
        0x00000ae2:    0000        ..      DCW    0
        0x00000ae4:    4001c000    ...@    DCD    1073856512
    $t
    i.am_hal_uart_fifo_config
    am_hal_uart_fifo_config
        0x00000ae8:    4803        .H      LDR      r0,[pc,#12] ; [0xaf8] = 0x4001c000
        0x00000aea:    6ac2        .j      LDR      r2,[r0,#0x2c]
        0x00000aec:    f0420210    B...    ORR      r2,r2,#0x10
        0x00000af0:    62c2        .b      STR      r2,[r0,#0x2c]
        0x00000af2:    6341        Ac      STR      r1,[r0,#0x34]
        0x00000af4:    4770        pG      BX       lr
    $d
        0x00000af6:    0000        ..      DCW    0
        0x00000af8:    4001c000    ...@    DCD    1073856512
    $t
    i.am_hal_uart_int_clear
    am_hal_uart_int_clear
        0x00000afc:    4801        .H      LDR      r0,[pc,#4] ; [0xb04] = 0x4001c000
        0x00000afe:    6441        Ad      STR      r1,[r0,#0x44]
        0x00000b00:    4770        pG      BX       lr
    $d
        0x00000b02:    0000        ..      DCW    0
        0x00000b04:    4001c000    ...@    DCD    1073856512
    $t
    i.am_hal_uart_int_enable
    am_hal_uart_int_enable
        0x00000b08:    4802        .H      LDR      r0,[pc,#8] ; [0xb14] = 0x4001c000
        0x00000b0a:    6b82        .k      LDR      r2,[r0,#0x38]
        0x00000b0c:    4311        .C      ORRS     r1,r1,r2
        0x00000b0e:    6381        .c      STR      r1,[r0,#0x38]
        0x00000b10:    4770        pG      BX       lr
    $d
        0x00000b12:    0000        ..      DCW    0
        0x00000b14:    4001c000    ...@    DCD    1073856512
    $t
    i.am_hal_uart_int_status_get
    am_hal_uart_int_status_get
        0x00000b18:    4802        .H      LDR      r0,[pc,#8] ; [0xb24] = 0x4001c000
        0x00000b1a:    2900        .)      CMP      r1,#0
        0x00000b1c:    bf14        ..      ITE      NE
        0x00000b1e:    6c00        .l      LDRNE    r0,[r0,#0x40]
        0x00000b20:    6bc0        .k      LDREQ    r0,[r0,#0x3c]
        0x00000b22:    4770        pG      BX       lr
    $d
        0x00000b24:    4001c000    ...@    DCD    1073856512
    $t
    i.am_hal_vcomp_disable
    am_hal_vcomp_disable
        0x00000b28:    4901        .I      LDR      r1,[pc,#4] ; [0xb30] = 0x4000c000
        0x00000b2a:    2037        7       MOVS     r0,#0x37
        0x00000b2c:    6088        .`      STR      r0,[r1,#8]
        0x00000b2e:    4770        pG      BX       lr
    $d
        0x00000b30:    4000c000    ...@    DCD    1073790976
    $t
    i.am_ioslave_acc_isr
    am_ioslave_acc_isr
        0x00000b34:    b570        p.      PUSH     {r4-r6,lr}
        0x00000b36:    2001        .       MOVS     r0,#1
        0x00000b38:    493e        >I      LDR      r1,[pc,#248] ; [0xc34] = 0x10000000
        0x00000b3a:    7008        .p      STRB     r0,[r1,#0]
        0x00000b3c:    483e        >H      LDR      r0,[pc,#248] ; [0xc38] = 0x1aa4
        0x00000b3e:    6804        .h      LDR      r4,[r0,#0]
        0x00000b40:    2000        .       MOVS     r0,#0
        0x00000b42:    f7fffe80    ....    BL       am_hal_ios_access_int_status_get ; 0x846
        0x00000b46:    4605        .F      MOV      r5,r0
        0x00000b48:    4628        (F      MOV      r0,r5
        0x00000b4a:    f7fffe6f    ..o.    BL       am_hal_ios_access_int_clear ; 0x82c
        0x00000b4e:    f0055080    ...P    AND      r0,r5,#0x10000000
        0x00000b52:    2800        .(      CMP      r0,#0
        0x00000b54:    d06d        m.      BEQ      0xc32 ; am_ioslave_acc_isr + 254
        0x00000b56:    2010        .       MOVS     r0,#0x10
        0x00000b58:    4938        8I      LDR      r1,[pc,#224] ; [0xc3c] = 0x40010090
        0x00000b5a:    6008        .`      STR      r0,[r1,#0]
        0x00000b5c:    6820         h      LDR      r0,[r4,#0]
        0x00000b5e:    280a        .(      CMP      r0,#0xa
        0x00000b60:    d265        e.      BCS      0xc2e ; am_ioslave_acc_isr + 250
        0x00000b62:    e8dff000    ....    TBB      [pc,r0]
    $d
        0x00000b66:    6362        bc      DCW    25442
        0x00000b68:    1b4f2705    .'O.    DCD    458172165
        0x00000b6c:    55646459    YddU    DCD    1432642649
    $t
        0x00000b70:    4833        3H      LDR      r0,[pc,#204] ; [0xc40] = 0x100008a4
        0x00000b72:    f000fb4f    ..O.    BL       image_start_packet_read ; 0x1214
        0x00000b76:    4933        3I      LDR      r1,[pc,#204] ; [0xc44] = 0x10000034
        0x00000b78:    7008        .p      STRB     r0,[r1,#0]
        0x00000b7a:    4608        .F      MOV      r0,r1
        0x00000b7c:    7800        .x      LDRB     r0,[r0,#0]
        0x00000b7e:    b130        0.      CBZ      r0,0xb8e ; am_ioslave_acc_isr + 90
        0x00000b80:    2002        .       MOVS     r0,#2
        0x00000b82:    6020         `      STR      r0,[r4,#0]
        0x00000b84:    2010        .       MOVS     r0,#0x10
        0x00000b86:    492d        -I      LDR      r1,[pc,#180] ; [0xc3c] = 0x40010090
        0x00000b88:    3108        .1      ADDS     r1,r1,#8
        0x00000b8a:    6008        .`      STR      r0,[r1,#0]
        0x00000b8c:    e005        ..      B        0xb9a ; am_ioslave_acc_isr + 102
        0x00000b8e:    2005        .       MOVS     r0,#5
        0x00000b90:    6020         `      STR      r0,[r4,#0]
        0x00000b92:    2010        .       MOVS     r0,#0x10
        0x00000b94:    4929        )I      LDR      r1,[pc,#164] ; [0xc3c] = 0x40010090
        0x00000b96:    3108        .1      ADDS     r1,r1,#8
        0x00000b98:    6008        .`      STR      r0,[r1,#0]
        0x00000b9a:    e049        I.      B        0xc30 ; am_ioslave_acc_isr + 252
        0x00000b9c:    4928        (I      LDR      r1,[pc,#160] ; [0xc40] = 0x100008a4
        0x00000b9e:    6860        `h      LDR      r0,[r4,#4]
        0x00000ba0:    60c8        .`      STR      r0,[r1,#0xc]
        0x00000ba2:    68a0        .h      LDR      r0,[r4,#8]
        0x00000ba4:    6108        .a      STR      r0,[r1,#0x10]
        0x00000ba6:    2002        .       MOVS     r0,#2
        0x00000ba8:    6020         `      STR      r0,[r4,#0]
        0x00000baa:    2010        .       MOVS     r0,#0x10
        0x00000bac:    4923        #I      LDR      r1,[pc,#140] ; [0xc3c] = 0x40010090
        0x00000bae:    3108        .1      ADDS     r1,r1,#8
        0x00000bb0:    6008        .`      STR      r0,[r1,#0]
        0x00000bb2:    e03d        =.      B        0xc30 ; am_ioslave_acc_isr + 252
        0x00000bb4:    4823        #H      LDR      r0,[pc,#140] ; [0xc44] = 0x10000034
        0x00000bb6:    7800        .x      LDRB     r0,[r0,#0]
        0x00000bb8:    b930        0.      CBNZ     r0,0xbc8 ; am_ioslave_acc_isr + 148
        0x00000bba:    2005        .       MOVS     r0,#5
        0x00000bbc:    6020         `      STR      r0,[r4,#0]
        0x00000bbe:    2010        .       MOVS     r0,#0x10
        0x00000bc0:    491e        .I      LDR      r1,[pc,#120] ; [0xc3c] = 0x40010090
        0x00000bc2:    3108        .1      ADDS     r1,r1,#8
        0x00000bc4:    6008        .`      STR      r0,[r1,#0]
        0x00000bc6:    e033        3.      B        0xc30 ; am_ioslave_acc_isr + 252
        0x00000bc8:    f000fa32    ..2.    BL       image_data_packet_read ; 0x1030
        0x00000bcc:    481c        .H      LDR      r0,[pc,#112] ; [0xc40] = 0x100008a4
        0x00000bce:    6840        @h      LDR      r0,[r0,#4]
        0x00000bd0:    491d        .I      LDR      r1,[pc,#116] ; [0xc48] = 0x10000030
        0x00000bd2:    6809        .h      LDR      r1,[r1,#0]
        0x00000bd4:    4288        .B      CMP      r0,r1
        0x00000bd6:    d10e        ..      BNE      0xbf6 ; am_ioslave_acc_isr + 194
        0x00000bd8:    4819        .H      LDR      r0,[pc,#100] ; [0xc40] = 0x100008a4
        0x00000bda:    6880        .h      LDR      r0,[r0,#8]
        0x00000bdc:    491b        .I      LDR      r1,[pc,#108] ; [0xc4c] = 0x10000038
        0x00000bde:    6809        .h      LDR      r1,[r1,#0]
        0x00000be0:    4288        .B      CMP      r0,r1
        0x00000be2:    d101        ..      BNE      0xbe8 ; am_ioslave_acc_isr + 180
        0x00000be4:    2003        .       MOVS     r0,#3
        0x00000be6:    e000        ..      B        0xbea ; am_ioslave_acc_isr + 182
        0x00000be8:    2004        .       MOVS     r0,#4
        0x00000bea:    6020         `      STR      r0,[r4,#0]
        0x00000bec:    2010        .       MOVS     r0,#0x10
        0x00000bee:    4913        .I      LDR      r1,[pc,#76] ; [0xc3c] = 0x40010090
        0x00000bf0:    3108        .1      ADDS     r1,r1,#8
        0x00000bf2:    6008        .`      STR      r0,[r1,#0]
        0x00000bf4:    e005        ..      B        0xc02 ; am_ioslave_acc_isr + 206
        0x00000bf6:    2002        .       MOVS     r0,#2
        0x00000bf8:    6020         `      STR      r0,[r4,#0]
        0x00000bfa:    2010        .       MOVS     r0,#0x10
        0x00000bfc:    490f        .I      LDR      r1,[pc,#60] ; [0xc3c] = 0x40010090
        0x00000bfe:    3108        .1      ADDS     r1,r1,#8
        0x00000c00:    6008        .`      STR      r0,[r1,#0]
        0x00000c02:    e015        ..      B        0xc30 ; am_ioslave_acc_isr + 252
        0x00000c04:    4812        .H      LDR      r0,[pc,#72] ; [0xc50] = 0x1000003c
        0x00000c06:    6801        .h      LDR      r1,[r0,#0]
        0x00000c08:    480d        .H      LDR      r0,[pc,#52] ; [0xc40] = 0x100008a4
        0x00000c0a:    f7fffb7d    ..}.    BL       am_bootloader_flag_page_update ; 0x308
        0x00000c0e:    bf00        ..      NOP      
        0x00000c10:    f7fffeea    ....    BL       am_hal_reset_poi ; 0x9e8
        0x00000c14:    bf00        ..      NOP      
        0x00000c16:    e7fe        ..      B        0xc16 ; am_ioslave_acc_isr + 226
        0x00000c18:    2006        .       MOVS     r0,#6
        0x00000c1a:    6020         `      STR      r0,[r4,#0]
        0x00000c1c:    480d        .H      LDR      r0,[pc,#52] ; [0xc54] = 0x16111901
        0x00000c1e:    6060        ``      STR      r0,[r4,#4]
        0x00000c20:    2010        .       MOVS     r0,#0x10
        0x00000c22:    4906        .I      LDR      r1,[pc,#24] ; [0xc3c] = 0x40010090
        0x00000c24:    3108        .1      ADDS     r1,r1,#8
        0x00000c26:    6008        .`      STR      r0,[r1,#0]
        0x00000c28:    e002        ..      B        0xc30 ; am_ioslave_acc_isr + 252
        0x00000c2a:    bf00        ..      NOP      
        0x00000c2c:    e000        ..      B        0xc30 ; am_ioslave_acc_isr + 252
        0x00000c2e:    bf00        ..      NOP      
        0x00000c30:    bf00        ..      NOP      
        0x00000c32:    bd70        p.      POP      {r4-r6,pc}
    $d
        0x00000c34:    10000000    ....    DCD    268435456
        0x00000c38:    00001aa4    ....    DCD    6820
        0x00000c3c:    40010090    ...@    DCD    1073807504
        0x00000c40:    100008a4    ....    DCD    268437668
        0x00000c44:    10000034    4...    DCD    268435508
        0x00000c48:    10000030    0...    DCD    268435504
        0x00000c4c:    10000038    8...    DCD    268435512
        0x00000c50:    1000003c    <...    DCD    268435516
        0x00000c54:    16111901    ....    DCD    370219265
    $t
    i.am_ioslave_ios_isr
    am_ioslave_ios_isr
        0x00000c58:    b510        ..      PUSH     {r4,lr}
        0x00000c5a:    2000        .       MOVS     r0,#0
        0x00000c5c:    f7fffe9d    ....    BL       am_hal_ios_int_status_get ; 0x99a
        0x00000c60:    4604        .F      MOV      r4,r0
        0x00000c62:    4620         F      MOV      r0,r4
        0x00000c64:    f7fffe8c    ....    BL       am_hal_ios_int_clear ; 0x980
        0x00000c68:    4620         F      MOV      r0,r4
        0x00000c6a:    f7fffe3d    ..=.    BL       am_hal_ios_fifo_service ; 0x8e8
        0x00000c6e:    bd10        ..      POP      {r4,pc}
    i.am_uart_isr
    am_uart_isr
        0x00000c70:    e92d47f0    -..G    PUSH     {r4-r10,lr}
        0x00000c74:    f04f0800    O...    MOV      r8,#0
        0x00000c78:    2100        .!      MOVS     r1,#0
        0x00000c7a:    4608        .F      MOV      r0,r1
        0x00000c7c:    f7ffff4c    ..L.    BL       am_hal_uart_int_status_get ; 0xb18
        0x00000c80:    4681        .F      MOV      r9,r0
        0x00000c82:    4649        IF      MOV      r1,r9
        0x00000c84:    2000        .       MOVS     r0,#0
        0x00000c86:    f7ffff39    ..9.    BL       am_hal_uart_int_clear ; 0xafc
        0x00000c8a:    4973        sI      LDR      r1,[pc,#460] ; [0xe58] = 0x4001c000
        0x00000c8c:    6809        .h      LDR      r1,[r1,#0]
        0x00000c8e:    b2ca        ..      UXTB     r2,r1
        0x00000c90:    4972        rI      LDR      r1,[pc,#456] ; [0xe5c] = 0x1000005c
        0x00000c92:    7808        .x      LDRB     r0,[r1,#0]
        0x00000c94:    1c41        A.      ADDS     r1,r0,#1
        0x00000c96:    4b71        qK      LDR      r3,[pc,#452] ; [0xe5c] = 0x1000005c
        0x00000c98:    7019        .p      STRB     r1,[r3,#0]
        0x00000c9a:    4971        qI      LDR      r1,[pc,#452] ; [0xe60] = 0x100008cc
        0x00000c9c:    540a        .T      STRB     r2,[r1,r0]
        0x00000c9e:    4618        .F      MOV      r0,r3
        0x00000ca0:    7800        .x      LDRB     r0,[r0,#0]
        0x00000ca2:    f000007f    ....    AND      r0,r0,#0x7f
        0x00000ca6:    4619        .F      MOV      r1,r3
        0x00000ca8:    7008        .p      STRB     r0,[r1,#0]
        0x00000caa:    2000        .       MOVS     r0,#0
        0x00000cac:    496d        mI      LDR      r1,[pc,#436] ; [0xe64] = 0x1000005a
        0x00000cae:    7008        .p      STRB     r0,[r1,#0]
        0x00000cb0:    486d        mH      LDR      r0,[pc,#436] ; [0xe68] = 0x1000005b
        0x00000cb2:    7800        .x      LDRB     r0,[r0,#0]
        0x00000cb4:    1c40        @.      ADDS     r0,r0,#1
        0x00000cb6:    496c        lI      LDR      r1,[pc,#432] ; [0xe68] = 0x1000005b
        0x00000cb8:    7008        .p      STRB     r0,[r1,#0]
        0x00000cba:    4618        .F      MOV      r0,r3
        0x00000cbc:    7800        .x      LDRB     r0,[r0,#0]
        0x00000cbe:    496b        kI      LDR      r1,[pc,#428] ; [0xe6c] = 0x1000005d
        0x00000cc0:    7809        .x      LDRB     r1,[r1,#0]
        0x00000cc2:    4288        .B      CMP      r0,r1
        0x00000cc4:    d102        ..      BNE      0xccc ; am_uart_isr + 92
        0x00000cc6:    2001        .       MOVS     r0,#1
        0x00000cc8:    4969        iI      LDR      r1,[pc,#420] ; [0xe70] = 0x10000059
        0x00000cca:    7008        .p      STRB     r0,[r1,#0]
        0x00000ccc:    4866        fH      LDR      r0,[pc,#408] ; [0xe68] = 0x1000005b
        0x00000cce:    7800        .x      LDRB     r0,[r0,#0]
        0x00000cd0:    2804        .(      CMP      r0,#4
        0x00000cd2:    d120         .      BNE      0xd16 ; am_uart_isr + 166
        0x00000cd4:    4862        bH      LDR      r0,[pc,#392] ; [0xe60] = 0x100008cc
        0x00000cd6:    7800        .x      LDRB     r0,[r0,#0]
        0x00000cd8:    4966        fI      LDR      r1,[pc,#408] ; [0xe74] = 0x10000064
        0x00000cda:    6008        .`      STR      r0,[r1,#0]
        0x00000cdc:    4608        .F      MOV      r0,r1
        0x00000cde:    6800        .h      LDR      r0,[r0,#0]
        0x00000ce0:    1e80        ..      SUBS     r0,r0,#2
        0x00000ce2:    2805        .(      CMP      r0,#5
        0x00000ce4:    d215        ..      BCS      0xd12 ; am_uart_isr + 162
        0x00000ce6:    e8dff000    ....    TBB      [pc,r0]
    $d
        0x00000cea:    0b03        ..      DCW    2819
        0x00000cec:    0010070c    ....    DCD    1050380
    $t
        0x00000cf0:    2010        .       MOVS     r0,#0x10
        0x00000cf2:    4961        aI      LDR      r1,[pc,#388] ; [0xe78] = 0x10000068
        0x00000cf4:    7008        .p      STRB     r0,[r1,#0]
        0x00000cf6:    e00d        ..      B        0xd14 ; am_uart_isr + 164
        0x00000cf8:    200c        .       MOVS     r0,#0xc
        0x00000cfa:    495f        _I      LDR      r1,[pc,#380] ; [0xe78] = 0x10000068
        0x00000cfc:    7008        .p      STRB     r0,[r1,#0]
        0x00000cfe:    e009        ..      B        0xd14 ; am_uart_isr + 164
        0x00000d00:    e008        ..      B        0xd14 ; am_uart_isr + 164
        0x00000d02:    2004        .       MOVS     r0,#4
        0x00000d04:    495c        \I      LDR      r1,[pc,#368] ; [0xe78] = 0x10000068
        0x00000d06:    7008        .p      STRB     r0,[r1,#0]
        0x00000d08:    e004        ..      B        0xd14 ; am_uart_isr + 164
        0x00000d0a:    2004        .       MOVS     r0,#4
        0x00000d0c:    495a        ZI      LDR      r1,[pc,#360] ; [0xe78] = 0x10000068
        0x00000d0e:    7008        .p      STRB     r0,[r1,#0]
        0x00000d10:    e000        ..      B        0xd14 ; am_uart_isr + 164
        0x00000d12:    bf00        ..      NOP      
        0x00000d14:    bf00        ..      NOP      
        0x00000d16:    4857        WH      LDR      r0,[pc,#348] ; [0xe74] = 0x10000064
        0x00000d18:    6800        .h      LDR      r0,[r0,#0]
        0x00000d1a:    2803        .(      CMP      r0,#3
        0x00000d1c:    d10c        ..      BNE      0xd38 ; am_uart_isr + 200
        0x00000d1e:    4852        RH      LDR      r0,[pc,#328] ; [0xe68] = 0x1000005b
        0x00000d20:    7800        .x      LDRB     r0,[r0,#0]
        0x00000d22:    2808        .(      CMP      r0,#8
        0x00000d24:    d108        ..      BNE      0xd38 ; am_uart_isr + 200
        0x00000d26:    484e        NH      LDR      r0,[pc,#312] ; [0xe60] = 0x100008cc
        0x00000d28:    7900        .y      LDRB     r0,[r0,#4]
        0x00000d2a:    4954        TI      LDR      r1,[pc,#336] ; [0xe7c] = 0x10000069
        0x00000d2c:    7008        .p      STRB     r0,[r1,#0]
        0x00000d2e:    4608        .F      MOV      r0,r1
        0x00000d30:    7800        .x      LDRB     r0,[r0,#0]
        0x00000d32:    3008        .0      ADDS     r0,r0,#8
        0x00000d34:    4950        PI      LDR      r1,[pc,#320] ; [0xe78] = 0x10000068
        0x00000d36:    7008        .p      STRB     r0,[r1,#0]
        0x00000d38:    484b        KH      LDR      r0,[pc,#300] ; [0xe68] = 0x1000005b
        0x00000d3a:    7800        .x      LDRB     r0,[r0,#0]
        0x00000d3c:    494e        NI      LDR      r1,[pc,#312] ; [0xe78] = 0x10000068
        0x00000d3e:    7809        .x      LDRB     r1,[r1,#0]
        0x00000d40:    4288        .B      CMP      r0,r1
        0x00000d42:    d15d        ].      BNE      0xe00 ; am_uart_isr + 400
        0x00000d44:    4e46        FN      LDR      r6,[pc,#280] ; [0xe60] = 0x100008cc
        0x00000d46:    4c4e        NL      LDR      r4,[pc,#312] ; [0xe80] = 0x1000094c
        0x00000d48:    6830        0h      LDR      r0,[r6,#0]
        0x00000d4a:    2807        .(      CMP      r0,#7
        0x00000d4c:    d256        V.      BCS      0xdfc ; am_uart_isr + 396
        0x00000d4e:    e8dff000    ....    TBB      [pc,r0]
    $d
        0x00000d52:    5453        ST      DCW    21587
        0x00000d54:    15422004    . B.    DCD    356655108
        0x00000d58:    004b        K.      DCW    75
    $t
        0x00000d5a:    484a        JH      LDR      r0,[pc,#296] ; [0xe84] = 0x100008a4
        0x00000d5c:    f000fa84    ....    BL       image_start_packet_read ; 0x1268
        0x00000d60:    4949        II      LDR      r1,[pc,#292] ; [0xe88] = 0x10000034
        0x00000d62:    7008        .p      STRB     r0,[r1,#0]
        0x00000d64:    4608        .F      MOV      r0,r1
        0x00000d66:    7800        .x      LDRB     r0,[r0,#0]
        0x00000d68:    b110        ..      CBZ      r0,0xd70 ; am_uart_isr + 256
        0x00000d6a:    2002        .       MOVS     r0,#2
        0x00000d6c:    6020         `      STR      r0,[r4,#0]
        0x00000d6e:    e001        ..      B        0xd74 ; am_uart_isr + 260
        0x00000d70:    2005        .       MOVS     r0,#5
        0x00000d72:    6020         `      STR      r0,[r4,#0]
        0x00000d74:    f04f0801    O...    MOV      r8,#1
        0x00000d78:    2504        .%      MOVS     r5,#4
        0x00000d7a:    e040        @.      B        0xdfe ; am_uart_isr + 398
        0x00000d7c:    4941        AI      LDR      r1,[pc,#260] ; [0xe84] = 0x100008a4
        0x00000d7e:    6870        ph      LDR      r0,[r6,#4]
        0x00000d80:    60c8        .`      STR      r0,[r1,#0xc]
        0x00000d82:    68b0        .h      LDR      r0,[r6,#8]
        0x00000d84:    6108        .a      STR      r0,[r1,#0x10]
        0x00000d86:    2002        .       MOVS     r0,#2
        0x00000d88:    6020         `      STR      r0,[r4,#0]
        0x00000d8a:    f04f0801    O...    MOV      r8,#1
        0x00000d8e:    2504        .%      MOVS     r5,#4
        0x00000d90:    e035        5.      B        0xdfe ; am_uart_isr + 398
        0x00000d92:    483d        =H      LDR      r0,[pc,#244] ; [0xe88] = 0x10000034
        0x00000d94:    7800        .x      LDRB     r0,[r0,#0]
        0x00000d96:    b910        ..      CBNZ     r0,0xd9e ; am_uart_isr + 302
        0x00000d98:    2005        .       MOVS     r0,#5
        0x00000d9a:    6020         `      STR      r0,[r4,#0]
        0x00000d9c:    e02f        /.      B        0xdfe ; am_uart_isr + 398
        0x00000d9e:    f000f9bb    ....    BL       image_data_packet_read ; 0x1118
        0x00000da2:    4838        8H      LDR      r0,[pc,#224] ; [0xe84] = 0x100008a4
        0x00000da4:    6840        @h      LDR      r0,[r0,#4]
        0x00000da6:    4939        9I      LDR      r1,[pc,#228] ; [0xe8c] = 0x10000030
        0x00000da8:    6809        .h      LDR      r1,[r1,#0]
        0x00000daa:    4288        .B      CMP      r0,r1
        0x00000dac:    d10d        ..      BNE      0xdca ; am_uart_isr + 346
        0x00000dae:    4835        5H      LDR      r0,[pc,#212] ; [0xe84] = 0x100008a4
        0x00000db0:    6880        .h      LDR      r0,[r0,#8]
        0x00000db2:    4937        7I      LDR      r1,[pc,#220] ; [0xe90] = 0x10000038
        0x00000db4:    6809        .h      LDR      r1,[r1,#0]
        0x00000db6:    4288        .B      CMP      r0,r1
        0x00000db8:    d101        ..      BNE      0xdbe ; am_uart_isr + 334
        0x00000dba:    2003        .       MOVS     r0,#3
        0x00000dbc:    e000        ..      B        0xdc0 ; am_uart_isr + 336
        0x00000dbe:    2004        .       MOVS     r0,#4
        0x00000dc0:    6020         `      STR      r0,[r4,#0]
        0x00000dc2:    2010        .       MOVS     r0,#0x10
        0x00000dc4:    4933        3I      LDR      r1,[pc,#204] ; [0xe94] = 0x40010098
        0x00000dc6:    6008        .`      STR      r0,[r1,#0]
        0x00000dc8:    e001        ..      B        0xdce ; am_uart_isr + 350
        0x00000dca:    2002        .       MOVS     r0,#2
        0x00000dcc:    6020         `      STR      r0,[r4,#0]
        0x00000dce:    f04f0801    O...    MOV      r8,#1
        0x00000dd2:    2504        .%      MOVS     r5,#4
        0x00000dd4:    e013        ..      B        0xdfe ; am_uart_isr + 398
        0x00000dd6:    4830        0H      LDR      r0,[pc,#192] ; [0xe98] = 0x1000003c
        0x00000dd8:    6801        .h      LDR      r1,[r0,#0]
        0x00000dda:    482a        *H      LDR      r0,[pc,#168] ; [0xe84] = 0x100008a4
        0x00000ddc:    f7fffa94    ....    BL       am_bootloader_flag_page_update ; 0x308
        0x00000de0:    f7fffe02    ....    BL       am_hal_reset_poi ; 0x9e8
        0x00000de4:    bf00        ..      NOP      
        0x00000de6:    e7fe        ..      B        0xde6 ; am_uart_isr + 374
        0x00000de8:    2006        .       MOVS     r0,#6
        0x00000dea:    6020         `      STR      r0,[r4,#0]
        0x00000dec:    482b        +H      LDR      r0,[pc,#172] ; [0xe9c] = 0x16111901
        0x00000dee:    6060        ``      STR      r0,[r4,#4]
        0x00000df0:    f04f0801    O...    MOV      r8,#1
        0x00000df4:    2508        .%      MOVS     r5,#8
        0x00000df6:    e002        ..      B        0xdfe ; am_uart_isr + 398
        0x00000df8:    bf00        ..      NOP      
        0x00000dfa:    e000        ..      B        0xdfe ; am_uart_isr + 398
        0x00000dfc:    bf00        ..      NOP      
        0x00000dfe:    bf00        ..      NOP      
        0x00000e00:    f1b80f00    ....    CMP      r8,#0
        0x00000e04:    d026        &.      BEQ      0xe54 ; am_uart_isr + 484
        0x00000e06:    2000        .       MOVS     r0,#0
        0x00000e08:    4925        %I      LDR      r1,[pc,#148] ; [0xea0] = 0x10000063
        0x00000e0a:    7008        .p      STRB     r0,[r1,#0]
        0x00000e0c:    2700        .'      MOVS     r7,#0
        0x00000e0e:    e00b        ..      B        0xe28 ; am_uart_isr + 440
        0x00000e10:    4923        #I      LDR      r1,[pc,#140] ; [0xea0] = 0x10000063
        0x00000e12:    780a        .x      LDRB     r2,[r1,#0]
        0x00000e14:    7809        .x      LDRB     r1,[r1,#0]
        0x00000e16:    1c49        I.      ADDS     r1,r1,#1
        0x00000e18:    4b21        !K      LDR      r3,[pc,#132] ; [0xea0] = 0x10000063
        0x00000e1a:    7019        .p      STRB     r1,[r3,#0]
        0x00000e1c:    4918        .I      LDR      r1,[pc,#96] ; [0xe80] = 0x1000094c
        0x00000e1e:    5c88        .\      LDRB     r0,[r1,r2]
        0x00000e20:    f000faf4    ....    BL       ser_out ; 0x140c
        0x00000e24:    1c78        x.      ADDS     r0,r7,#1
        0x00000e26:    b2c7        ..      UXTB     r7,r0
        0x00000e28:    42af        .B      CMP      r7,r5
        0x00000e2a:    dbf1        ..      BLT      0xe10 ; am_uart_isr + 416
        0x00000e2c:    2000        .       MOVS     r0,#0
        0x00000e2e:    4911        .I      LDR      r1,[pc,#68] ; [0xe74] = 0x10000064
        0x00000e30:    6008        .`      STR      r0,[r1,#0]
        0x00000e32:    490d        .I      LDR      r1,[pc,#52] ; [0xe68] = 0x1000005b
        0x00000e34:    7008        .p      STRB     r0,[r1,#0]
        0x00000e36:    490d        .I      LDR      r1,[pc,#52] ; [0xe6c] = 0x1000005d
        0x00000e38:    7008        .p      STRB     r0,[r1,#0]
        0x00000e3a:    4908        .I      LDR      r1,[pc,#32] ; [0xe5c] = 0x1000005c
        0x00000e3c:    7008        .p      STRB     r0,[r1,#0]
        0x00000e3e:    490c        .I      LDR      r1,[pc,#48] ; [0xe70] = 0x10000059
        0x00000e40:    7008        .p      STRB     r0,[r1,#0]
        0x00000e42:    2001        .       MOVS     r0,#1
        0x00000e44:    4907        .I      LDR      r1,[pc,#28] ; [0xe64] = 0x1000005a
        0x00000e46:    7008        .p      STRB     r0,[r1,#0]
        0x00000e48:    f04f0800    O...    MOV      r8,#0
        0x00000e4c:    2500        .%      MOVS     r5,#0
        0x00000e4e:    20ff        .       MOVS     r0,#0xff
        0x00000e50:    4909        .I      LDR      r1,[pc,#36] ; [0xe78] = 0x10000068
        0x00000e52:    7008        .p      STRB     r0,[r1,#0]
        0x00000e54:    e8bd87f0    ....    POP      {r4-r10,pc}
    $d
        0x00000e58:    4001c000    ...@    DCD    1073856512
        0x00000e5c:    1000005c    \...    DCD    268435548
        0x00000e60:    100008cc    ....    DCD    268437708
        0x00000e64:    1000005a    Z...    DCD    268435546
        0x00000e68:    1000005b    [...    DCD    268435547
        0x00000e6c:    1000005d    ]...    DCD    268435549
        0x00000e70:    10000059    Y...    DCD    268435545
        0x00000e74:    10000064    d...    DCD    268435556
        0x00000e78:    10000068    h...    DCD    268435560
        0x00000e7c:    10000069    i...    DCD    268435561
        0x00000e80:    1000094c    L...    DCD    268437836
        0x00000e84:    100008a4    ....    DCD    268437668
        0x00000e88:    10000034    4...    DCD    268435508
        0x00000e8c:    10000030    0...    DCD    268435504
        0x00000e90:    10000038    8...    DCD    268435512
        0x00000e94:    40010098    ...@    DCD    1073807512
        0x00000e98:    1000003c    <...    DCD    268435516
        0x00000e9c:    16111901    ....    DCD    370219265
        0x00000ea0:    10000063    c...    DCD    268435555
    $t
    i.am_util_delay_ms
    am_util_delay_ms
        0x00000ea4:    b570        p.      PUSH     {r4-r6,lr}
        0x00000ea6:    4604        .F      MOV      r4,r0
        0x00000ea8:    f7fffc2e    ....    BL       am_hal_clkgen_sysclk_get ; 0x708
        0x00000eac:    f64031b8    @..1    MOV      r1,#0xbb8
        0x00000eb0:    fbb0f0f1    ....    UDIV     r0,r0,r1
        0x00000eb4:    fb00f504    ....    MUL      r5,r0,r4
        0x00000eb8:    4628        (F      MOV      r0,r5
        0x00000eba:    f7fff941    ..A.    BL       am_util_delay_cycles ; 0x140
        0x00000ebe:    bd70        p.      POP      {r4-r6,pc}
    i.cleanup_ios_interface
    cleanup_ios_interface
        0x00000ec0:    bf00        ..      NOP      
        0x00000ec2:    2073        s       MOVS     r0,#0x73
        0x00000ec4:    492c        ,I      LDR      r1,[pc,#176] ; [0xf78] = 0x40010000
        0x00000ec6:    6608        .f      STR      r0,[r1,#0x60]
        0x00000ec8:    4608        .F      MOV      r0,r1
        0x00000eca:    6c00        .l      LDR      r0,[r0,#0x40]
        0x00000ecc:    f0200007     ...    BIC      r0,r0,#7
        0x00000ed0:    6408        .d      STR      r0,[r1,#0x40]
        0x00000ed2:    4608        .F      MOV      r0,r1
        0x00000ed4:    6800        .h      LDR      r0,[r0,#0]
        0x00000ed6:    f02000ff     ...    BIC      r0,r0,#0xff
        0x00000eda:    f0400018    @...    ORR      r0,r0,#0x18
        0x00000ede:    6008        .`      STR      r0,[r1,#0]
        0x00000ee0:    2000        .       MOVS     r0,#0
        0x00000ee2:    6608        .f      STR      r0,[r1,#0x60]
        0x00000ee4:    bf00        ..      NOP      
        0x00000ee6:    bf00        ..      NOP      
        0x00000ee8:    2073        s       MOVS     r0,#0x73
        0x00000eea:    6608        .f      STR      r0,[r1,#0x60]
        0x00000eec:    4608        .F      MOV      r0,r1
        0x00000eee:    6c00        .l      LDR      r0,[r0,#0x40]
        0x00000ef0:    f0200070     .p.    BIC      r0,r0,#0x70
        0x00000ef4:    6408        .d      STR      r0,[r1,#0x40]
        0x00000ef6:    4608        .F      MOV      r0,r1
        0x00000ef8:    6800        .h      LDR      r0,[r0,#0]
        0x00000efa:    f420407f     ..@    BIC      r0,r0,#0xff00
        0x00000efe:    f44050c0    @..P    ORR      r0,r0,#0x1800
        0x00000f02:    6008        .`      STR      r0,[r1,#0]
        0x00000f04:    2000        .       MOVS     r0,#0
        0x00000f06:    6608        .f      STR      r0,[r1,#0x60]
        0x00000f08:    bf00        ..      NOP      
        0x00000f0a:    bf00        ..      NOP      
        0x00000f0c:    2073        s       MOVS     r0,#0x73
        0x00000f0e:    6608        .f      STR      r0,[r1,#0x60]
        0x00000f10:    4608        .F      MOV      r0,r1
        0x00000f12:    6c00        .l      LDR      r0,[r0,#0x40]
        0x00000f14:    f42060e0     ..`    BIC      r0,r0,#0x700
        0x00000f18:    6408        .d      STR      r0,[r1,#0x40]
        0x00000f1a:    4608        .F      MOV      r0,r1
        0x00000f1c:    6800        .h      LDR      r0,[r0,#0]
        0x00000f1e:    f420007f     ...    BIC      r0,r0,#0xff0000
        0x00000f22:    f44010c0    @...    ORR      r0,r0,#0x180000
        0x00000f26:    6008        .`      STR      r0,[r1,#0]
        0x00000f28:    2000        .       MOVS     r0,#0
        0x00000f2a:    6608        .f      STR      r0,[r1,#0x60]
        0x00000f2c:    bf00        ..      NOP      
        0x00000f2e:    bf00        ..      NOP      
        0x00000f30:    2073        s       MOVS     r0,#0x73
        0x00000f32:    6608        .f      STR      r0,[r1,#0x60]
        0x00000f34:    4608        .F      MOV      r0,r1
        0x00000f36:    6c00        .l      LDR      r0,[r0,#0x40]
        0x00000f38:    f42040e0     ..@    BIC      r0,r0,#0x7000
        0x00000f3c:    6408        .d      STR      r0,[r1,#0x40]
        0x00000f3e:    4608        .F      MOV      r0,r1
        0x00000f40:    6800        .h      LDR      r0,[r0,#0]
        0x00000f42:    f020407f     ..@    BIC      r0,r0,#0xff000000
        0x00000f46:    f04050c0    @..P    ORR      r0,r0,#0x18000000
        0x00000f4a:    6008        .`      STR      r0,[r1,#0]
        0x00000f4c:    2000        .       MOVS     r0,#0
        0x00000f4e:    6608        .f      STR      r0,[r1,#0x60]
        0x00000f50:    bf00        ..      NOP      
        0x00000f52:    bf00        ..      NOP      
        0x00000f54:    2073        s       MOVS     r0,#0x73
        0x00000f56:    6608        .f      STR      r0,[r1,#0x60]
        0x00000f58:    4608        .F      MOV      r0,r1
        0x00000f5a:    6c00        .l      LDR      r0,[r0,#0x40]
        0x00000f5c:    f42020e0     ..     BIC      r0,r0,#0x70000
        0x00000f60:    6408        .d      STR      r0,[r1,#0x40]
        0x00000f62:    4608        .F      MOV      r0,r1
        0x00000f64:    6840        @h      LDR      r0,[r0,#4]
        0x00000f66:    f02000ff     ...    BIC      r0,r0,#0xff
        0x00000f6a:    f0400018    @...    ORR      r0,r0,#0x18
        0x00000f6e:    6048        H`      STR      r0,[r1,#4]
        0x00000f70:    2000        .       MOVS     r0,#0
        0x00000f72:    6608        .f      STR      r0,[r1,#0x60]
        0x00000f74:    bf00        ..      NOP      
        0x00000f76:    4770        pG      BX       lr
    $d
        0x00000f78:    40010000    ...@    DCD    1073807360
    $t
    i.flash_load_from_image
    flash_load_from_image
        0x00000f7c:    e92d47f0    -..G    PUSH     {r4-r10,lr}
        0x00000f80:    4605        .F      MOV      r5,r0
        0x00000f82:    4688        .F      MOV      r8,r1
        0x00000f84:    4616        .F      MOV      r6,r2
        0x00000f86:    2700        .'      MOVS     r7,#0
        0x00000f88:    e024        $.      B        0xfd4 ; flash_load_from_image + 88
        0x00000f8a:    02f8        ..      LSLS     r0,r7,#11
        0x00000f8c:    0880        ..      LSRS     r0,r0,#2
        0x00000f8e:    eb080180    ....    ADD      r1,r8,r0,LSL #2
        0x00000f92:    f44f6200    O..b    MOV      r2,#0x800
        0x00000f96:    4824        $H      LDR      r0,[pc,#144] ; [0x1028] = 0x100009cc
        0x00000f98:    f7fff8f8    ....    BL       __aeabi_memcpy4 ; 0x18c
        0x00000f9c:    02f8        ..      LSLS     r0,r7,#11
        0x00000f9e:    0880        ..      LSRS     r0,r0,#2
        0x00000fa0:    eb050080    ....    ADD      r0,r5,r0,LSL #2
        0x00000fa4:    f3c029c6    ...)    UBFX     r9,r0,#11,#7
        0x00000fa8:    02f8        ..      LSLS     r0,r7,#11
        0x00000faa:    0880        ..      LSRS     r0,r0,#2
        0x00000fac:    eb050080    ....    ADD      r0,r5,r0,LSL #2
        0x00000fb0:    f3c04a80    ...J    UBFX     r10,r0,#18,#1
        0x00000fb4:    464a        JF      MOV      r2,r9
        0x00000fb6:    4651        QF      MOV      r1,r10
        0x00000fb8:    481c        .H      LDR      r0,[pc,#112] ; [0x102c] = 0x12344321
        0x00000fba:    f7fffbdd    ....    BL       am_hal_flash_page_erase ; 0x778
        0x00000fbe:    02f8        ..      LSLS     r0,r7,#11
        0x00000fc0:    0880        ..      LSRS     r0,r0,#2
        0x00000fc2:    eb050280    ....    ADD      r2,r5,r0,LSL #2
        0x00000fc6:    f44f7300    O..s    MOV      r3,#0x200
        0x00000fca:    4917        .I      LDR      r1,[pc,#92] ; [0x1028] = 0x100009cc
        0x00000fcc:    4817        .H      LDR      r0,[pc,#92] ; [0x102c] = 0x12344321
        0x00000fce:    f7fffbd9    ....    BL       am_hal_flash_program_main ; 0x784
        0x00000fd2:    1c7f        ..      ADDS     r7,r7,#1
        0x00000fd4:    ebb72fd6    .../    CMP      r7,r6,LSR #11
        0x00000fd8:    d3d7        ..      BCC      0xf8a ; flash_load_from_image + 14
        0x00000fda:    f3c6040a    ....    UBFX     r4,r6,#0,#11
        0x00000fde:    b30c        ..      CBZ      r4,0x1024 ; flash_load_from_image + 168
        0x00000fe0:    1b30        0.      SUBS     r0,r6,r4
        0x00000fe2:    0880        ..      LSRS     r0,r0,#2
        0x00000fe4:    eb080180    ....    ADD      r1,r8,r0,LSL #2
        0x00000fe8:    4622        "F      MOV      r2,r4
        0x00000fea:    480f        .H      LDR      r0,[pc,#60] ; [0x1028] = 0x100009cc
        0x00000fec:    f7fff8ce    ....    BL       __aeabi_memcpy4 ; 0x18c
        0x00000ff0:    1b30        0.      SUBS     r0,r6,r4
        0x00000ff2:    0880        ..      LSRS     r0,r0,#2
        0x00000ff4:    eb050080    ....    ADD      r0,r5,r0,LSL #2
        0x00000ff8:    f3c029c6    ...)    UBFX     r9,r0,#11,#7
        0x00000ffc:    1b30        0.      SUBS     r0,r6,r4
        0x00000ffe:    0880        ..      LSRS     r0,r0,#2
        0x00001000:    eb050080    ....    ADD      r0,r5,r0,LSL #2
        0x00001004:    f3c04a80    ...J    UBFX     r10,r0,#18,#1
        0x00001008:    464a        JF      MOV      r2,r9
        0x0000100a:    4651        QF      MOV      r1,r10
        0x0000100c:    4807        .H      LDR      r0,[pc,#28] ; [0x102c] = 0x12344321
        0x0000100e:    f7fffbb3    ....    BL       am_hal_flash_page_erase ; 0x778
        0x00001012:    08a3        ..      LSRS     r3,r4,#2
        0x00001014:    1b30        0.      SUBS     r0,r6,r4
        0x00001016:    0880        ..      LSRS     r0,r0,#2
        0x00001018:    eb050280    ....    ADD      r2,r5,r0,LSL #2
        0x0000101c:    4902        .I      LDR      r1,[pc,#8] ; [0x1028] = 0x100009cc
        0x0000101e:    4803        .H      LDR      r0,[pc,#12] ; [0x102c] = 0x12344321
        0x00001020:    f7fffbb0    ....    BL       am_hal_flash_program_main ; 0x784
        0x00001024:    e8bd87f0    ....    POP      {r4-r10,pc}
    $d
        0x00001028:    100009cc    ....    DCD    268437964
        0x0000102c:    12344321    !C4.    DCD    305414945
    $t
    i.image_data_packet_read
    image_data_packet_read
        0x00001030:    e92d41f0    -..A    PUSH     {r4-r8,lr}
        0x00001034:    482f        /H      LDR      r0,[pc,#188] ; [0x10f4] = 0x1aa4
        0x00001036:    6800        .h      LDR      r0,[r0,#0]
        0x00001038:    f8d08004    ....    LDR      r8,[r0,#4]
        0x0000103c:    482d        -H      LDR      r0,[pc,#180] ; [0x10f4] = 0x1aa4
        0x0000103e:    6800        .h      LDR      r0,[r0,#0]
        0x00001040:    f1000508    ....    ADD      r5,r0,#8
        0x00001044:    2400        .$      MOVS     r4,#0
        0x00001046:    e050        P.      B        0x10ea ; image_data_packet_read + 186
        0x00001048:    f8150b01    ....    LDRB     r0,[r5],#1
        0x0000104c:    492a        *I      LDR      r1,[pc,#168] ; [0x10f8] = 0x10000024
        0x0000104e:    6809        .h      LDR      r1,[r1,#0]
        0x00001050:    4a2a        *J      LDR      r2,[pc,#168] ; [0x10fc] = 0x10000028
        0x00001052:    6812        .h      LDR      r2,[r2,#0]
        0x00001054:    5488        .T      STRB     r0,[r1,r2]
        0x00001056:    4829        )H      LDR      r0,[pc,#164] ; [0x10fc] = 0x10000028
        0x00001058:    6800        .h      LDR      r0,[r0,#0]
        0x0000105a:    1c40        @.      ADDS     r0,r0,#1
        0x0000105c:    4927        'I      LDR      r1,[pc,#156] ; [0x10fc] = 0x10000028
        0x0000105e:    6008        .`      STR      r0,[r1,#0]
        0x00001060:    4827        'H      LDR      r0,[pc,#156] ; [0x1100] = 0x10000030
        0x00001062:    6800        .h      LDR      r0,[r0,#0]
        0x00001064:    1c40        @.      ADDS     r0,r0,#1
        0x00001066:    4926        &I      LDR      r1,[pc,#152] ; [0x1100] = 0x10000030
        0x00001068:    6008        .`      STR      r0,[r1,#0]
        0x0000106a:    4824        $H      LDR      r0,[pc,#144] ; [0x10fc] = 0x10000028
        0x0000106c:    6800        .h      LDR      r0,[r0,#0]
        0x0000106e:    f5b06f00    ...o    CMP      r0,#0x800
        0x00001072:    d004        ..      BEQ      0x107e ; image_data_packet_read + 78
        0x00001074:    4823        #H      LDR      r0,[pc,#140] ; [0x1104] = 0x100008a4
        0x00001076:    6840        @h      LDR      r0,[r0,#4]
        0x00001078:    6809        .h      LDR      r1,[r1,#0]
        0x0000107a:    4288        .B      CMP      r0,r1
        0x0000107c:    d134        4.      BNE      0x10e8 ; image_data_packet_read + 184
        0x0000107e:    4a22        "J      LDR      r2,[pc,#136] ; [0x1108] = 0x10000038
        0x00001080:    481e        .H      LDR      r0,[pc,#120] ; [0x10fc] = 0x10000028
        0x00001082:    6801        .h      LDR      r1,[r0,#0]
        0x00001084:    481c        .H      LDR      r0,[pc,#112] ; [0x10f8] = 0x10000024
        0x00001086:    6800        .h      LDR      r0,[r0,#0]
        0x00001088:    f7fffaac    ....    BL       am_bootloader_partial_crc32 ; 0x5e4
        0x0000108c:    481c        .H      LDR      r0,[pc,#112] ; [0x1100] = 0x10000030
        0x0000108e:    6800        .h      LDR      r0,[r0,#0]
        0x00001090:    f5b06f00    ...o    CMP      r0,#0x800
        0x00001094:    d806        ..      BHI      0x10a4 ; image_data_packet_read + 116
        0x00001096:    481d        .H      LDR      r0,[pc,#116] ; [0x110c] = 0x100000a4
        0x00001098:    6800        .h      LDR      r0,[r0,#0]
        0x0000109a:    491a        .I      LDR      r1,[pc,#104] ; [0x1104] = 0x100008a4
        0x0000109c:    6148        Ha      STR      r0,[r1,#0x14]
        0x0000109e:    481b        .H      LDR      r0,[pc,#108] ; [0x110c] = 0x100000a4
        0x000010a0:    6840        @h      LDR      r0,[r0,#4]
        0x000010a2:    6188        .a      STR      r0,[r1,#0x18]
        0x000010a4:    481a        .H      LDR      r0,[pc,#104] ; [0x1110] = 0x1000002c
        0x000010a6:    6800        .h      LDR      r0,[r0,#0]
        0x000010a8:    f3c026c6    ...&    UBFX     r6,r0,#11,#7
        0x000010ac:    4818        .H      LDR      r0,[pc,#96] ; [0x1110] = 0x1000002c
        0x000010ae:    6800        .h      LDR      r0,[r0,#0]
        0x000010b0:    f3c04780    ...G    UBFX     r7,r0,#18,#1
        0x000010b4:    4632        2F      MOV      r2,r6
        0x000010b6:    4639        9F      MOV      r1,r7
        0x000010b8:    4816        .H      LDR      r0,[pc,#88] ; [0x1114] = 0x12344321
        0x000010ba:    f7fffb5d    ..].    BL       am_hal_flash_page_erase ; 0x778
        0x000010be:    480f        .H      LDR      r0,[pc,#60] ; [0x10fc] = 0x10000028
        0x000010c0:    6800        .h      LDR      r0,[r0,#0]
        0x000010c2:    0883        ..      LSRS     r3,r0,#2
        0x000010c4:    4812        .H      LDR      r0,[pc,#72] ; [0x1110] = 0x1000002c
        0x000010c6:    4911        .I      LDR      r1,[pc,#68] ; [0x110c] = 0x100000a4
        0x000010c8:    6802        .h      LDR      r2,[r0,#0]
        0x000010ca:    4812        .H      LDR      r0,[pc,#72] ; [0x1114] = 0x12344321
        0x000010cc:    f7fffb5a    ..Z.    BL       am_hal_flash_program_main ; 0x784
        0x000010d0:    480a        .H      LDR      r0,[pc,#40] ; [0x10fc] = 0x10000028
        0x000010d2:    6800        .h      LDR      r0,[r0,#0]
        0x000010d4:    0880        ..      LSRS     r0,r0,#2
        0x000010d6:    490e        .I      LDR      r1,[pc,#56] ; [0x1110] = 0x1000002c
        0x000010d8:    6809        .h      LDR      r1,[r1,#0]
        0x000010da:    eb010080    ....    ADD      r0,r1,r0,LSL #2
        0x000010de:    490c        .I      LDR      r1,[pc,#48] ; [0x1110] = 0x1000002c
        0x000010e0:    6008        .`      STR      r0,[r1,#0]
        0x000010e2:    2000        .       MOVS     r0,#0
        0x000010e4:    4905        .I      LDR      r1,[pc,#20] ; [0x10fc] = 0x10000028
        0x000010e6:    6008        .`      STR      r0,[r1,#0]
        0x000010e8:    1c64        d.      ADDS     r4,r4,#1
        0x000010ea:    4544        DE      CMP      r4,r8
        0x000010ec:    d3ac        ..      BCC      0x1048 ; image_data_packet_read + 24
        0x000010ee:    e8bd81f0    ....    POP      {r4-r8,pc}
    $d
        0x000010f2:    0000        ..      DCW    0
        0x000010f4:    00001aa4    ....    DCD    6820
        0x000010f8:    10000024    $...    DCD    268435492
        0x000010fc:    10000028    (...    DCD    268435496
        0x00001100:    10000030    0...    DCD    268435504
        0x00001104:    100008a4    ....    DCD    268437668
        0x00001108:    10000038    8...    DCD    268435512
        0x0000110c:    100000a4    ....    DCD    268435620
        0x00001110:    1000002c    ,...    DCD    268435500
        0x00001114:    12344321    !C4.    DCD    305414945
    $t
    i.image_data_packet_read
    image_data_packet_read
        0x00001118:    e92d47f0    -..G    PUSH     {r4-r10,lr}
        0x0000111c:    4834        4H      LDR      r0,[pc,#208] ; [0x11f0] = 0x100008cc
        0x0000111e:    6846        Fh      LDR      r6,[r0,#4]
        0x00001120:    f1000408    ....    ADD      r4,r0,#8
        0x00001124:    4a33        3J      LDR      r2,[pc,#204] ; [0x11f4] = 0x10000038
        0x00001126:    4631        1F      MOV      r1,r6
        0x00001128:    4620         F      MOV      r0,r4
        0x0000112a:    f7fffa5b    ..[.    BL       am_bootloader_partial_crc32 ; 0x5e4
        0x0000112e:    2500        .%      MOVS     r5,#0
        0x00001130:    e05a        Z.      B        0x11e8 ; image_data_packet_read + 208
        0x00001132:    f8140b01    ....    LDRB     r0,[r4],#1
        0x00001136:    4930        0I      LDR      r1,[pc,#192] ; [0x11f8] = 0x10000024
        0x00001138:    6809        .h      LDR      r1,[r1,#0]
        0x0000113a:    4a30        0J      LDR      r2,[pc,#192] ; [0x11fc] = 0x10000028
        0x0000113c:    6812        .h      LDR      r2,[r2,#0]
        0x0000113e:    5488        .T      STRB     r0,[r1,r2]
        0x00001140:    482e        .H      LDR      r0,[pc,#184] ; [0x11fc] = 0x10000028
        0x00001142:    6800        .h      LDR      r0,[r0,#0]
        0x00001144:    1c40        @.      ADDS     r0,r0,#1
        0x00001146:    492d        -I      LDR      r1,[pc,#180] ; [0x11fc] = 0x10000028
        0x00001148:    6008        .`      STR      r0,[r1,#0]
        0x0000114a:    482d        -H      LDR      r0,[pc,#180] ; [0x1200] = 0x10000030
        0x0000114c:    6800        .h      LDR      r0,[r0,#0]
        0x0000114e:    1c40        @.      ADDS     r0,r0,#1
        0x00001150:    492b        +I      LDR      r1,[pc,#172] ; [0x1200] = 0x10000030
        0x00001152:    6008        .`      STR      r0,[r1,#0]
        0x00001154:    4829        )H      LDR      r0,[pc,#164] ; [0x11fc] = 0x10000028
        0x00001156:    6800        .h      LDR      r0,[r0,#0]
        0x00001158:    f5b06f00    ...o    CMP      r0,#0x800
        0x0000115c:    d004        ..      BEQ      0x1168 ; image_data_packet_read + 80
        0x0000115e:    4829        )H      LDR      r0,[pc,#164] ; [0x1204] = 0x100008a4
        0x00001160:    6840        @h      LDR      r0,[r0,#4]
        0x00001162:    6809        .h      LDR      r1,[r1,#0]
        0x00001164:    4288        .B      CMP      r0,r1
        0x00001166:    d13e        >.      BNE      0x11e6 ; image_data_packet_read + 206
        0x00001168:    4825        %H      LDR      r0,[pc,#148] ; [0x1200] = 0x10000030
        0x0000116a:    6800        .h      LDR      r0,[r0,#0]
        0x0000116c:    f5b06f00    ...o    CMP      r0,#0x800
        0x00001170:    d806        ..      BHI      0x1180 ; image_data_packet_read + 104
        0x00001172:    4825        %H      LDR      r0,[pc,#148] ; [0x1208] = 0x100000a4
        0x00001174:    6800        .h      LDR      r0,[r0,#0]
        0x00001176:    4923        #I      LDR      r1,[pc,#140] ; [0x1204] = 0x100008a4
        0x00001178:    6148        Ha      STR      r0,[r1,#0x14]
        0x0000117a:    4823        #H      LDR      r0,[pc,#140] ; [0x1208] = 0x100000a4
        0x0000117c:    6840        @h      LDR      r0,[r0,#4]
        0x0000117e:    6188        .a      STR      r0,[r1,#0x18]
        0x00001180:    4822        "H      LDR      r0,[pc,#136] ; [0x120c] = 0x1000002c
        0x00001182:    6800        .h      LDR      r0,[r0,#0]
        0x00001184:    f3c027c6    ...'    UBFX     r7,r0,#11,#7
        0x00001188:    4820         H      LDR      r0,[pc,#128] ; [0x120c] = 0x1000002c
        0x0000118a:    6800        .h      LDR      r0,[r0,#0]
        0x0000118c:    f3c04880    ...H    UBFX     r8,r0,#18,#1
        0x00001190:    481e        .H      LDR      r0,[pc,#120] ; [0x120c] = 0x1000002c
        0x00001192:    8800        ..      LDRH     r0,[r0,#0]
        0x00001194:    f3c0000a    ....    UBFX     r0,r0,#0,#11
        0x00001198:    b920         .      CBNZ     r0,0x11a4 ; image_data_packet_read + 140
        0x0000119a:    463a        :F      MOV      r2,r7
        0x0000119c:    4641        AF      MOV      r1,r8
        0x0000119e:    481c        .H      LDR      r0,[pc,#112] ; [0x1210] = 0x12344321
        0x000011a0:    f7fffaea    ....    BL       am_hal_flash_page_erase ; 0x778
        0x000011a4:    4815        .H      LDR      r0,[pc,#84] ; [0x11fc] = 0x10000028
        0x000011a6:    6800        .h      LDR      r0,[r0,#0]
        0x000011a8:    ea4f0990    O...    LSR      r9,r0,#2
        0x000011ac:    464b        KF      MOV      r3,r9
        0x000011ae:    4817        .H      LDR      r0,[pc,#92] ; [0x120c] = 0x1000002c
        0x000011b0:    4915        .I      LDR      r1,[pc,#84] ; [0x1208] = 0x100000a4
        0x000011b2:    6802        .h      LDR      r2,[r0,#0]
        0x000011b4:    4816        .H      LDR      r0,[pc,#88] ; [0x1210] = 0x12344321
        0x000011b6:    f7fffae5    ....    BL       am_hal_flash_program_main ; 0x784
        0x000011ba:    4810        .H      LDR      r0,[pc,#64] ; [0x11fc] = 0x10000028
        0x000011bc:    6800        .h      LDR      r0,[r0,#0]
        0x000011be:    0880        ..      LSRS     r0,r0,#2
        0x000011c0:    4912        .I      LDR      r1,[pc,#72] ; [0x120c] = 0x1000002c
        0x000011c2:    6809        .h      LDR      r1,[r1,#0]
        0x000011c4:    eb010080    ....    ADD      r0,r1,r0,LSL #2
        0x000011c8:    4910        .I      LDR      r1,[pc,#64] ; [0x120c] = 0x1000002c
        0x000011ca:    6008        .`      STR      r0,[r1,#0]
        0x000011cc:    2000        .       MOVS     r0,#0
        0x000011ce:    490b        .I      LDR      r1,[pc,#44] ; [0x11fc] = 0x10000028
        0x000011d0:    6008        .`      STR      r0,[r1,#0]
        0x000011d2:    bf00        ..      NOP      
        0x000011d4:    e004        ..      B        0x11e0 ; image_data_packet_read + 200
        0x000011d6:    21aa        .!      MOVS     r1,#0xaa
        0x000011d8:    4a07        .J      LDR      r2,[pc,#28] ; [0x11f8] = 0x10000024
        0x000011da:    6812        .h      LDR      r2,[r2,#0]
        0x000011dc:    5411        .T      STRB     r1,[r2,r0]
        0x000011de:    1c40        @.      ADDS     r0,r0,#1
        0x000011e0:    f5b06f00    ...o    CMP      r0,#0x800
        0x000011e4:    d3f7        ..      BCC      0x11d6 ; image_data_packet_read + 190
        0x000011e6:    1c6d        m.      ADDS     r5,r5,#1
        0x000011e8:    42b5        .B      CMP      r5,r6
        0x000011ea:    d3a2        ..      BCC      0x1132 ; image_data_packet_read + 26
        0x000011ec:    e8bd87f0    ....    POP      {r4-r10,pc}
    $d
        0x000011f0:    100008cc    ....    DCD    268437708
        0x000011f4:    10000038    8...    DCD    268435512
        0x000011f8:    10000024    $...    DCD    268435492
        0x000011fc:    10000028    (...    DCD    268435496
        0x00001200:    10000030    0...    DCD    268435504
        0x00001204:    100008a4    ....    DCD    268437668
        0x00001208:    100000a4    ....    DCD    268435620
        0x0000120c:    1000002c    ,...    DCD    268435500
        0x00001210:    12344321    !C4.    DCD    305414945
    $t
    i.image_start_packet_read
    image_start_packet_read
        0x00001214:    4601        .F      MOV      r1,r0
        0x00001216:    4810        .H      LDR      r0,[pc,#64] ; [0x1258] = 0x1aa4
        0x00001218:    6802        .h      LDR      r2,[r0,#0]
        0x0000121a:    6850        Ph      LDR      r0,[r2,#4]
        0x0000121c:    6008        .`      STR      r0,[r1,#0]
        0x0000121e:    6890        .h      LDR      r0,[r2,#8]
        0x00001220:    6048        H`      STR      r0,[r1,#4]
        0x00001222:    68d0        .h      LDR      r0,[r2,#0xc]
        0x00001224:    6088        .`      STR      r0,[r1,#8]
        0x00001226:    2000        .       MOVS     r0,#0
        0x00001228:    60c8        .`      STR      r0,[r1,#0xc]
        0x0000122a:    2001        .       MOVS     r0,#1
        0x0000122c:    6108        .a      STR      r0,[r1,#0x10]
        0x0000122e:    2000        .       MOVS     r0,#0
        0x00001230:    f8810024    ..$.    STRB     r0,[r1,#0x24]
        0x00001234:    6148        Ha      STR      r0,[r1,#0x14]
        0x00001236:    6188        .a      STR      r0,[r1,#0x18]
        0x00001238:    6808        .h      LDR      r0,[r1,#0]
        0x0000123a:    f5b04f80    ...O    CMP      r0,#0x4000
        0x0000123e:    d201        ..      BCS      0x1244 ; image_start_packet_read + 48
        0x00001240:    2000        .       MOVS     r0,#0
        0x00001242:    4770        pG      BX       lr
        0x00001244:    4b05        .K      LDR      r3,[pc,#20] ; [0x125c] = 0x1000002c
        0x00001246:    6808        .h      LDR      r0,[r1,#0]
        0x00001248:    6018        .`      STR      r0,[r3,#0]
        0x0000124a:    2000        .       MOVS     r0,#0
        0x0000124c:    4b04        .K      LDR      r3,[pc,#16] ; [0x1260] = 0x10000030
        0x0000124e:    6018        .`      STR      r0,[r3,#0]
        0x00001250:    4b04        .K      LDR      r3,[pc,#16] ; [0x1264] = 0x10000028
        0x00001252:    6018        .`      STR      r0,[r3,#0]
        0x00001254:    2001        .       MOVS     r0,#1
        0x00001256:    e7f4        ..      B        0x1242 ; image_start_packet_read + 46
    $d
        0x00001258:    00001aa4    ....    DCD    6820
        0x0000125c:    1000002c    ,...    DCD    268435500
        0x00001260:    10000030    0...    DCD    268435504
        0x00001264:    10000028    (...    DCD    268435496
    $t
    i.image_start_packet_read
    image_start_packet_read
        0x00001268:    4601        .F      MOV      r1,r0
        0x0000126a:    4a0e        .J      LDR      r2,[pc,#56] ; [0x12a4] = 0x100008cc
        0x0000126c:    6850        Ph      LDR      r0,[r2,#4]
        0x0000126e:    6008        .`      STR      r0,[r1,#0]
        0x00001270:    6890        .h      LDR      r0,[r2,#8]
        0x00001272:    6048        H`      STR      r0,[r1,#4]
        0x00001274:    68d0        .h      LDR      r0,[r2,#0xc]
        0x00001276:    6088        .`      STR      r0,[r1,#8]
        0x00001278:    2000        .       MOVS     r0,#0
        0x0000127a:    60c8        .`      STR      r0,[r1,#0xc]
        0x0000127c:    2001        .       MOVS     r0,#1
        0x0000127e:    6108        .a      STR      r0,[r1,#0x10]
        0x00001280:    6910        .i      LDR      r0,[r2,#0x10]
        0x00001282:    6148        Ha      STR      r0,[r1,#0x14]
        0x00001284:    6950        Pi      LDR      r0,[r2,#0x14]
        0x00001286:    6188        .a      STR      r0,[r1,#0x18]
        0x00001288:    6808        .h      LDR      r0,[r1,#0]
        0x0000128a:    f5b04f80    ...O    CMP      r0,#0x4000
        0x0000128e:    d201        ..      BCS      0x1294 ; image_start_packet_read + 44
        0x00001290:    2000        .       MOVS     r0,#0
        0x00001292:    4770        pG      BX       lr
        0x00001294:    4b04        .K      LDR      r3,[pc,#16] ; [0x12a8] = 0x1000002c
        0x00001296:    6808        .h      LDR      r0,[r1,#0]
        0x00001298:    6018        .`      STR      r0,[r3,#0]
        0x0000129a:    2000        .       MOVS     r0,#0
        0x0000129c:    4b03        .K      LDR      r3,[pc,#12] ; [0x12ac] = 0x10000030
        0x0000129e:    6018        .`      STR      r0,[r3,#0]
        0x000012a0:    2001        .       MOVS     r0,#1
        0x000012a2:    e7f6        ..      B        0x1292 ; image_start_packet_read + 42
    $d
        0x000012a4:    100008cc    ....    DCD    268437708
        0x000012a8:    1000002c    ,...    DCD    268435500
        0x000012ac:    10000030    0...    DCD    268435504
    $t
    i.main
    main
        0x000012b0:    b08a        ..      SUB      sp,sp,#0x28
        0x000012b2:    2010        .       MOVS     r0,#0x10
        0x000012b4:    494f        OI      LDR      r1,[pc,#316] ; [0x13f4] = 0x40010090
        0x000012b6:    6008        .`      STR      r0,[r1,#0]
        0x000012b8:    bf00        ..      NOP      
        0x000012ba:    2073        s       MOVS     r0,#0x73
        0x000012bc:    494d        MI      LDR      r1,[pc,#308] ; [0x13f4] = 0x40010090
        0x000012be:    3990        .9      SUBS     r1,r1,#0x90
        0x000012c0:    6608        .f      STR      r0,[r1,#0x60]
        0x000012c2:    4608        .F      MOV      r0,r1
        0x000012c4:    6c00        .l      LDR      r0,[r0,#0x40]
        0x000012c6:    f42020e0     ..     BIC      r0,r0,#0x70000
        0x000012ca:    f4403000    @..0    ORR      r0,r0,#0x20000
        0x000012ce:    6408        .d      STR      r0,[r1,#0x40]
        0x000012d0:    4608        .F      MOV      r0,r1
        0x000012d2:    6840        @h      LDR      r0,[r0,#4]
        0x000012d4:    f02000ff     ...    BIC      r0,r0,#0xff
        0x000012d8:    f0400018    @...    ORR      r0,r0,#0x18
        0x000012dc:    6048        H`      STR      r0,[r1,#4]
        0x000012de:    2000        .       MOVS     r0,#0
        0x000012e0:    6608        .f      STR      r0,[r1,#0x60]
        0x000012e2:    bf00        ..      NOP      
        0x000012e4:    f44f4080    O..@    MOV      r0,#0x4000
        0x000012e8:    9000        ..      STR      r0,[sp,#0]
        0x000012ea:    f2414030    A.0@    MOV      r0,#0x1430
        0x000012ee:    9001        ..      STR      r0,[sp,#4]
        0x000012f0:    4841        AH      LDR      r0,[pc,#260] ; [0x13f8] = 0xb84e1fa0
        0x000012f2:    9002        ..      STR      r0,[sp,#8]
        0x000012f4:    17c0        ..      ASRS     r0,r0,#31
        0x000012f6:    9003        ..      STR      r0,[sp,#0xc]
        0x000012f8:    2000        .       MOVS     r0,#0
        0x000012fa:    9004        ..      STR      r0,[sp,#0x10]
        0x000012fc:    483f        ?H      LDR      r0,[pc,#252] ; [0x13fc] = 0x100003a0
        0x000012fe:    9005        ..      STR      r0,[sp,#0x14]
        0x00001300:    f2440071    D.q.    MOV      r0,#0x4071
        0x00001304:    9006        ..      STR      r0,[sp,#0x18]
        0x00001306:    2001        .       MOVS     r0,#1
        0x00001308:    9007        ..      STR      r0,[sp,#0x1c]
        0x0000130a:    03c0        ..      LSLS     r0,r0,#15
        0x0000130c:    9008        ..      STR      r0,[sp,#0x20]
        0x0000130e:    2000        .       MOVS     r0,#0
        0x00001310:    f88d0024    ..$.    STRB     r0,[sp,#0x24]
        0x00001314:    483a        :H      LDR      r0,[pc,#232] ; [0x1400] = 0x1000003c
        0x00001316:    6801        .h      LDR      r1,[r0,#0]
        0x00001318:    4668        hF      MOV      r0,sp
        0x0000131a:    f7fefff5    ....    BL       am_bootloader_flag_page_update ; 0x308
        0x0000131e:    4838        8H      LDR      r0,[pc,#224] ; [0x1400] = 0x1000003c
        0x00001320:    6800        .h      LDR      r0,[r0,#0]
        0x00001322:    f7fff83b    ..;.    BL       am_bootloader_image_check ; 0x39c
        0x00001326:    b1b8        ..      CBZ      r0,0x1358 ; main + 168
        0x00001328:    bf00        ..      NOP      
        0x0000132a:    2073        s       MOVS     r0,#0x73
        0x0000132c:    4931        1I      LDR      r1,[pc,#196] ; [0x13f4] = 0x40010090
        0x0000132e:    3990        .9      SUBS     r1,r1,#0x90
        0x00001330:    6608        .f      STR      r0,[r1,#0x60]
        0x00001332:    4608        .F      MOV      r0,r1
        0x00001334:    6c00        .l      LDR      r0,[r0,#0x40]
        0x00001336:    f42020e0     ..     BIC      r0,r0,#0x70000
        0x0000133a:    6408        .d      STR      r0,[r1,#0x40]
        0x0000133c:    4608        .F      MOV      r0,r1
        0x0000133e:    6840        @h      LDR      r0,[r0,#4]
        0x00001340:    f02000ff     ...    BIC      r0,r0,#0xff
        0x00001344:    f0400018    @...    ORR      r0,r0,#0x18
        0x00001348:    6048        H`      STR      r0,[r1,#4]
        0x0000134a:    2000        .       MOVS     r0,#0
        0x0000134c:    6608        .f      STR      r0,[r1,#0x60]
        0x0000134e:    bf00        ..      NOP      
        0x00001350:    482b        +H      LDR      r0,[pc,#172] ; [0x1400] = 0x1000003c
        0x00001352:    6800        .h      LDR      r0,[r0,#0]
        0x00001354:    f7fefef8    ....    BL       am_bootloader_image_run ; 0x148
        0x00001358:    2000        .       MOVS     r0,#0
        0x0000135a:    f7fffa05    ....    BL       am_hal_clkgen_sysclk_select ; 0x768
        0x0000135e:    f7fff957    ..W.    BL       am_bsp_low_power_init ; 0x610
        0x00001362:    f06f407f    o..@    MVN      r0,#0xff000000
        0x00001366:    f7fffb5a    ..Z.    BL       am_hal_systick_load ; 0xa1e
        0x0000136a:    f7fffb5c    ..\.    BL       am_hal_systick_start ; 0xa26
        0x0000136e:    f000f859    ..Y.    BL       setup_ios_interface ; 0x1424
        0x00001372:    f7fefef3    ....    BL       am_hal_interrupt_master_enable ; 0x15c
        0x00001376:    e002        ..      B        0x137e ; main + 206
        0x00001378:    2001        .       MOVS     r0,#1
        0x0000137a:    f7fffd93    ....    BL       am_util_delay_ms ; 0xea4
        0x0000137e:    4821        !H      LDR      r0,[pc,#132] ; [0x1404] = 0x10000000
        0x00001380:    7800        .x      LDRB     r0,[r0,#0]
        0x00001382:    2800        .(      CMP      r0,#0
        0x00001384:    d1f8        ..      BNE      0x1378 ; main + 200
        0x00001386:    f7fffb46    ..F.    BL       am_hal_systick_count ; 0xa16
        0x0000138a:    491f        .I      LDR      r1,[pc,#124] ; [0x1408] = 0xb6c1ff
        0x0000138c:    4288        .B      CMP      r0,r1
        0x0000138e:    d8f3        ..      BHI      0x1378 ; main + 200
        0x00001390:    f7fefee8    ....    BL       am_hal_interrupt_master_disable ; 0x164
        0x00001394:    f7fffd94    ....    BL       cleanup_ios_interface ; 0xec0
        0x00001398:    bf00        ..      NOP      
        0x0000139a:    2073        s       MOVS     r0,#0x73
        0x0000139c:    4915        .I      LDR      r1,[pc,#84] ; [0x13f4] = 0x40010090
        0x0000139e:    3990        .9      SUBS     r1,r1,#0x90
        0x000013a0:    6608        .f      STR      r0,[r1,#0x60]
        0x000013a2:    4608        .F      MOV      r0,r1
        0x000013a4:    6c00        .l      LDR      r0,[r0,#0x40]
        0x000013a6:    f0200070     .p.    BIC      r0,r0,#0x70
        0x000013aa:    6408        .d      STR      r0,[r1,#0x40]
        0x000013ac:    4608        .F      MOV      r0,r1
        0x000013ae:    6800        .h      LDR      r0,[r0,#0]
        0x000013b0:    f420407f     ..@    BIC      r0,r0,#0xff00
        0x000013b4:    f44050d0    @..P    ORR      r0,r0,#0x1a00
        0x000013b8:    6008        .`      STR      r0,[r1,#0]
        0x000013ba:    2000        .       MOVS     r0,#0
        0x000013bc:    6608        .f      STR      r0,[r1,#0x60]
        0x000013be:    bf00        ..      NOP      
        0x000013c0:    bf00        ..      NOP      
        0x000013c2:    2073        s       MOVS     r0,#0x73
        0x000013c4:    6608        .f      STR      r0,[r1,#0x60]
        0x000013c6:    4608        .F      MOV      r0,r1
        0x000013c8:    6c00        .l      LDR      r0,[r0,#0x40]
        0x000013ca:    f0400080    @...    ORR      r0,r0,#0x80
        0x000013ce:    6408        .d      STR      r0,[r1,#0x40]
        0x000013d0:    2000        .       MOVS     r0,#0
        0x000013d2:    6608        .f      STR      r0,[r1,#0x60]
        0x000013d4:    bf00        ..      NOP      
        0x000013d6:    2002        .       MOVS     r0,#2
        0x000013d8:    2100        .!      MOVS     r1,#0
        0x000013da:    f7fff9db    ....    BL       am_hal_gpio_int_clear ; 0x794
        0x000013de:    2002        .       MOVS     r0,#2
        0x000013e0:    2100        .!      MOVS     r1,#0
        0x000013e2:    f7fff9ef    ....    BL       am_hal_gpio_int_enable ; 0x7c4
        0x000013e6:    2019        .       MOVS     r0,#0x19
        0x000013e8:    f7fff9fa    ....    BL       am_hal_interrupt_enable ; 0x7e0
        0x000013ec:    f7fefeb6    ....    BL       am_hal_interrupt_master_enable ; 0x15c
        0x000013f0:    bf00        ..      NOP      
        0x000013f2:    e7fe        ..      B        0x13f2 ; main + 322
    $d
        0x000013f4:    40010090    ...@    DCD    1073807504
        0x000013f8:    b84e1fa0    ..N.    DCD    3092127648
        0x000013fc:    100003a0    ....    DCD    268436384
        0x00001400:    1000003c    <...    DCD    268435516
        0x00001404:    10000000    ....    DCD    268435456
        0x00001408:    00b6c1ff    ....    DCD    11977215
    $t
    i.ser_out
    ser_out
        0x0000140c:    4904        .I      LDR      r1,[pc,#16] ; [0x1420] = 0x4001c000
        0x0000140e:    6008        .`      STR      r0,[r1,#0]
        0x00001410:    bf00        ..      NOP      
        0x00001412:    4903        .I      LDR      r1,[pc,#12] ; [0x1420] = 0x4001c000
        0x00001414:    6989        .i      LDR      r1,[r1,#0x18]
        0x00001416:    f3c11140    ..@.    UBFX     r1,r1,#5,#1
        0x0000141a:    2900        .)      CMP      r1,#0
        0x0000141c:    d1f9        ..      BNE      0x1412 ; ser_out + 6
        0x0000141e:    4770        pG      BX       lr
    $d
        0x00001420:    4001c000    ...@    DCD    1073856512
    $t
    i.setup_ios_interface
    setup_ios_interface
        0x00001424:    b510        ..      PUSH     {r4,lr}
        0x00001426:    bf00        ..      NOP      
        0x00001428:    2073        s       MOVS     r0,#0x73
        0x0000142a:    4963        cI      LDR      r1,[pc,#396] ; [0x15b8] = 0x40010000
        0x0000142c:    6608        .f      STR      r0,[r1,#0x60]
        0x0000142e:    4608        .F      MOV      r0,r1
        0x00001430:    6c00        .l      LDR      r0,[r0,#0x40]
        0x00001432:    f0200007     ...    BIC      r0,r0,#7
        0x00001436:    6408        .d      STR      r0,[r1,#0x40]
        0x00001438:    4608        .F      MOV      r0,r1
        0x0000143a:    6800        .h      LDR      r0,[r0,#0]
        0x0000143c:    f02000ff     ...    BIC      r0,r0,#0xff
        0x00001440:    f040001a    @...    ORR      r0,r0,#0x1a
        0x00001444:    6008        .`      STR      r0,[r1,#0]
        0x00001446:    2000        .       MOVS     r0,#0
        0x00001448:    6608        .f      STR      r0,[r1,#0x60]
        0x0000144a:    bf00        ..      NOP      
        0x0000144c:    485a        ZH      LDR      r0,[pc,#360] ; [0x15b8] = 0x40010000
        0x0000144e:    3080        .0      ADDS     r0,r0,#0x80
        0x00001450:    6800        .h      LDR      r0,[r0,#0]
        0x00001452:    f0000001    ....    AND      r0,r0,#1
        0x00001456:    b348        H.      CBZ      r0,0x14ac ; setup_ios_interface + 136
        0x00001458:    bf00        ..      NOP      
        0x0000145a:    2073        s       MOVS     r0,#0x73
        0x0000145c:    6608        .f      STR      r0,[r1,#0x60]
        0x0000145e:    4608        .F      MOV      r0,r1
        0x00001460:    6c00        .l      LDR      r0,[r0,#0x40]
        0x00001462:    f0200007     ...    BIC      r0,r0,#7
        0x00001466:    6408        .d      STR      r0,[r1,#0x40]
        0x00001468:    4608        .F      MOV      r0,r1
        0x0000146a:    6800        .h      LDR      r0,[r0,#0]
        0x0000146c:    f02000ff     ...    BIC      r0,r0,#0xff
        0x00001470:    f0400002    @...    ORR      r0,r0,#2
        0x00001474:    6008        .`      STR      r0,[r1,#0]
        0x00001476:    2000        .       MOVS     r0,#0
        0x00001478:    6608        .f      STR      r0,[r1,#0x60]
        0x0000147a:    bf00        ..      NOP      
        0x0000147c:    bf00        ..      NOP      
        0x0000147e:    2073        s       MOVS     r0,#0x73
        0x00001480:    6608        .f      STR      r0,[r1,#0x60]
        0x00001482:    4608        .F      MOV      r0,r1
        0x00001484:    6c00        .l      LDR      r0,[r0,#0x40]
        0x00001486:    f0200070     .p.    BIC      r0,r0,#0x70
        0x0000148a:    f0400040    @.@.    ORR      r0,r0,#0x40
        0x0000148e:    6408        .d      STR      r0,[r1,#0x40]
        0x00001490:    4608        .F      MOV      r0,r1
        0x00001492:    6800        .h      LDR      r0,[r0,#0]
        0x00001494:    f420407f     ..@    BIC      r0,r0,#0xff00
        0x00001498:    f4407000    @..p    ORR      r0,r0,#0x200
        0x0000149c:    6008        .`      STR      r0,[r1,#0]
        0x0000149e:    2000        .       MOVS     r0,#0
        0x000014a0:    6608        .f      STR      r0,[r1,#0x60]
        0x000014a2:    bf00        ..      NOP      
        0x000014a4:    1448        H.      ASRS     r0,r1,#17
        0x000014a6:    4945        EI      LDR      r1,[pc,#276] ; [0x15bc] = 0x10000004
        0x000014a8:    6008        .`      STR      r0,[r1,#0]
        0x000014aa:    e04b        K.      B        0x1544 ; setup_ios_interface + 288
        0x000014ac:    bf00        ..      NOP      
        0x000014ae:    2073        s       MOVS     r0,#0x73
        0x000014b0:    4941        AI      LDR      r1,[pc,#260] ; [0x15b8] = 0x40010000
        0x000014b2:    6608        .f      STR      r0,[r1,#0x60]
        0x000014b4:    4608        .F      MOV      r0,r1
        0x000014b6:    6c00        .l      LDR      r0,[r0,#0x40]
        0x000014b8:    f0200007     ...    BIC      r0,r0,#7
        0x000014bc:    6408        .d      STR      r0,[r1,#0x40]
        0x000014be:    4608        .F      MOV      r0,r1
        0x000014c0:    6800        .h      LDR      r0,[r0,#0]
        0x000014c2:    f02000ff     ...    BIC      r0,r0,#0xff
        0x000014c6:    f040000a    @...    ORR      r0,r0,#0xa
        0x000014ca:    6008        .`      STR      r0,[r1,#0]
        0x000014cc:    2000        .       MOVS     r0,#0
        0x000014ce:    6608        .f      STR      r0,[r1,#0x60]
        0x000014d0:    bf00        ..      NOP      
        0x000014d2:    bf00        ..      NOP      
        0x000014d4:    2073        s       MOVS     r0,#0x73
        0x000014d6:    6608        .f      STR      r0,[r1,#0x60]
        0x000014d8:    4608        .F      MOV      r0,r1
        0x000014da:    6c00        .l      LDR      r0,[r0,#0x40]
        0x000014dc:    f0200070     .p.    BIC      r0,r0,#0x70
        0x000014e0:    6408        .d      STR      r0,[r1,#0x40]
        0x000014e2:    4608        .F      MOV      r0,r1
        0x000014e4:    6800        .h      LDR      r0,[r0,#0]
        0x000014e6:    f420407f     ..@    BIC      r0,r0,#0xff00
        0x000014ea:    f4406000    @..`    ORR      r0,r0,#0x800
        0x000014ee:    6008        .`      STR      r0,[r1,#0]
        0x000014f0:    2000        .       MOVS     r0,#0
        0x000014f2:    6608        .f      STR      r0,[r1,#0x60]
        0x000014f4:    bf00        ..      NOP      
        0x000014f6:    bf00        ..      NOP      
        0x000014f8:    2073        s       MOVS     r0,#0x73
        0x000014fa:    6608        .f      STR      r0,[r1,#0x60]
        0x000014fc:    4608        .F      MOV      r0,r1
        0x000014fe:    6c00        .l      LDR      r0,[r0,#0x40]
        0x00001500:    f42060e0     ..`    BIC      r0,r0,#0x700
        0x00001504:    6408        .d      STR      r0,[r1,#0x40]
        0x00001506:    4608        .F      MOV      r0,r1
        0x00001508:    6800        .h      LDR      r0,[r0,#0]
        0x0000150a:    f420007f     ...    BIC      r0,r0,#0xff0000
        0x0000150e:    f4402020    @.      ORR      r0,r0,#0xa0000
        0x00001512:    6008        .`      STR      r0,[r1,#0]
        0x00001514:    2000        .       MOVS     r0,#0
        0x00001516:    6608        .f      STR      r0,[r1,#0x60]
        0x00001518:    bf00        ..      NOP      
        0x0000151a:    bf00        ..      NOP      
        0x0000151c:    2073        s       MOVS     r0,#0x73
        0x0000151e:    6608        .f      STR      r0,[r1,#0x60]
        0x00001520:    4608        .F      MOV      r0,r1
        0x00001522:    6c00        .l      LDR      r0,[r0,#0x40]
        0x00001524:    f42040e0     ..@    BIC      r0,r0,#0x7000
        0x00001528:    6408        .d      STR      r0,[r1,#0x40]
        0x0000152a:    4608        .F      MOV      r0,r1
        0x0000152c:    6800        .h      LDR      r0,[r0,#0]
        0x0000152e:    f020407f     ..@    BIC      r0,r0,#0xff000000
        0x00001532:    f0406020    @. `    ORR      r0,r0,#0xa000000
        0x00001536:    6008        .`      STR      r0,[r1,#0]
        0x00001538:    2000        .       MOVS     r0,#0
        0x0000153a:    6608        .f      STR      r0,[r1,#0x60]
        0x0000153c:    bf00        ..      NOP      
        0x0000153e:    2001        .       MOVS     r0,#1
        0x00001540:    491e        .I      LDR      r1,[pc,#120] ; [0x15bc] = 0x10000004
        0x00001542:    6008        .`      STR      r0,[r1,#0]
        0x00001544:    2010        .       MOVS     r0,#0x10
        0x00001546:    491c        .I      LDR      r1,[pc,#112] ; [0x15b8] = 0x40010000
        0x00001548:    3190        .1      ADDS     r1,r1,#0x90
        0x0000154a:    6008        .`      STR      r0,[r1,#0]
        0x0000154c:    bf00        ..      NOP      
        0x0000154e:    2073        s       MOVS     r0,#0x73
        0x00001550:    4919        .I      LDR      r1,[pc,#100] ; [0x15b8] = 0x40010000
        0x00001552:    6608        .f      STR      r0,[r1,#0x60]
        0x00001554:    4608        .F      MOV      r0,r1
        0x00001556:    6c00        .l      LDR      r0,[r0,#0x40]
        0x00001558:    f42020e0     ..     BIC      r0,r0,#0x70000
        0x0000155c:    f4403000    @..0    ORR      r0,r0,#0x20000
        0x00001560:    6408        .d      STR      r0,[r1,#0x40]
        0x00001562:    4608        .F      MOV      r0,r1
        0x00001564:    6840        @h      LDR      r0,[r0,#4]
        0x00001566:    f02000ff     ...    BIC      r0,r0,#0xff
        0x0000156a:    f0400018    @...    ORR      r0,r0,#0x18
        0x0000156e:    6048        H`      STR      r0,[r1,#4]
        0x00001570:    2000        .       MOVS     r0,#0
        0x00001572:    6608        .f      STR      r0,[r1,#0x60]
        0x00001574:    bf00        ..      NOP      
        0x00001576:    4811        .H      LDR      r0,[pc,#68] ; [0x15bc] = 0x10000004
        0x00001578:    f7fff970    ..p.    BL       am_hal_ios_config ; 0x85c
        0x0000157c:    f04f30ff    O..0    MOV      r0,#0xffffffff
        0x00001580:    f7fff954    ..T.    BL       am_hal_ios_access_int_clear ; 0x82c
        0x00001584:    f04f5080    O..P    MOV      r0,#0x10000000
        0x00001588:    f7fff955    ..U.    BL       am_hal_ios_access_int_enable ; 0x836
        0x0000158c:    f04f30ff    O..0    MOV      r0,#0xffffffff
        0x00001590:    f7fff9f6    ....    BL       am_hal_ios_int_clear ; 0x980
        0x00001594:    2001        .       MOVS     r0,#1
        0x00001596:    f7fff9f8    ....    BL       am_hal_ios_int_enable ; 0x98a
        0x0000159a:    2015        .       MOVS     r0,#0x15
        0x0000159c:    f7fff920    .. .    BL       am_hal_interrupt_enable ; 0x7e0
        0x000015a0:    2014        .       MOVS     r0,#0x14
        0x000015a2:    f7fff91d    ....    BL       am_hal_interrupt_enable ; 0x7e0
        0x000015a6:    2002        .       MOVS     r0,#2
        0x000015a8:    4905        .I      LDR      r1,[pc,#20] ; [0x15c0] = 0x1aa4
        0x000015aa:    6809        .h      LDR      r1,[r1,#0]
        0x000015ac:    6008        .`      STR      r0,[r1,#0]
        0x000015ae:    2010        .       MOVS     r0,#0x10
        0x000015b0:    4901        .I      LDR      r1,[pc,#4] ; [0x15b8] = 0x40010000
        0x000015b2:    3198        .1      ADDS     r1,r1,#0x98
        0x000015b4:    6008        .`      STR      r0,[r1,#0]
        0x000015b6:    bd10        ..      POP      {r4,pc}
    $d
        0x000015b8:    40010000    ...@    DCD    1073807360
        0x000015bc:    10000004    ....    DCD    268435460
        0x000015c0:    00001aa4    ....    DCD    6820
    $t
    i.setup_serial
    setup_serial
        0x000015c4:    b570        p.      PUSH     {r4-r6,lr}
        0x000015c6:    4605        .F      MOV      r5,r0
        0x000015c8:    460c        .F      MOV      r4,r1
        0x000015ca:    2000        .       MOVS     r0,#0
        0x000015cc:    4929        )I      LDR      r1,[pc,#164] ; [0x1674] = 0x10000064
        0x000015ce:    6008        .`      STR      r0,[r1,#0]
        0x000015d0:    4929        )I      LDR      r1,[pc,#164] ; [0x1678] = 0x1000005b
        0x000015d2:    7008        .p      STRB     r0,[r1,#0]
        0x000015d4:    4929        )I      LDR      r1,[pc,#164] ; [0x167c] = 0x1000005d
        0x000015d6:    7008        .p      STRB     r0,[r1,#0]
        0x000015d8:    4929        )I      LDR      r1,[pc,#164] ; [0x1680] = 0x1000005c
        0x000015da:    7008        .p      STRB     r0,[r1,#0]
        0x000015dc:    4929        )I      LDR      r1,[pc,#164] ; [0x1684] = 0x10000059
        0x000015de:    7008        .p      STRB     r0,[r1,#0]
        0x000015e0:    2001        .       MOVS     r0,#1
        0x000015e2:    4929        )I      LDR      r1,[pc,#164] ; [0x1688] = 0x1000005a
        0x000015e4:    7008        .p      STRB     r0,[r1,#0]
        0x000015e6:    20ff        .       MOVS     r0,#0xff
        0x000015e8:    4928        (I      LDR      r1,[pc,#160] ; [0x168c] = 0x10000068
        0x000015ea:    7008        .p      STRB     r0,[r1,#0]
        0x000015ec:    bf00        ..      NOP      
        0x000015ee:    2073        s       MOVS     r0,#0x73
        0x000015f0:    4927        'I      LDR      r1,[pc,#156] ; [0x1690] = 0x40010000
        0x000015f2:    6608        .f      STR      r0,[r1,#0x60]
        0x000015f4:    4608        .F      MOV      r0,r1
        0x000015f6:    6d00        .m      LDR      r0,[r0,#0x50]
        0x000015f8:    f42040e0     ..@    BIC      r0,r0,#0x7000
        0x000015fc:    6508        .e      STR      r0,[r1,#0x50]
        0x000015fe:    4608        .F      MOV      r0,r1
        0x00001600:    6a00        .j      LDR      r0,[r0,#0x20]
        0x00001602:    f020407f     ..@    BIC      r0,r0,#0xff000000
        0x00001606:    f0405080    @..P    ORR      r0,r0,#0x10000000
        0x0000160a:    6208        .b      STR      r0,[r1,#0x20]
        0x0000160c:    2000        .       MOVS     r0,#0
        0x0000160e:    6608        .f      STR      r0,[r1,#0x60]
        0x00001610:    bf00        ..      NOP      
        0x00001612:    bf00        ..      NOP      
        0x00001614:    2073        s       MOVS     r0,#0x73
        0x00001616:    6608        .f      STR      r0,[r1,#0x60]
        0x00001618:    4608        .F      MOV      r0,r1
        0x0000161a:    6d00        .m      LDR      r0,[r0,#0x50]
        0x0000161c:    f42020e0     ..     BIC      r0,r0,#0x70000
        0x00001620:    6508        .e      STR      r0,[r1,#0x50]
        0x00001622:    4608        .F      MOV      r0,r1
        0x00001624:    6a40        @j      LDR      r0,[r0,#0x24]
        0x00001626:    f02000ff     ...    BIC      r0,r0,#0xff
        0x0000162a:    f0400012    @...    ORR      r0,r0,#0x12
        0x0000162e:    6248        Hb      STR      r0,[r1,#0x24]
        0x00001630:    2000        .       MOVS     r0,#0
        0x00001632:    6608        .f      STR      r0,[r1,#0x60]
        0x00001634:    bf00        ..      NOP      
        0x00001636:    4628        (F      MOV      r0,r5
        0x00001638:    f7fffa06    ....    BL       am_hal_uart_clock_enable ; 0xa48
        0x0000163c:    4628        (F      MOV      r0,r5
        0x0000163e:    f7fffa3f    ..?.    BL       am_hal_uart_disable ; 0xac0
        0x00001642:    4814        .H      LDR      r0,[pc,#80] ; [0x1694] = 0x10000040
        0x00001644:    6004        .`      STR      r4,[r0,#0]
        0x00001646:    4601        .F      MOV      r1,r0
        0x00001648:    4628        (F      MOV      r0,r5
        0x0000164a:    f7fffa0f    ....    BL       am_hal_uart_config ; 0xa6c
        0x0000164e:    2112        .!      MOVS     r1,#0x12
        0x00001650:    4628        (F      MOV      r0,r5
        0x00001652:    f7fffa49    ..I.    BL       am_hal_uart_fifo_config ; 0xae8
        0x00001656:    4628        (F      MOV      r0,r5
        0x00001658:    f7fffa3c    ..<.    BL       am_hal_uart_enable ; 0xad4
        0x0000165c:    2150        P!      MOVS     r1,#0x50
        0x0000165e:    2000        .       MOVS     r0,#0
        0x00001660:    f7fffa4c    ..L.    BL       am_hal_uart_int_clear ; 0xafc
        0x00001664:    2150        P!      MOVS     r1,#0x50
        0x00001666:    2000        .       MOVS     r0,#0
        0x00001668:    f7fffa4e    ..N.    BL       am_hal_uart_int_enable ; 0xb08
        0x0000166c:    201b        .       MOVS     r0,#0x1b
        0x0000166e:    f7fff8b7    ....    BL       am_hal_interrupt_enable ; 0x7e0
        0x00001672:    bd70        p.      POP      {r4-r6,pc}
    $d
        0x00001674:    10000064    d...    DCD    268435556
        0x00001678:    1000005b    [...    DCD    268435547
        0x0000167c:    1000005d    ]...    DCD    268435549
        0x00001680:    1000005c    \...    DCD    268435548
        0x00001684:    10000059    Y...    DCD    268435545
        0x00001688:    1000005a    Z...    DCD    268435546
        0x0000168c:    10000068    h...    DCD    268435560
        0x00001690:    40010000    ...@    DCD    1073807360
        0x00001694:    10000040    @...    DCD    268435520
    $t
    x$fpl$fpinit
    $v0
    _fp_init
        0x00001698:    f04f7040    O.@p    MOV      r0,#0x3000000
        0x0000169c:    eee10a10    ....    VMSR     FPSCR,r0
    __fplib_config_fpu_vfp
    __fplib_config_pureend_doubles
        0x000016a0:    4770        pG      BX       lr
        0x000016a2:    0000        ..      MOVS     r0,r0
    $d.realdata
    .constdata
    g_pui32CRC32Table
        0x000016a4:    00000000    ....    DCD    0
        0x000016a8:    1edc6f41    Ao..    DCD    517762881
        0x000016ac:    3db8de82    ...=    DCD    1035525762
        0x000016b0:    2364b1c3    ..d#    DCD    593801667
        0x000016b4:    7b71bd04    ..q{    DCD    2071051524
        0x000016b8:    65add245    E..e    DCD    1705890373
        0x000016bc:    46c96386    .c.F    DCD    1187603334
        0x000016c0:    58150cc7    ...X    DCD    1477774535
        0x000016c4:    f6e37a08    .z..    DCD    4142103048
        0x000016c8:    e83f1549    I.?.    DCD    3896448329
        0x000016cc:    cb5ba48a    ..[.    DCD    3411780746
        0x000016d0:    d587cbcb    ....    DCD    3582446539
        0x000016d4:    8d92c70c    ....    DCD    2375206668
        0x000016d8:    934ea84d    M.N.    DCD    2471405645
        0x000016dc:    b02a198e    ..*.    DCD    2955549070
        0x000016e0:    aef676cf    .v..    DCD    2935387855
        0x000016e4:    f31a9b51    Q...    DCD    4078607185
        0x000016e8:    edc6f410    ....    DCD    3989238800
        0x000016ec:    cea245d3    .E..    DCD    3466741203
        0x000016f0:    d07e2a92    .*~.    DCD    3497929362
        0x000016f4:    886b2655    U&k.    DCD    2288723541
        0x000016f8:    96b74914    .I..    DCD    2528594196
        0x000016fc:    b5d3f8d7    ....    DCD    3050567895
        0x00001700:    ab0f9796    ....    DCD    2869925782
        0x00001704:    05f9e159    Y...    DCD    100262233
        0x00001708:    1b258e18    ..%.    DCD    455446040
        0x0000170c:    38413fdb    .?A8    DCD    943800283
        0x00001710:    269d509a    .P.&    DCD    647843994
        0x00001714:    7e885c5d    ]\.~    DCD    2122865757
        0x00001718:    6054331c    .3T`    DCD    1616130844
        0x0000171c:    433082df    ..0C    DCD    1127252703
        0x00001720:    5deced9e    ...]    DCD    1575808414
        0x00001724:    f8e959e3    .Y..    DCD    4176042467
        0x00001728:    e63536a2    .65.    DCD    3862247074
        0x0000172c:    c5518761    a.Q.    DCD    3310454625
        0x00001730:    db8de820     ...    DCD    3683510304
        0x00001734:    8398e4e7    ....    DCD    2207835367
        0x00001738:    9d448ba6    ..D.    DCD    2638515110
        0x0000173c:    be203a65    e: .    DCD    3189783141
        0x00001740:    a0fc5524    $U..    DCD    2700891428
        0x00001744:    0e0a23eb    .#..    DCD    235545579
        0x00001748:    10d64caa    .L..    DCD    282479786
        0x0000174c:    33b2fd69    i..3    DCD    867368297
        0x00001750:    2d6e9228    (.n-    DCD    762221096
        0x00001754:    757b9eef    ..{u    DCD    1971035887
        0x00001758:    6ba7f1ae    ...k    DCD    1806168494
        0x0000175c:    48c3406d    m@.H    DCD    1220755565
        0x00001760:    561f2f2c    ,/.V    DCD    1444884268
        0x00001764:    0bf3c2b2    ....    DCD    200524466
        0x00001768:    152fadf3    ../.    DCD    355446259
        0x0000176c:    364b1c30    0.K6    DCD    910892080
        0x00001770:    28977371    qs.(    DCD    681014129
        0x00001774:    70827fb6    ...p    DCD    1887600566
        0x00001778:    6e5e10f7    ..^n    DCD    1851658487
        0x0000177c:    4d3aa134    4.:M    DCD    1295687988
        0x00001780:    53e6ce75    u..S    DCD    1407635061
        0x00001784:    fd10b8ba    ....    DCD    4245731514
        0x00001788:    e3ccd7fb    ....    DCD    3821852667
        0x0000178c:    c0a86638    8f..    DCD    3232261688
        0x00001790:    de740979    y.t.    DCD    3732146553
        0x00001794:    866105be    ..a.    DCD    2254505406
        0x00001798:    98bd6aff    .j..    DCD    2562550527
        0x0000179c:    bbd9db3c    <...    DCD    3151616828
        0x000017a0:    a505b47d    }...    DCD    2768614525
        0x000017a4:    ef0edc87    ....    DCD    4010728583
        0x000017a8:    f1d2b3c6    ....    DCD    4057117638
        0x000017ac:    d2b60205    ....    DCD    3535143429
        0x000017b0:    cc6a6d44    Dmj.    DCD    3429526852
        0x000017b4:    947f6183    .a..    DCD    2491376003
        0x000017b8:    8aa30ec2    ....    DCD    2325941954
        0x000017bc:    a9c7bf01    ....    DCD    2848440065
        0x000017c0:    b71bd040    @...    DCD    3072053312
        0x000017c4:    19eda68f    ....    DCD    435005071
        0x000017c8:    0731c9ce    ..1.    DCD    120703438
        0x000017cc:    2455780d    .xU$    DCD    609581069
        0x000017d0:    3a89174c    L..:    DCD    982062924
        0x000017d4:    629c1b8b    ...b    DCD    1654397835
        0x000017d8:    7c4074ca    .t@|    DCD    2084598986
        0x000017dc:    5f24c509    ..$_    DCD    1596245257
        0x000017e0:    41f8aa48    H..A    DCD    1106815560
        0x000017e4:    1c1447d6    .G..    DCD    471091158
        0x000017e8:    02c82897    .(..    DCD    46672023
        0x000017ec:    21ac9954    T..!    DCD    564959572
        0x000017f0:    3f70f615    ..p?    DCD    1064367637
        0x000017f4:    6765fad2    ..eg    DCD    1734736594
        0x000017f8:    79b99593    ...y    DCD    2042205587
        0x000017fc:    5add2450    P$.Z    DCD    1524442192
        0x00001800:    44014b11    .K.D    DCD    1140935441
        0x00001804:    eaf73dde    .=..    DCD    3942071774
        0x00001808:    f42b529f    .R+.    DCD    4096479903
        0x0000180c:    d74fe35c    \.O.    DCD    3612336988
        0x00001810:    c9938c1d    ....    DCD    3381890077
        0x00001814:    918680da    ....    DCD    2441511130
        0x00001818:    8f5aef9b    ..Z.    DCD    2405101467
        0x0000181c:    ac3e5e58    X^>.    DCD    2889768536
        0x00001820:    b2e23119    .1..    DCD    3001168153
        0x00001824:    17e78564    d...    DCD    401048932
        0x00001828:    093bea25    %.;.    DCD    154921509
        0x0000182c:    2a5f5be6    .[_*    DCD    710892518
        0x00001830:    348334a7    .4.4    DCD    881013927
        0x00001834:    6c963860    `8.l    DCD    1821784160
        0x00001838:    724a5721    !WJr    DCD    1917474593
        0x0000183c:    512ee6e2    ...Q    DCD    1362028258
        0x00001840:    4ff289a3    ...O    DCD    1341295011
        0x00001844:    e104ff6c    l...    DCD    3775201132
        0x00001848:    ffd8902d    -...    DCD    4292382765
        0x0000184c:    dcbc21ee    .!..    DCD    3703316974
        0x00001850:    c2604eaf    .N`.    DCD    3261091503
        0x00001854:    9a754268    hBu.    DCD    2591375976
        0x00001858:    84a92d29    )-..    DCD    2225679657
        0x0000185c:    a7cd9cea    ....    DCD    2815270122
        0x00001860:    b911f3ab    ....    DCD    3104961451
        0x00001864:    e4fd1e35    5...    DCD    3841793589
        0x00001868:    fa217174    tq!.    DCD    4196495732
        0x0000186c:    d945c0b7    ..E.    DCD    3645227191
        0x00001870:    c799aff6    ....    DCD    3348738038
        0x00001874:    9f8ca331    1...    DCD    2676794161
        0x00001878:    8150cc70    p.P.    DCD    2169556080
        0x0000187c:    a2347db3    .}4.    DCD    2721349043
        0x00001880:    bce812f2    ....    DCD    3169325810
        0x00001884:    121e643d    =d..    DCD    303981629
        0x00001888:    0cc20b7c    |...    DCD    214043516
        0x0000188c:    2fa6babf    .../    DCD    799455935
        0x00001890:    317ad5fe    ..z1    DCD    830133758
        0x00001894:    696fd939    9.oi    DCD    1768937785
        0x00001898:    77b3b678    x..w    DCD    2008266360
        0x0000189c:    54d707bb    ...T    DCD    1423378363
        0x000018a0:    4a0b68fa    .h.J    DCD    1242261754
        0x000018a4:    c0c1d64f    O...    DCD    3233928783
        0x000018a8:    de1db90e    ....    DCD    3726489870
        0x000018ac:    fd7908cd    ..y.    DCD    4252567757
        0x000018b0:    e3a5678c    .g..    DCD    3819267980
        0x000018b4:    bbb06b4b    Kk..    DCD    3148901195
        0x000018b8:    a56c040a    ..l.    DCD    2775319562
        0x000018bc:    8608b5c9    ....    DCD    2248717769
        0x000018c0:    98d4da88    ....    DCD    2564086408
        0x000018c4:    3622ac47    G."6    DCD    908241991
        0x000018c8:    28fec306    ...(    DCD    687784710
        0x000018cc:    0b9a72c5    .r..    DCD    194671301
        0x000018d0:    15461d84    ..F.    DCD    356916612
        0x000018d4:    4d531143    C.SM    DCD    1297289539
        0x000018d8:    538f7e02    .~.S    DCD    1401912834
        0x000018dc:    70ebcfc1    ...p    DCD    1894502337
        0x000018e0:    6e37a080    ..7n    DCD    1849139328
        0x000018e4:    33db4d1e    .M.3    DCD    870010142
        0x000018e8:    2d07225f    _".-    DCD    755442271
        0x000018ec:    0e63939c    ..c.    DCD    241406876
        0x000018f0:    10bffcdd    ....    DCD    281017565
        0x000018f4:    48aaf01a    ...H    DCD    1219162138
        0x000018f8:    56769f5b    [.vV    DCD    1450614619
        0x000018fc:    75122e98    ...u    DCD    1964125848
        0x00001900:    6bce41d9    .A.k    DCD    1808679385
        0x00001904:    c5383716    .78.    DCD    3308795670
        0x00001908:    dbe45857    WX..    DCD    3689175127
        0x0000190c:    f880e994    ....    DCD    4169197972
        0x00001910:    e65c86d5    ..\.    DCD    3864823509
        0x00001914:    be498a12    ..I.    DCD    3192490514
        0x00001918:    a095e553    S...    DCD    2694178131
        0x0000191c:    83f15490    .T..    DCD    2213631120
        0x00001920:    9d2d3bd1    .;-.    DCD    2636987345
        0x00001924:    38288fac    ..(8    DCD    942182316
        0x00001928:    26f4e0ed    ...&    DCD    653582573
        0x0000192c:    0590512e    .Q..    DCD    93344046
        0x00001930:    1b4c3e6f    o>L.    DCD    457981551
        0x00001934:    435932a8    .2YC    DCD    1129919144
        0x00001938:    5d855de9    .].]    DCD    1569021417
        0x0000193c:    7ee1ec2a    *..~    DCD    2128735274
        0x00001940:    603d836b    k.=`    DCD    1614644075
        0x00001944:    cecbf5a4    ....    DCD    3469473188
        0x00001948:    d0179ae5    ....    DCD    3491207909
        0x0000194c:    f3732b26    &+s.    DCD    4084411174
        0x00001950:    edaf4467    gD..    DCD    3987686503
        0x00001954:    b5ba48a0    .H..    DCD    3048884384
        0x00001958:    ab6627e1    .'f.    DCD    2875598817
        0x0000195c:    88029622    "...    DCD    2281870882
        0x00001960:    96def963    c...    DCD    2531195235
        0x00001964:    cb3214fd    ..2.    DCD    3409057021
        0x00001968:    d5ee7bbc    .{..    DCD    3589176252
        0x0000196c:    f68aca7f    ....    DCD    4136290943
        0x00001970:    e856a53e    >.V.    DCD    3897992510
        0x00001974:    b043a9f9    ..C.    DCD    2957224441
        0x00001978:    ae9fc6b8    ....    DCD    2929706680
        0x0000197c:    8dfb777b    {w..    DCD    2382067579
        0x00001980:    9327183a    :.'.    DCD    2468812858
        0x00001984:    3dd16ef5    .n.=    DCD    1037135605
        0x00001988:    230d01b4    ...#    DCD    588054964
        0x0000198c:    0069b077    w.i.    DCD    6926455
        0x00001990:    1eb5df36    6...    DCD    515235638
        0x00001994:    46a0d3f1    ...F    DCD    1184945137
        0x00001998:    587cbcb0    ..|X    DCD    1484569776
        0x0000199c:    7b180d73    s..{    DCD    2065173875
        0x000019a0:    65c46232    2b.e    DCD    1707369010
        0x000019a4:    2fcf0ac8    .../    DCD    802097864
        0x000019a8:    31136589    .e.1    DCD    823354761
        0x000019ac:    1277d44a    J.w.    DCD    309843018
        0x000019b0:    0cabbb0b    ....    DCD    212581131
        0x000019b4:    54beb7cc    ...T    DCD    1421785036
        0x000019b8:    4a62d88d    ..bJ    DCD    1247991949
        0x000019bc:    6906694e    Ni.i    DCD    1762027854
        0x000019c0:    77da060f    ...w    DCD    2010777103
        0x000019c4:    d92c70c0    .p,.    DCD    3643568320
        0x000019c8:    c7f01f81    ....    DCD    3354402689
        0x000019cc:    e494ae42    B...    DCD    3834949186
        0x000019d0:    fa48c103    ..H.    DCD    4199072003
        0x000019d4:    a25dcdc4    ..].    DCD    2724056516
        0x000019d8:    bc81a285    ....    DCD    3162612357
        0x000019dc:    9fe51346    F...    DCD    2682590022
        0x000019e0:    81397c07    .|9.    DCD    2168028167
        0x000019e4:    dcd59199    ....    DCD    3704983961
        0x000019e8:    c209fed8    ....    DCD    3255434968
        0x000019ec:    e16d4f1b    .Om.    DCD    3782037275
        0x000019f0:    ffb1205a    Z ..    DCD    4289798234
        0x000019f4:    a7a42c9d    .,..    DCD    2812554397
        0x000019f8:    b97843dc    .Cx.    DCD    3111666652
        0x000019fc:    9a1cf21f    ....    DCD    2585588255
        0x00001a00:    84c09d5e    ^...    DCD    2227215710
        0x00001a04:    2a36eb91    ..6*    DCD    708242321
        0x00001a08:    34ea84d0    ...4    DCD    887784656
        0x00001a0c:    178e3513    .5..    DCD    395195667
        0x00001a10:    09525a52    RZR.    DCD    156392018
        0x00001a14:    51475695    .VGQ    DCD    1363629717
        0x00001a18:    4f9b39d4    .9.O    DCD    1335572948
        0x00001a1c:    6cff8817    ...l    DCD    1828685847
        0x00001a20:    7223e756    V.#r    DCD    1914955606
        0x00001a24:    d726532b    +S&.    DCD    3609613099
        0x00001a28:    c9fa3c6a    j<..    DCD    3388619882
        0x00001a2c:    ea9e8da9    ....    DCD    3936259497
        0x00001a30:    f442e2e8    ..B.    DCD    4098024168
        0x00001a34:    ac57ee2f    /.W.    DCD    2891443759
        0x00001a38:    b28b816e    n...    DCD    2995487086
        0x00001a3c:    91ef30ad    .0..    DCD    2448371885
        0x00001a40:    8f335fec    ._3.    DCD    2402508780
        0x00001a44:    21c52923    #).!    DCD    566569251
        0x00001a48:    3f194662    bF.?    DCD    1058621026
        0x00001a4c:    1c7df7a1    ..}.    DCD    478017441
        0x00001a50:    02a198e0    ....    DCD    44144864
        0x00001a54:    5ab49427    '..Z    DCD    1521783847
        0x00001a58:    4468fb66    f.hD    DCD    1147730790
        0x00001a5c:    670c4aa5    .J.g    DCD    1728858789
        0x00001a60:    79d025e4    .%.y    DCD    2043684324
        0x00001a64:    243cc87a    z.<$    DCD    607963258
        0x00001a68:    3ae0a73b    ;..:    DCD    987801403
        0x00001a6c:    198416f8    ....    DCD    428087032
        0x00001a70:    075879b9    .yX.    DCD    123238841
        0x00001a74:    5f4d757e    ~uM_    DCD    1598911870
        0x00001a78:    41911a3f    ?..A    DCD    1100028479
        0x00001a7c:    62f5abfc    ...b    DCD    1660267516
        0x00001a80:    7c29c4bd    ..)|    DCD    2083112125
        0x00001a84:    d2dfb272    r...    DCD    3537875570
        0x00001a88:    cc03dd33    3...    DCD    3422805299
        0x00001a8c:    ef676cf0    .lg.    DCD    4016532720
        0x00001a90:    f1bb03b1    ....    DCD    4055565233
        0x00001a94:    a9ae0f76    v...    DCD    2846756726
        0x00001a98:    b7726037    7`r.    DCD    3077726263
        0x00001a9c:    9416d1f4    ....    DCD    2484523508
        0x00001aa0:    8acabeb5    ....    DCD    2328542901
    .constdata
    am_hal_ios_pui8LRAM
        0x00001aa4:    50000000    ...P    DCD    1342177280
    Region$$Table$$Base
        0x00001aa8:    00001ac8    ....    DCD    6856
        0x00001aac:    10000000    ....    DCD    268435456
        0x00001ab0:    000000a4    ....    DCD    164
        0x00001ab4:    000000dc    ....    DCD    220
        0x00001ab8:    00001b6c    l...    DCD    7020
        0x00001abc:    100000a4    ....    DCD    268435620
        0x00001ac0:    0000139c    ....    DCD    5020
        0x00001ac4:    000000f8    ....    DCD    248
    Region$$Table$$Limit

** Section #2 'SRAM' (SHT_PROGBITS) [SHF_ALLOC + SHF_WRITE]
    Size   : 164 bytes (alignment 4)
    Address: 0x10000000

    0x10000000:   00 00 00 00 01 00 00 00 78 00 00 00 78 00 00 00    ........x...x...
    0x10000010:   00 01 00 00 00 00 00 00 00 00 00 00 00 00 00 00    ................
    0x10000020:   00 00 00 00 a4 00 00 10 00 00 00 00 00 00 00 00    ................
    0x10000030:   00 00 00 00 00 00 00 00 00 00 00 00 00 3c 00 00    .............<..
    0x10000040:   00 c2 01 00 60 00 00 00 00 00 00 00 00 00 00 00    ....`...........
    0x10000050:   00 00 00 00 00 00 00 00 00 00 00 00 00 00 00 00    ................
    0x10000060:   00 00 00 00 00 00 00 00 00 00 00 00 00 00 00 00    ................
    0x10000070:   00 68 00 bf 70 47 00 bf 4d 00 00 08 51 00 00 08    .h..pG..M...Q...
    0x10000080:   55 00 00 08 59 00 00 08 5d 00 00 08 61 00 00 08    U...Y...]...a...
    0x10000090:   65 00 00 08 69 00 00 08 00 00 00 50 00 00 00 50    e...i......P...P
    0x100000a0:   00 00 00 50                                        ...P


** Section #3 'SRAM' (SHT_NOBITS) [SHF_ALLOC + SHF_WRITE]
    Size   : 5020 bytes (alignment 8)
    Address: 0x100000a4


** Section #4 'ER$$.ARM.__at_0x8000' (SHT_PROGBITS) [SHF_ALLOC]
    Size   : 5168 bytes
    Address: 0x00008000

    0x008000:   a0 03 00 10 71 40 00 00 8d 40 00 00 41 41 00 00    ....q@...@..AA..
    0x008010:   93 40 00 00 95 40 00 00 97 40 00 00 00 00 00 00    .@...@...@......
    0x008020:   00 00 00 00 00 00 00 00 00 00 00 00 99 40 00 00    .............@..
    0x008030:   99 40 00 00 00 00 00 00 99 40 00 00 99 40 00 00    .@.......@...@..
    0x008040:   99 40 00 00 99 40 00 00 99 40 00 00 99 40 00 00    .@...@...@...@..
    0x008050:   99 40 00 00 99 40 00 00 99 40 00 00 99 40 00 00    .@...@...@...@..
    0x008060:   99 40 00 00 99 40 00 00 b5 42 00 00 99 40 00 00    .@...@...B...@..
    0x008070:   4e f6 88 50 ce f2 00 00 01 68 41 f4 70 01 01 60    N..P.....hA.p..`
    0x008080:   bf f3 4f 8f bf f3 6f 8f 04 48 00 47 fe e7 fe e7    ..O...o..H.G....
    0x008090:   fe e7 fe e7 fe e7 fe e7 fe e7 00 00 a1 40 00 00    .............@..
    0x0080a0:   00 f0 02 f8 00 f0 3c f8 0a a0 90 e8 00 0c 82 44    ......<........D
    0x0080b0:   83 44 aa f1 01 07 da 45 01 d1 00 f0 31 f8 af f2    .D.....E....1...
    0x0080c0:   09 0e ba e8 0f 00 13 f0 01 0f 18 bf fb 1a 43 f0    ..............C.
    0x0080d0:   01 03 18 47 00 13 00 00 20 13 00 00 10 3a 24 bf    ...G.... ....:$.
    0x0080e0:   78 c8 78 c1 fa d8 52 07 24 bf 30 c8 30 c1 44 bf    x.x...R.$.0.0.D.
    0x0080f0:   04 68 0c 60 70 47 00 00 00 23 00 24 00 25 00 26    .h.`pG...#.$.%.&
    0x008100:   10 3a 28 bf 78 c1 fb d8 52 07 28 bf 30 c1 48 bf    .:(.x...R.(.0.H.
    0x008110:   0b 60 70 47 1f b5 01 f0 52 f9 1f bd 10 b5 10 bd    .`pG....R.......
    0x008120:   00 f0 37 f8 11 46 ff f7 f5 ff 00 f0 8d ff 00 f0    ..7..F..........
    0x008130:   55 f8 03 b4 ff f7 f2 ff 03 bc 00 f0 5d f8 00 00    U...........]...
    0x008140:   80 b5 68 46 08 30 00 f0 2b fc 01 bd 80 00 40 18    ..hF.0..+.....@.
    0x008150:   00 68 70 47 ef f3 10 80 62 b6 70 47 ef f3 10 80    .hpG....b.pG....
    0x008160:   72 b6 70 47 80 f3 10 88 70 47 00 00 01 38 fd d1    r.pG....pG...8..
    0x008170:   70 47 00 00 02 48 03 49 01 4a 03 4b 70 47 00 00    pG...H.I.J.KpG..
    0x008180:   a0 01 00 10 a0 03 00 10 a0 01 00 10 70 47 70 47    ............pGpG
    0x008190:   70 47 75 46 00 f0 2c f8 ae 46 05 00 69 46 53 46    pGuF..,..F..iFSF
    0x0081a0:   20 f0 07 00 85 46 18 b0 20 b5 ff f7 e3 ff bd e8     ....F.. .......
    0x0081b0:   20 40 4f f0 00 06 4f f0 00 07 4f f0 00 08 4f f0     @O...O...O...O.
    0x0081c0:   00 0b 21 f0 07 01 ac 46 ac e8 c0 09 ac e8 c0 09    ..!....F........
    0x0081d0:   ac e8 c0 09 ac e8 c0 09 8d 46 70 47 10 b5 04 46    .........FpG...F
    0x0081e0:   af f3 00 80 20 46 bd e8 10 40 ff f7 a2 bf 00 00    .... F...@......
    0x0081f0:   00 48 70 47 3c 01 00 10 01 49 18 20 ab be fe e7    .HpG<....I. ....
    0x008200:   26 00 02 00 70 47 00 00 0e 48 00 68 10 f0 01 0f    &...pG...H.h....
    0x008210:   18 bf 70 47 10 b5 00 f0 25 fb 0b 48 73 21 01 66    ..pG....%..Hs!.f
    0x008220:   41 6d 21 f0 70 01 41 f0 20 01 41 65 81 6a 21 f4    Am!.p.A. .Ae.j!.
    0x008230:   7f 41 41 f4 c0 51 81 62 00 21 01 66 bd e8 10 40    .AA..Q.b.!.f...@
    0x008240:   00 f0 86 bb 18 00 00 10 00 00 01 40 0c 48 00 68    ...........@.H.h
    0x008250:   10 f0 01 0f 18 bf 70 47 10 b5 00 f0 81 fb 09 48    ......pG.......H
    0x008260:   73 21 01 66 41 6d 21 f0 70 01 41 65 81 6a 21 f4    s!.fAm!.p.Ae.j!.
    0x008270:   7f 41 41 f4 80 51 81 62 00 21 01 66 10 bd 00 00    .AA..Q.b.!.f....
    0x008280:   18 00 00 10 00 00 01 40 00 f0 02 bb 10 b5 00 f0    .......@........
    0x008290:   1f fb 00 f0 7f fb 01 20 00 f0 35 fb 01 20 00 f0    ....... ..5.. ..
    0x0082a0:   ca f9 02 20 00 f0 c7 f9 00 f0 26 fb bd e8 10 40    ... ......&....@
    0x0082b0:   00 f0 06 bb 10 b5 01 20 00 f0 1a fa 04 48 00 68    ....... .....H.h
    0x0082c0:   40 1c 03 49 08 60 10 28 01 d3 00 20 08 60 10 bd    @..I.`.(... .`..
    0x0082d0:   00 00 00 10 70 b5 05 46 0e 46 00 24 04 e0 05 eb    ....p..F.F.$....
    0x0082e0:   c4 00 00 f0 1b f8 64 1c b4 42 f8 d3 70 bd f0 b5    ......d..B..p...
    0x0082f0:   07 46 0d 46 16 46 00 24 0d e0 01 20 a0 40 30 40    .F.F.F.$... .@0@
    0x008300:   20 b1 21 46 38 46 00 f0 43 f9 03 e0 21 46 38 46     .!F8F..C...!F8F
    0x008310:   00 f0 f2 f8 64 1c ac 42 ef d3 f0 bd 01 79 01 f0    ....d..B.....y..
    0x008320:   02 01 00 29 73 d0 00 bf 01 68 00 29 00 da 35 e0    ...)s....h.)..5.
    0x008330:   73 21 70 4a 11 66 01 78 01 f0 f8 01 02 eb 51 01    s!pJ.f.x......Q.
    0x008340:   09 6c 02 78 52 07 d3 0e 07 22 9a 40 91 43 02 78    .l.xR....".@.C.x
    0x008350:   52 07 d3 0e 02 22 9a 40 11 43 02 78 02 f0 f8 02    R....".@.C.x....
    0x008360:   64 4b 03 eb 52 02 11 64 01 78 01 f0 fc 01 1a 46    dK..R..d.x.....F
    0x008370:   89 58 02 78 92 07 d3 0e ff 22 9a 40 91 43 02 78    .X.x.....".@.C.x
    0x008380:   92 07 d3 0e 18 22 9a 40 11 43 02 78 02 f0 fc 02    .....".@.C.x....
    0x008390:   58 4b d1 50 00 21 1a 46 11 66 00 bf 00 bf 01 78    XK.P.!.F.f.....x
    0x0083a0:   01 f0 1f 02 01 21 91 40 02 78 02 f0 20 02 51 4b    .....!.@.x.. .QK
    0x0083b0:   03 eb d2 02 c2 f8 a8 10 01 79 01 f0 01 01 71 b1    .........y....q.
    0x0083c0:   01 78 01 f0 20 01 1a 46 02 eb d1 01 d1 f8 88 10    .x.. ..F........
    0x0083d0:   02 78 02 f0 1f 03 01 22 9a 40 11 43 0d e0 01 78    .x.....".@.C...x
    0x0083e0:   01 f0 20 01 43 4a 02 eb d1 01 d1 f8 88 10 02 78    .. .CJ.........x
    0x0083f0:   02 f0 1f 03 01 22 9a 40 91 43 02 78 02 f0 20 02    .....".@.C.x.. .
    0x008400:   3c 4b 03 eb d2 02 c2 f8 88 10 72 e0 ff e7 00 bf    <K........r.....
    0x008410:   01 68 00 29 00 da 35 e0 73 21 36 4a 11 66 01 78    .h.)..5.s!6J.f.x
    0x008420:   01 f0 f8 01 02 eb 51 01 09 6c 02 78 52 07 d3 0e    ......Q..l.xR...
    0x008430:   07 22 9a 40 91 43 02 78 52 07 d3 0e 06 22 9a 40    .".@.C.xR....".@
    0x008440:   11 43 02 78 02 f0 f8 02 2a 4b 03 eb 52 02 11 64    .C.x....*K..R..d
    0x008450:   01 78 01 f0 fc 01 1a 46 89 58 02 78 92 07 d3 0e    .x.....F.X.x....
    0x008460:   ff 22 9a 40 91 43 02 78 92 07 d3 0e 18 22 9a 40    .".@.C.x.....".@
    0x008470:   11 43 02 78 02 f0 fc 02 1e 4b d1 50 00 21 1a 46    .C.x.....K.P.!.F
    0x008480:   11 66 00 bf 00 bf 01 78 01 f0 1f 02 01 21 91 40    .f.....x.....!.@
    0x008490:   02 78 02 f0 20 02 17 4b 03 eb d2 02 c2 f8 b4 10    .x.. ..K........
    0x0084a0:   01 79 01 f0 01 01 71 b1 01 78 01 f0 20 01 1a 46    .y....q..x.. ..F
    0x0084b0:   02 eb d1 01 d1 f8 88 10 02 78 02 f0 1f 03 01 22    .........x....."
    0x0084c0:   9a 40 11 43 0d e0 01 78 01 f0 20 01 09 4a 02 eb    .@.C...x.. ..J..
    0x0084d0:   d1 01 d1 f8 88 10 02 78 02 f0 1f 03 01 22 9a 40    .......x.....".@
    0x0084e0:   91 43 02 78 02 f0 20 02 02 4b 03 eb d2 02 c2 f8    .C.x.. ..K......
    0x0084f0:   88 10 70 47 00 00 01 40 10 b5 00 eb c1 02 12 79    ..pG...@.......y
    0x008500:   02 f0 02 02 82 b3 00 eb c1 02 12 79 02 f0 01 02    ...........y....
    0x008510:   82 b9 10 f8 31 20 02 f0 20 02 1c 4b 03 eb d2 02    ....1 .. ..K....
    0x008520:   d2 f8 88 20 10 f8 31 30 03 f0 1f 04 01 23 a3 40    ... ..10.....#.@
    0x008530:   1a 43 0f e0 10 f8 31 20 02 f0 20 02 13 4b 03 eb    .C....1 .. ..K..
    0x008540:   d2 02 d2 f8 88 20 10 f8 31 30 03 f0 1f 04 01 23    ..... ..10.....#
    0x008550:   a3 40 9a 43 10 f8 31 30 03 f0 20 03 0b 4c 04 eb    .@.C..10.. ..L..
    0x008560:   d3 03 c3 f8 88 20 0f e0 ff e7 10 f8 31 20 02 f0    ..... ......1 ..
    0x008570:   1f 03 01 22 9a 40 10 f8 31 30 03 f0 20 03 03 4c    ...".@..10.. ..L
    0x008580:   04 eb d3 03 c3 f8 b4 20 10 bd 00 00 00 00 01 40    ....... .......@
    0x008590:   10 b5 00 eb c1 02 12 79 02 f0 02 02 82 b3 00 eb    .......y........
    0x0085a0:   c1 02 12 79 02 f0 01 02 82 b1 10 f8 31 20 02 f0    ...y........1 ..
    0x0085b0:   20 02 1c 4b 03 eb d2 02 d2 f8 88 20 10 f8 31 30     ..K....... ..10
    0x0085c0:   03 f0 1f 04 01 23 a3 40 1a 43 0f e0 10 f8 31 20    .....#.@.C....1 
    0x0085d0:   02 f0 20 02 13 4b 03 eb d2 02 d2 f8 88 20 10 f8    .. ..K....... ..
    0x0085e0:   31 30 03 f0 1f 04 01 23 a3 40 9a 43 10 f8 31 30    10.....#.@.C..10
    0x0085f0:   03 f0 20 03 0b 4c 04 eb d3 03 c3 f8 88 20 0f e0    .. ..L....... ..
    0x008600:   ff e7 10 f8 31 20 02 f0 1f 03 01 22 9a 40 10 f8    ....1 .....".@..
    0x008610:   31 30 03 f0 20 03 03 4c 04 eb d3 03 c3 f8 a8 20    10.. ..L....... 
    0x008620:   10 bd 00 00 00 00 01 40 4f f0 40 21 ca 68 22 ea    .......@O.@!.h".
    0x008630:   00 00 c8 60 70 47 4f f0 40 21 ca 68 10 43 c8 60    ...`pGO.@!.h.C.`
    0x008640:   70 47 00 00 4f f0 40 20 80 69 00 f0 07 00 08 28    pG..O.@ .i.....(
    0x008650:   15 d2 df e8 00 f0 04 06 08 0a 0c 0e 10 12 09 48    ...............H
    0x008660:   70 47 09 48 70 47 09 48 70 47 09 48 70 47 09 48    pG.HpG.HpG.HpG.H
    0x008670:   70 47 09 48 70 47 09 48 70 47 09 48 70 47 4f f0    pG.HpG.HpG.HpGO.
    0x008680:   ff 30 70 47 00 36 6e 01 00 1b b7 00 00 12 7a 00    .0pG.6n.......z.
    0x008690:   80 8d 5b 00 00 3e 49 00 00 09 3d 00 db 50 34 00    ..[..>I...=..P4.
    0x0086a0:   c0 c6 2d 00 4f f0 40 21 47 22 4a 61 88 61 00 20    ..-.O.@!G"Ja.a. 
    0x0086b0:   48 61 70 47 04 4a 02 eb 00 10 02 68 01 f0 08 21    HapG.J.....h...!
    0x0086c0:   11 43 01 60 70 47 00 00 0c 80 00 40 0b 89 4a 68    .C.`pG.....@..Jh
    0x0086d0:   09 68 42 ea 03 42 00 29 18 bf 4f f0 00 41 11 43    .hB..B.)..O..A.C
    0x0086e0:   02 4a 02 eb 00 10 01 60 70 47 00 00 0c 80 00 40    .J.....`pG.....@
    0x0086f0:   01 49 c1 f8 08 02 70 47 00 80 00 40 03 49 d1 f8    .I....pG...@.I..
    0x008700:   00 22 10 43 c1 f8 00 02 70 47 00 00 00 80 00 40    .".C....pG.....@
    0x008710:   df f8 68 c0 10 b4 0c eb 00 1c dc f8 00 c0 11 f5    ..h.............
    0x008720:   80 3f 08 bf 4f ea 1c 4c 0c f4 e0 7c bc f1 80 0f    .?..O..L...|....
    0x008730:   17 bf bc f1 c0 0f a2 eb 03 0c 94 46 00 22 10 4b    ...........F.".K
    0x008740:   10 4c 03 eb 00 13 04 eb 00 10 a1 f5 7f 44 ff 3c    .L...........D.<
    0x008750:   01 bf cc ea 02 40 18 60 10 bc 70 47 11 f5 80 3f    .....@.`..pG...?
    0x008760:   cc ea 02 41 06 d0 19 60 4f ea 1c 41 6f f3 0f 02    ...A...`O..Ao...
    0x008770:   c1 ea 02 01 01 60 10 bc 70 47 00 00 0c 80 00 40    .....`..pG.....@
    0x008780:   04 80 00 40 08 80 00 40 05 4a 02 eb 00 10 02 68    ...@...@.J.....h
    0x008790:   01 f0 08 23 9a 43 01 f0 01 11 11 43 01 60 70 47    ...#.C.....C.`pG
    0x0087a0:   0c 80 00 40 0f 28 0a d9 10 38 00 f0 1f 00 01 21    ...@.(...8.....!
    0x0087b0:   01 fa 00 f0 4f f0 e0 21 c1 f8 00 01 70 47 0b 49    ....O..!....pG.I
    0x0087c0:   04 28 0d d0 05 28 04 bf 08 68 40 f4 00 30 05 d0    .(...(...h@..0..
    0x0087d0:   06 28 06 bf 08 68 40 f4 80 20 70 47 08 60 70 47    .(...h@.. pG.`pG
    0x0087e0:   08 68 40 f4 80 30 08 60 70 47 00 00 24 ed 00 e0    .h@..0.`pG..$...
    0x0087f0:   10 b5 04 46 ff f7 26 ff 03 49 b0 fb f1 f0 60 43    ...F..&..I....`C
    0x008800:   bd e8 10 40 ff f7 b2 bc c0 c6 2d 00 0d 48 00 68    ...@......-..H.h
    0x008810:   10 f0 01 0f 18 bf 70 47 0b 48 01 68 41 f0 80 71    ......pG.H.hA..q
    0x008820:   01 60 01 68 11 f0 80 7f fb d0 09 49 07 48 08 60    .`.h.......I.H.`
    0x008830:   08 49 0f 20 08 60 48 17 07 49 08 60 08 49 07 48    .I. .`H..I.`.I.H
    0x008840:   08 60 70 47 18 00 00 10 fc ed 00 e0 55 ce ac c5    .`pG........U...
    0x008850:   b0 0f 00 e0 40 0e 00 e0 00 0e 00 e0 11 05 15 00    ....@...........
    0x008860:   80 0e 00 e0 10 b5 08 48 01 68 11 f4 00 0f fb d1    .......H.h......
    0x008870:   ff f7 e8 fe 05 49 bd e8 10 40 b0 fb f1 f0 32 21    .....I...@....2!
    0x008880:   48 43 ff f7 73 bc 00 00 80 0e 00 e0 c0 c6 2d 00    HC..s.........-.
    0x008890:   02 78 00 21 00 2a 08 bf 70 47 49 1c 42 5c 00 2a    .x.!.*..pGI.B\.*
    0x0088a0:   fb d1 00 29 08 bf 70 47 10 f8 01 cb 4f f0 60 42    ...)..pG....O.`B
    0x0088b0:   13 68 00 2b fc d0 82 f8 00 c0 49 1e f4 d1 70 47    .h.+......I...pG
    0x0088c0:   02 49 6f f0 01 00 c1 f8 fc 00 70 47 00 00 02 40    .Io.......pG...@
    0x0088d0:   08 48 01 69 41 f0 02 01 01 61 01 69 41 f0 01 01    .H.iA....a.iA...
    0x0088e0:   01 61 41 69 11 f0 02 0f fb d0 41 69 11 f0 01 0f    .aAi......Ai....
    0x0088f0:   fb d0 70 47 00 00 02 40 4f f0 40 20 01 6d 41 f0    ..pG...@O.@ .mA.
    0x008900:   10 01 01 65 70 47 4f f0 40 21 00 28 c8 68 14 bf    ...epGO.@!.(.h..
    0x008910:   40 f0 80 00 20 f0 80 00 c8 60 70 47 0a 49 60 b1    @... ....`pG.I`.
    0x008920:   0a 48 d0 f8 50 02 30 f0 01 00 08 68 0c bf 40 f0    .H..P.0....h..@.
    0x008930:   04 00 20 f0 04 00 08 60 03 e0 08 68 20 f0 04 00    .. ....`...h ...
    0x008940:   08 60 30 bf 70 47 00 00 10 ed 00 e0 00 00 02 40    .`0.pG.........@
    0x008950:   02 49 00 20 c1 f8 50 02 70 47 00 00 00 00 02 40    .I. ..P.pG.....@
    0x008960:   09 48 00 21 c0 f8 04 13 01 22 42 60 02 22 02 61    .H.!....."B`.".a
    0x008970:   c0 f8 f0 20 05 48 01 60 05 49 40 f2 01 20 c1 f8    ... .H.`.I@.. ..
    0x008980:   50 02 32 20 ff f7 34 bf 00 00 04 e0 00 0f 04 e0    P.2 ..4.........
    0x008990:   00 00 02 40 01 49 37 20 88 60 70 47 00 c0 00 40    ...@.I7 .`pG...@
    0x0089a0:   8c b0 04 46 00 25 0a 95 26 48 00 68 0a 90 0a 98    ...F.%..&H.h....
    0x0089b0:   c0 b2 8d f8 2c 00 0a 98 00 0a 8d f8 2d 00 0a 98    ....,.......-...
    0x0089c0:   4f f6 ff 71 01 ea 10 40 ad f8 2e 00 1d 48 10 30    O..q...@.....H.0
    0x0089d0:   00 68 09 90 9d f8 2d 00 00 f0 02 00 20 b1 21 46    .h....-..... .!F
    0x0089e0:   06 20 ff f7 b3 fb 01 e0 4f f0 ff 30 08 90 21 46    . ......O..0..!F
    0x0089f0:   00 20 ff f7 ab fb 00 90 21 46 01 20 ff f7 a6 fb    . ......!F. ....
    0x008a00:   01 90 21 46 02 20 ff f7 a1 fb 02 90 21 46 03 20    ..!F. ......!F. 
    0x008a10:   ff f7 9c fb 03 90 21 46 04 20 ff f7 97 fb 04 90    ......!F. ......
    0x008a20:   21 46 05 20 ff f7 92 fb 05 90 21 46 06 20 ff f7    !F. ......!F. ..
    0x008a30:   8d fb 06 90 21 46 07 20 ff f7 88 fb 07 90 00 bf    ....!F. ........
    0x008a40:   00 bf fe e7 28 ed 00 e0 0f b4 38 b5 05 a8 00 90    ....(.....8.....
    0x008a50:   07 48 00 9a 04 99 00 f0 31 f8 04 46 00 20 00 90    .H......1..F. ..
    0x008a60:   03 48 04 49 09 68 88 47 20 46 38 bc 5d f8 14 fb    .H.I.h.G F8.]...
    0x008a70:   3c 00 00 10 10 00 00 10 01 49 08 60 70 47 00 00    <........I.`pG..
    0x008a80:   10 00 00 10 10 b5 03 a0 ff f7 de ff 09 a0 ff f7    ................
    0x008a90:   db ff 10 bd 20 20 20 20 20 20 20 20 20 20 20 20    ....            
    0x008aa0:   20 20 20 20 20 20 20 20 20 20 20 20 20 20 20 20                    
    0x008ab0:   20 20 00 00 1b 5b 32 4a 1b 5b 48 00 2d e9 f7 4f      ...[2J.[H.-..O
    0x008ac0:   2d ed 02 8b 8a b0 04 46 0d 46 00 26 82 e1 06 20    -......F.F.&... 
    0x008ad0:   04 90 28 78 25 28 10 d0 64 b1 28 78 0a 28 06 d1    ..(x%(..d.(x.(..
    0x008ae0:   c2 48 00 78 18 b1 0d 20 04 f8 01 0b 76 1c 28 78    .H.x... ....v.(x
    0x008af0:   04 f8 01 0b 6d 1c 76 1c 6c e1 6d 1c 00 20 01 90    ....m.v.l.m.. ..
    0x008b00:   02 90 4f f0 20 0b 28 78 30 28 01 d1 83 46 6d 1c    ..O. .(x0(...Fm.
    0x008b10:   05 a9 28 46 00 f0 72 f9 82 46 05 98 05 44 28 78    ..(F..r..F...D(x
    0x008b20:   2e 28 07 d1 6d 1c 05 a9 28 46 00 f0 67 f9 04 90    .(..m...(F..g...
    0x008b30:   05 98 05 44 28 78 6c 28 06 d1 6d 1c 28 78 6c 28    ...D(xl(..m.(xl(
    0x008b40:   02 d1 6d 1c 01 20 01 90 28 78 66 28 78 d0 08 dc    ..m.. ..(xf(x...
    0x008b50:   46 28 76 d0 58 28 31 d0 63 28 0b d0 64 28 71 d1    F(v.X(1.c(..d(q.
    0x008b60:   97 e0 69 28 6f d0 73 28 10 d0 75 28 5a d0 78 28    ..i(o.s(..u(Z.x(
    0x008b70:   f5 d1 20 e0 0e 98 10 f8 04 1b 0e 90 c8 b2 03 90    .. .............
    0x008b80:   14 b1 03 98 04 f8 01 0b 76 1c 20 e1 0e 98 00 68    ........v. ....h
    0x008b90:   08 90 0e 98 00 1d 0e 90 08 e0 1c b1 08 98 00 78    ...............x
    0x008ba0:   04 f8 01 0b 08 98 40 1c 08 90 76 1c 08 98 00 78    ......@...v....x
    0x008bb0:   00 28 f2 d1 0b e1 01 20 02 90 00 bf 01 98 58 b1    .(..... ......X.
    0x008bc0:   0e 98 c0 1d 20 f0 07 00 01 46 0e 90 00 68 49 68    .... ....F...hIh
    0x008bd0:   0e 9a 08 32 0e 92 05 e0 0e 98 00 68 0e 99 09 1d    ...2.......h....
    0x008be0:   0e 91 00 21 07 46 88 46 ba f1 00 0f 0f d0 38 46    ...!.F.F......8F
    0x008bf0:   41 46 00 f0 81 fa aa eb 00 0a 03 e0 0c b1 04 f8    AF..............
    0x008c00:   01 bb 76 1c ba f1 00 00 aa f1 01 0a f6 dc 22 46    ..v..........."F
    0x008c10:   38 46 41 46 02 9b 00 f0 d5 fa 81 46 04 b1 4c 44    8FAF.......F..LD
    0x008c20:   4e 44 d4 e0 01 98 78 b1 0e 98 c0 1d 20 f0 07 00    ND....x..... ...
    0x008c30:   01 46 0e 90 00 68 49 68 0e 9a 08 32 0e 92 09 e0    .F...hIh...2....
    0x008c40:   8c e0 8c e0 bd e0 25 e0 0e 98 00 68 0e 99 09 1d    ......%....h....
    0x008c50:   0e 91 00 21 07 46 88 46 ba f1 00 0f 0f d0 38 46    ...!.F.F......8F
    0x008c60:   41 46 00 f0 75 fa aa eb 00 0a 03 e0 0c b1 04 f8    AF..u...........
    0x008c70:   01 bb 76 1c ba f1 00 00 aa f1 01 0a f6 dc 22 46    ..v..........."F
    0x008c80:   38 46 41 46 00 f0 e3 fa 81 46 04 b1 4c 44 4e 44    8FAF.....F..LDND
    0x008c90:   9d e0 00 bf 01 98 58 b1 0e 98 c0 1d 20 f0 07 00    ......X..... ...
    0x008ca0:   01 46 0e 90 00 68 49 68 0e 9a 08 32 0e 92 05 e0    .F...hIh...2....
    0x008cb0:   0e 98 00 68 0e 99 09 1d 0e 91 c1 17 cd e9 06 01    ...h............
    0x008cc0:   00 23 dd e9 06 01 c0 1a 99 41 08 da 00 22 dd e9    .#.......A..."..
    0x008cd0:   06 10 4f 42 62 eb 00 08 01 20 00 90 03 e0 dd e9    ..OBb.... ......
    0x008ce0:   06 78 00 20 00 90 ba f1 00 0f 26 d0 38 46 41 46    .x. ......&.8FAF
    0x008cf0:   00 f0 1c fa aa eb 00 0a 00 98 48 b1 aa f1 01 0a    ..........H.....
    0x008d00:   bb f1 30 0f 04 d1 14 b1 2d 20 04 f8 01 0b 76 1c    ..0.....- ....v.
    0x008d10:   03 e0 0c b1 04 f8 01 bb 76 1c ba f1 00 00 aa f1    ........v.......
    0x008d20:   01 0a f6 dc 00 98 78 b1 bb f1 20 0f 0c d1 14 b1    ......x... .....
    0x008d30:   2d 20 04 f8 01 0b 76 1c 06 e0 00 98 20 b1 14 b1    - ....v..... ...
    0x008d40:   2d 20 04 f8 01 0b 76 1c 22 46 38 46 41 46 00 f0    - ....v."F8FAF..
    0x008d50:   7e fa 81 46 04 b1 4c 44 4e 44 38 e0 00 bf 7c b3    ~..F..LDND8...|.
    0x008d60:   0e 98 c0 1d 20 f0 07 00 0e 90 b0 ec 02 1b b0 ee    .... ...........
    0x008d70:   41 0a f0 ee 61 0a 0e 90 51 ec 10 0b 00 f0 a0 fa    A...a...Q.......
    0x008d80:   08 ee 10 0a 14 20 20 60 20 46 b0 ee 48 0a 04 99    .....  ` F..H...
    0x008d90:   00 f0 b0 f8 81 46 b9 f1 00 0f 0e da 09 f1 01 01    .....F..........
    0x008da0:   09 b9 13 48 05 e0 09 f1 02 01 09 b9 11 48 00 e0    ...H.........H..
    0x008db0:   11 48 20 60 4f f0 03 09 00 bf 4e 44 4c 44 00 bf    .H `O.....NDLD..
    0x008dc0:   05 e0 14 b1 28 78 04 f8 01 0b 76 1c 00 bf 00 bf    ....(x....v.....
    0x008dd0:   6d 1c 00 bf 28 78 00 28 7f f4 79 ae 04 b1 20 70    m...(x.(..y... p
    0x008de0:   30 46 0a b0 bd ec 02 8b bd e8 fe 8f 14 00 00 10    0F..............
    0x008df0:   30 2e 30 00 23 2e 23 00 3f 2e 3f 00 10 b5 02 46    0.0.#.#.?.?....F
    0x008e00:   00 20 00 23 07 e0 5b 1c 00 eb 80 04 60 00 14 78    . .#..[.....`..x
    0x008e10:   30 3c 20 44 52 1c 14 78 30 2c 02 db 14 78 39 2c    0< DR..x0,...x9,
    0x008e20:   f1 dd 01 b1 0b 60 10 bd 2d e9 f0 4f 04 46 0d 46    .....`..-..O.F.F
    0x008e30:   00 20 85 ea 00 01 40 40 01 43 44 d0 5f ea 55 0a    . ....@@.CD._.U.
    0x008e40:   4f ea 34 01 4f ea 94 0b 4b ea 85 70 0a 18 4a eb    O.4.O...K..p..J.
    0x008e50:   95 03 4f ea 12 10 40 ea 03 7a 1a eb 02 02 43 eb    ..O...@..z....C.
    0x008e60:   13 13 4f ea 12 20 40 ea 03 6a 1a eb 02 02 43 eb    ..O.. @..j....C.
    0x008e70:   13 23 4f ea 12 40 40 ea 03 4a 1a eb 02 02 43 eb    .#O..@@..J....C.
    0x008e80:   13 43 9a 18 43 f1 00 03 d0 08 40 ea 43 72 db 08    .C..C.....@.Cr..
    0x008e90:   0a 21 4f f0 00 0a a2 fb 01 0b 03 fb 01 b1 02 fb    .!O.............
    0x008ea0:   0a 11 26 1a 65 eb 01 07 06 21 16 eb 01 0a 47 f1    ..&.e....!....G.
    0x008eb0:   00 01 4f ea 1a 10 40 ea 01 7a 1a eb 02 00 43 eb    ..O...@..z....C.
    0x008ec0:   11 11 bd e8 f0 8f a0 46 4f ea 58 00 00 eb 98 0c    .......FO.X.....
    0x008ed0:   0c eb 1c 1c 0c eb 1c 2c 0c eb 1c 4c 4f ea dc 0c    .......,...LO...
    0x008ee0:   0c eb 8c 00 a8 eb 40 09 09 f1 06 00 0c eb 10 10    ......@.........
    0x008ef0:   00 21 e6 e7 2d e9 f0 4f 2d ed 02 8b 81 b0 b0 ee    .!..-..O-.......
    0x008f00:   40 8a 04 46 8a 46 d4 f8 00 b0 bb f1 04 0f 06 da    @..F.F..........
    0x008f10:   6f f0 02 00 01 b0 bd ec 02 8b bd e8 f0 8f b5 ee    o...............
    0x008f20:   c0 8a f1 ee 10 fa 03 d1 46 48 20 60 03 20 f1 e7    ........FH `. ..
    0x008f30:   a1 46 8d ed 00 8a 00 98 c0 f3 c7 50 a0 f1 7f 05    .F.........P....
    0x008f40:   00 98 20 f0 7f 40 40 f4 00 07 4f f0 00 08 00 26    .. ..@@...O....&
    0x008f50:   1f 2d 01 db b0 1e dd e7 15 f1 17 0f 02 da 4f f0    .-............O.
    0x008f60:   ff 30 d7 e7 17 2d 04 db a5 f1 17 00 07 fa 00 f6    .0...-..........
    0x008f70:   11 e0 00 2d 09 db c5 f1 17 00 47 fa 00 f6 68 1c    ...-......G...h.
    0x008f80:   07 fa 00 f0 20 f0 7f 48 05 e0 27 f0 7f 40 69 1c    .... ..H..'..@i.
    0x008f90:   49 42 40 fa 01 f8 00 98 00 28 02 da 2d 20 04 f8    IB@......(..- ..
    0x008fa0:   01 0b 1e b9 30 20 04 f8 01 0b 14 e0 00 2e 05 dd    ....0 ..........
    0x008fb0:   22 46 30 46 f1 17 00 f0 4a f9 07 e0 2d 20 04 f8    "F0F....J...- ..
    0x008fc0:   01 0b 22 46 70 42 c1 17 00 f0 41 f9 00 e0 64 1c    .."FpB....A...d.
    0x008fd0:   20 78 00 28 fb d1 2e 20 04 f8 01 0b b8 f1 00 0f     x.(... ........
    0x008fe0:   03 d1 30 20 04 f8 01 0b 26 e0 a4 eb 09 02 ab eb    ..0 ....&.......
    0x008ff0:   02 02 51 1e 51 45 01 dd 52 46 00 e0 0a 46 11 46    ..Q.QE..RF...F.F
    0x009000:   00 20 0b e0 08 eb 88 02 4f ea 42 08 30 22 02 eb    . ......O.B.0"..
    0x009010:   28 62 04 f8 01 2b 28 f0 7f 48 40 1c 88 42 f1 db    (b...+(..H@..B..
    0x009020:   64 1e 00 e0 64 1e 22 78 30 2a 03 d1 14 f8 01 2c    d...d."x0*.....,
    0x009030:   2e 2a f7 d1 64 1c 00 bf 00 20 20 70 a4 eb 09 00    .*..d....  p....
    0x009040:   68 e7 00 00 30 2e 30 00 00 20 ff f7 2b fb ff f7    h...0.0.. ..+...
    0x009050:   1d f9 1f 48 ff f7 10 fd 00 bf 73 20 1d 49 08 66    ...H......s .I.f
    0x009060:   08 46 40 6d 20 f0 70 00 48 65 08 46 80 6a 20 f4    .F@m .p.He.F.j .
    0x009070:   7f 40 40 f4 80 50 88 62 00 20 08 66 00 bf 04 21    .@@..P.b. .f...!
    0x009080:   15 48 ff f7 27 f9 ff f7 c1 fb ff f7 df f8 ff f7    .H..'...........
    0x009090:   f9 fc 12 a0 ff f7 d8 fc 00 f0 78 f8 01 20 ff f7    ..........x.. ..
    0x0090a0:   2d fb 1a 20 ff f7 7e fb ff f7 54 f8 4f f6 ff 71    -.. ..~...T.O..q
    0x0090b0:   00 20 ff f7 69 fb ff f7 a7 f8 08 e0 01 20 ff f7    . ..i........ ..
    0x0090c0:   2d fc 0c 48 02 68 04 21 03 48 ff f7 10 f9 f5 e7    -..H.h.!.H......
    0x0090d0:   89 42 00 00 00 00 01 40 1c 00 00 10 42 69 6e 61    .B.....@....Bina
    0x0090e0:   72 79 20 43 6f 75 6e 74 65 72 20 45 78 61 6d 70    ry Counter Examp
    0x0090f0:   6c 65 0a 00 00 00 00 10 30 b5 02 46 0b 46 00 24    le......0..F.F.$
    0x009100:   82 ea 04 01 5c 40 21 43 01 d1 01 21 00 e0 00 21    ....\@!C...!...!
    0x009110:   08 46 04 e0 11 09 41 ea 03 72 1b 09 40 1c 00 24    .F....A..r..@..$
    0x009120:   82 ea 04 01 5c 40 21 43 f4 d1 30 bd 70 b5 04 46    ....\@!C..0.p..F
    0x009130:   0d 46 00 21 08 46 61 1a 75 eb 00 00 03 da 00 22    .F.!.Fa.u......"
    0x009140:   64 42 62 eb 05 05 20 46 29 46 00 f0 01 f8 70 bd    dBb... F)F....p.
    0x009150:   70 b5 04 46 0d 46 00 21 84 ea 01 00 69 40 08 43    p..F.F.!....i@.C
    0x009160:   01 d1 01 20 00 e0 00 20 06 46 06 e0 20 46 29 46    ... ... .F.. F)F
    0x009170:   ff f7 5a fe 04 46 0d 46 76 1c 00 21 84 ea 01 00    ..Z..F.Fv..!....
    0x009180:   69 40 08 43 f2 d1 30 46 70 bd 00 00 10 b5 02 20    i@.C..0Fp...... 
    0x009190:   ff f7 4a fa 4f f6 ff 71 00 20 ff f7 8b fa 08 49    ..J.O..q. .....I
    0x0091a0:   00 20 ff f7 93 fa 08 24 63 08 22 46 4f f6 ff 71    . .....$c."FO..q
    0x0091b0:   00 20 ff f7 ad fa 01 20 ff f7 9a fa 10 bd 00 00    . ..... ........
    0x0091c0:   04 00 00 10 2d e9 f0 41 85 b0 04 46 0d 46 1e 46    ....-..A...F.F.F
    0x0091d0:   00 21 8c 46 84 ea 0c 07 85 ea 0c 0c 57 ea 0c 07    .!.F........W...
    0x0091e0:   05 d1 4f f0 30 08 0f 46 49 1c 0d f8 07 80 16 e0    ..O.0..FI.......
    0x0091f0:   0f 27 27 40 fb b2 09 2b 05 dd 0e b1 27 27 00 e0    .''@...+....''..
    0x009200:   07 27 1f 44 fb b2 03 f1 30 07 07 f0 ff 08 0f 46    .'.D....0......F
    0x009210:   49 1c 0d f8 07 80 27 09 47 ea 05 74 2d 09 4f f0    I.....'.G..t-.O.
    0x009220:   00 0c 84 ea 0c 07 85 ea 0c 0c 57 ea 0c 07 df d1    ..........W.....
    0x009230:   08 46 4a b1 03 e0 1d f8 01 70 02 f8 01 7b 0f 1e    .FJ......p...{..
    0x009240:   a1 f1 01 01 f7 d1 17 70 05 b0 bd e8 f0 81 2d e9    .......p......-.
    0x009250:   f0 4f 87 b0 07 46 88 46 16 46 4f f0 00 09 cb 46    .O...F.F.FO....F
    0x009260:   00 bf 38 46 41 46 ff f7 df fd 04 46 0d 46 0a 21    ..8FAF.....F.F.!
    0x009270:   a4 fb 01 01 b7 eb 00 0a 0a f1 30 00 c2 b2 48 46    ..........0...HF
    0x009280:   09 f1 01 09 0d f8 00 20 27 46 a8 46 4f f0 00 02    ....... 'F.FO...
    0x009290:   87 ea 02 00 88 ea 02 01 08 43 e2 d1 cb 46 56 b1    .........C...FV.
    0x0092a0:   03 e0 1d f8 09 00 06 f8 01 0b b9 f1 00 00 a9 f1    ................
    0x0092b0:   01 09 f6 d1 30 70 58 46 07 b0 bd e8 f0 8f 00 00    ....0pXF........
    0x0092c0:   21 f0 00 42 a2 f1 60 52 b2 f5 80 1f 01 f0 00 43    !..B..`R.......C
    0x0092d0:   28 bf d2 f1 7f 6c 0b d9 5f ea 00 1c 43 ea c2 02    (....l.._...C...
    0x0092e0:   42 eb 50 70 18 bf 70 47 28 bf 20 f0 01 00 70 47    B.Pp..pG(. ...pG
    0x0092f0:   b2 f5 80 1f bc bf 18 46 70 47 4f ea 41 0c 1c f5    .......FpGO.A...
    0x009300:   00 1f 02 d2 08 46 00 f0 5f b8 70 b5 00 f0 09 f8    .....F.._.p.....
    0x009310:   00 00 00 89 ff f7 f6 bf 4f f0 00 40 a0 f5 80 00    ........O..@....
    0x009320:   70 47 0e f1 02 0e 2e f0 03 0e 5e f8 04 6b 36 42    pG........^..k6B
    0x009330:   05 d4 01 2a 43 eb 03 05 15 f5 00 1f 12 d8 01 28    ...*C..........(
    0x009340:   41 eb 01 0c 1c f5 00 1f 0c d8 0e d1 4f ea d1 7c    A...........O..|
    0x009350:   15 f5 00 1f 0c eb 4c 0c 0c f1 02 0c 08 bf 4c eb    ......L.......L.
    0x009360:   d3 7c 04 e0 4f f0 08 0c 01 e0 4f ea d3 7c 0c eb    .|..O.....O..|..
    0x009370:   4c 05 26 fa 05 f6 06 f0 07 06 b6 f1 04 0c 06 d2    L.&.............
    0x009380:   0e eb 86 0c bd e8 70 40 4c f0 01 0c 60 47 df e8    ......p@L...`G..
    0x009390:   0c f0 09 0b 02 02 4f f0 00 41 4f f0 00 00 a1 f5    ......O..AO.....
    0x0093a0:   00 21 70 bd 19 46 10 46 01 28 51 eb 01 04 18 bf    .!p..F.F.(Q.....
    0x0093b0:   d4 f5 00 14 84 bf 00 20 01 f0 00 41 70 bd 4f f0    ....... ...Ap.O.
    0x0093c0:   40 70 e1 ee 10 0a 70 47 ff 21 41 ea d0 50 c0 05    @p....pG.!A..P..
    0x0093d0:   70 47 00 00 f4 53 00 00 00 00 00 10 3c 00 00 00    pG...S......<...
    0x0093e0:   dc 40 00 00 30 54 00 00 3c 00 00 10 64 03 00 00    .@..0T..<...d...
    0x0093f0:   f8 40 00 00 00 00 00 00 00 00 00 00 56 02 00 00    .@..........V...
    0x009400:   00 00 00 00 00 00 00 00 00 00 00 00 00 00 00 00    ................
    0x009410:   2b 00 00 00 00 00 00 00 2c 00 00 00 00 00 00 00    +.......,.......
    0x009420:   2d 00 00 00 00 00 00 00 2f 00 00 00 00 00 00 00    -......./.......


** Section #5 '.debug_abbrev' (SHT_PROGBITS)
    Size   : 1476 bytes


** Section #6 '.debug_frame' (SHT_PROGBITS)
    Size   : 2848 bytes


** Section #7 '.debug_info' (SHT_PROGBITS)
    Size   : 15900 bytes


** Section #8 '.debug_line' (SHT_PROGBITS)
    Size   : 6588 bytes


** Section #9 '.debug_loc' (SHT_PROGBITS)
    Size   : 2020 bytes


** Section #10 '.debug_macinfo' (SHT_PROGBITS)
    Size   : 10148 bytes


** Section #11 '.debug_pubnames' (SHT_PROGBITS)
    Size   : 1518 bytes


** Section #12 '.symtab' (SHT_SYMTAB)
    Size   : 8400 bytes (alignment 4)
    String table #13 '.strtab'
    Last local symbol no. 331

    Symbol table .symtab (524 symbols, 331 local)

      #  Symbol Name                Value      Bind  Sec  Type  Vis  Size
    ========================================================================

      1  $d                         0x00000000   Lc    1   --   De 
      2  $t                         0x00000070   Lc    1   --   De 
      3  $d                         0x0000009a   Lc    1   --   De 
      4  $t                         0x000000a0   Lc    1   --   De 
      5  $d                         0x000000d4   Lc    1   --   De 
      6  $t                         0x000000dc   Lc    1   --   De 
      7  $d                         0x0000017e   Lc    1   --   De 
      8  $t                         0x0000018c   Lc    1   --   De 
      9  $d                         0x00000258   Lc    1   --   De 
     10  $t                         0x0000025c   Lc    1   --   De 
     11  $d                         0x00000264   Lc    1   --   De 
     12  $t                         0x00000268   Lc    1   --   De 
     13  $d                         0x00000302   Lc    1   --   De 
     14  $t                         0x00000308   Lc    1   --   De 
     15  $d                         0x00000338   Lc    1   --   De 
     16  $t                         0x0000033c   Lc    1   --   De 
     17  $d                         0x00000570   Lc    1   --   De 
     18  $t                         0x00000574   Lc    1   --   De 
     19  $d                         0x0000060c   Lc    1   --   De 
     20  $t                         0x00000610   Lc    1   --   De 
     21  $d                         0x000006f2   Lc    1   --   De 
     22  $t                         0x000006fc   Lc    1   --   De 
     23  $d                         0x0000071a   Lc    1   --   De 
     24  $t                         0x00000722   Lc    1   --   De 
     25  $d                         0x00000748   Lc    1   --   De 
     26  $t                         0x00000768   Lc    1   --   De 
     27  $d                         0x0000077e   Lc    1   --   De 
     28  $t                         0x00000784   Lc    1   --   De 
     29  $d                         0x0000078e   Lc    1   --   De 
     30  $t                         0x00000794   Lc    1   --   De 
     31  $d                         0x000007a0   Lc    1   --   De 
     32  $t                         0x000007a4   Lc    1   --   De 
     33  $d                         0x000007c0   Lc    1   --   De 
     34  $t                         0x000007c4   Lc    1   --   De 
     35  $d                         0x000007dc   Lc    1   --   De 
     36  $t                         0x000007e0   Lc    1   --   De 
     37  $d                         0x00000826   Lc    1   --   De 
     38  $t                         0x0000082c   Lc    1   --   De 
     39  $d                         0x000008e4   Lc    1   --   De 
     40  $t                         0x000008e8   Lc    1   --   De 
     41  $d                         0x00000976   Lc    1   --   De 
     42  $t                         0x00000980   Lc    1   --   De 
     43  $d                         0x000009bc   Lc    1   --   De 
     44  $t                         0x000009c0   Lc    1   --   De 
     45  $d                         0x000009e4   Lc    1   --   De 
     46  $t                         0x000009e8   Lc    1   --   De 
     47  $d                         0x00000a42   Lc    1   --   De 
     48  $t                         0x00000a48   Lc    1   --   De 
     49  $d                         0x00000a68   Lc    1   --   De 
     50  $t                         0x00000a6c   Lc    1   --   De 
     51  $d                         0x00000aba   Lc    1   --   De 
     52  $t                         0x00000ac0   Lc    1   --   De 
     53  $d                         0x00000ad0   Lc    1   --   De 
     54  $t                         0x00000ad4   Lc    1   --   De 
     55  $d                         0x00000ae2   Lc    1   --   De 
     56  $t                         0x00000ae8   Lc    1   --   De 
     57  $d                         0x00000af6   Lc    1   --   De 
     58  $t                         0x00000afc   Lc    1   --   De 
     59  $d                         0x00000b02   Lc    1   --   De 
     60  $t                         0x00000b08   Lc    1   --   De 
     61  $d                         0x00000b12   Lc    1   --   De 
     62  $t                         0x00000b18   Lc    1   --   De 
     63  $d                         0x00000b24   Lc    1   --   De 
     64  $t                         0x00000b28   Lc    1   --   De 
     65  $d                         0x00000b30   Lc    1   --   De 
     66  $t                         0x00000b34   Lc    1   --   De 
     67  $d                         0x00000b66   Lc    1   --   De 
     68  $t                         0x00000b70   Lc    1   --   De 
     69  $d                         0x00000c34   Lc    1   --   De 
     70  $t                         0x00000c58   Lc    1   --   De 
     71  $d                         0x00000cea   Lc    1   --   De 
     72  $t                         0x00000cf0   Lc    1   --   De 
     73  $d                         0x00000d52   Lc    1   --   De 
     74  $t                         0x00000d5a   Lc    1   --   De 
     75  $d                         0x00000e58   Lc    1   --   De 
     76  $t                         0x00000ea4   Lc    1   --   De 
     77  $d                         0x00000f78   Lc    1   --   De 
     78  $t                         0x00000f7c   Lc    1   --   De 
     79  $d                         0x00001028   Lc    1   --   De 
     80  $t                         0x00001030   Lc    1   --   De 
     81  $d                         0x000010f2   Lc    1   --   De 
     82  $t                         0x00001118   Lc    1   --   De 
     83  $d                         0x000011f0   Lc    1   --   De 
     84  $t                         0x00001214   Lc    1   --   De 
     85  $d                         0x00001258   Lc    1   --   De 
     86  $t                         0x00001268   Lc    1   --   De 
     87  $d                         0x000012a4   Lc    1   --   De 
     88  $t                         0x000012b0   Lc    1   --   De 
     89  $d                         0x000013f4   Lc    1   --   De 
     90  $t                         0x0000140c   Lc    1   --   De 
     91  $d                         0x00001420   Lc    1   --   De 
     92  $t                         0x00001424   Lc    1   --   De 
     93  $d                         0x000015b8   Lc    1   --   De 
     94  $t                         0x000015c4   Lc    1   --   De 
     95  $d                         0x00001674   Lc    1   --   De 
     96  $t                         0x00001698   Lc    1   --   De 
     97  $d.realdata                0x000016a4   Lc    1   --   De 
     98  $d.realdata                0x10000000   Lc    2   --   De 
     99  $d.realdata                0x00008000   Lc    4   --   De 
    100  ../src/ios_boot_handlers.c 0x00000000   Lc  Abs  File  De 
    101  i.am_ioslave_acc_isr       0x00000b34   Lc    1  Sect  De 
    102  i.am_ioslave_ios_isr       0x00000c58   Lc    1  Sect  De 
    103  i.cleanup_ios_interface    0x00000ec0   Lc    1  Sect  De 
    104  i.image_data_packet_read   0x00001030   Lc    1  Sect  De 
    105  image_data_packet_read     0x00001031   Lc    1  Code  De   0xc2
    106  i.image_start_packet_read  0x00001214   Lc    1  Sect  De 
    107  image_start_packet_read    0x00001215   Lc    1  Code  De   0x44
    108  i.setup_ios_interface      0x00001424   Lc    1  Sect  De 
    109  .data                      0x10000000   Lc    2  Sect  De   0x1c
    110  g_sIOSConfig               0x10000004   Lc    2  Data  De   0x18
    111  ../src/multi_boot.c        0x00000000   Lc  Abs  File  De 
    112  i.am_gpio_isr              0x00000638   Lc    1  Sect  De 
    113  i.main                     0x000012b0   Lc    1  Sect  De 
    114  .bss                       0x100000a4   Lc    3  Sect  De   0x828
    115  .data                      0x1000001c   Lc    2  Sect  De   0x24
    116  ../src/uart_boot_handlers.c
                                    0x00000000   Lc  Abs  File  De 
    117  i.am_uart_isr              0x00000c70   Lc    1  Sect  De 
    118  i.image_data_packet_read   0x00001118   Lc    1  Sect  De 
    119  image_data_packet_read     0x00001119   Lc    1  Code  De   0xd8
    120  i.image_start_packet_read  0x00001268   Lc    1  Sect  De 
    121  image_start_packet_read    0x00001269   Lc    1  Code  De   0x3c
    122  i.ser_out                  0x0000140c   Lc    1  Sect  De 
    123  i.setup_serial             0x000015c4   Lc    1  Sect  De 
    124  .bss                       0x100008cc   Lc    3  Sect  De   0x100
    125  .data                      0x10000040   Lc    2  Sect  De   0x2a
    126  ..\src\image_boot_handlers.c
                                    0x00000000   Lc  Abs  File  De 
    127  i.flash_load_from_image    0x00000f7c   Lc    1  Sect  De 
    128  .bss                       0x100009cc   Lc    3  Sect  De   0x800
    129  ..\..\..\..\..\utils\am_util_delay.c
                                    0x00000000   Lc  Abs  File  De 
    130  .emb_text                  0x00000140   Lc    1  Sect  De   0x6
    131  $v0                        0x00000140   Lc    1   --   De 
    132  ../../../../../utils/am_util_delay.c
                                    0x00000000   Lc  Abs  File  De 
    133  i.am_util_delay_ms         0x00000ea4   Lc    1  Sect  De 
    134  ../../../../../utils/am_util_stdio.c
                                    0x00000000   Lc  Abs  File  De 
    135  ..\..\..\..\..\bootloader\am_bootloader.c
                                    0x00000000   Lc  Abs  File  De 
    136  .emb_text                  0x00000148   Lc    1  Sect  De   0x14
    137  $v0                        0x00000148   Lc    1   --   De 
    138  ../../../../../bootloader/am_bootloader.c
                                    0x00000000   Lc  Abs  File  De 
    139  i.am_bootloader_boot_from_storage
                                    0x0000026a   Lc    1  Sect  De 
    140  i.am_bootloader_fast_crc32 0x000002dc   Lc    1  Sect  De 
    141  i.am_bootloader_flag_page_update
                                    0x00000308   Lc    1  Sect  De 
    142  i.am_bootloader_flash_check
                                    0x0000033c   Lc    1  Sect  De 
    143  i.am_bootloader_image_check
                                    0x0000039c   Lc    1  Sect  De 
    144  i.am_bootloader_new_image_check
                                    0x00000574   Lc    1  Sect  De 
    145  i.am_bootloader_partial_crc32
                                    0x000005e4   Lc    1  Sect  De 
    146  .constdata                 0x000016a4   Lc    1  Sect  De   0x400
    147  g_pui32CRC32Table          0x000016a4   Lc    1  Data  De   0x400
    148  ../keil/startup_keil.s     0x00000000   Lc  Abs  File  De 
    149  STACK                      0x10001240   Lc    3  Sect  De   0x200
    150  StackMem                   0x10001240   Lc    3  Data  De 
    151  HEAP                       0x10001240   Lc    3  Sect  De 
    152  HeapMem                    0x10001240   Lc    3  Data  De 
    153  RESET                      0x00000000   Lc    1  Sect  De   0xa0
    154  $v0                        0x00000070   Lc    1   --   De 
    155  .text                      0x00000174   Lc    1  Sect  De   0x18
    156  $v0                        0x00000174   Lc    1   --   De 
    157  ..\src\binary_counter_0x4000_up.c
                                    0x00000000   Lc  Abs  File  De 
    158  .ARM.__at_0x8000           0x00008000   Lc    4  Sect  De   0x1430
    159  __tagsym$$used             0x00008000   Lc    4   --   De 
    160  ..\src\binary_counter_0x8000_down.c
                                    0x00000000   Lc  Abs  File  De 
    161  ../am_hal_global.c         0x00000000   Lc  Abs  File  De 
    162  .data                      0x1000006c   Lc    2  Sect  De   0x4
    163  ../am_hal_clkgen.c         0x00000000   Lc  Abs  File  De 
    164  i.am_hal_clkgen_osc_stop   0x000006fc   Lc    1  Sect  De 
    165  i.am_hal_clkgen_sysclk_get 0x00000708   Lc    1  Sect  De 
    166  i.am_hal_clkgen_sysclk_select
                                    0x00000768   Lc    1  Sect  De 
    167  ../am_hal_flash.c          0x00000000   Lc  Abs  File  De 
    168  i.am_hal_flash_page_erase  0x00000778   Lc    1  Sect  De 
    169  i.am_hal_flash_program_main
                                    0x00000784   Lc    1  Sect  De 
    170  .data                      0x10000070   Lc    2  Sect  De   0x28
    171  ../am_hal_gpio.c           0x00000000   Lc  Abs  File  De 
    172  i.am_hal_gpio_int_clear    0x00000794   Lc    1  Sect  De 
    173  i.am_hal_gpio_int_disable  0x000007a4   Lc    1  Sect  De 
    174  i.am_hal_gpio_int_enable   0x000007c4   Lc    1  Sect  De 
    175  ..\am_hal_interrupt.c      0x00000000   Lc  Abs  File  De 
    176  .emb_text                  0x0000015c   Lc    1  Sect  De   0x16
    177  $v0                        0x0000015c   Lc    1   --   De 
    178  ../am_hal_interrupt.c      0x00000000   Lc  Abs  File  De 
    179  i.am_hal_interrupt_enable  0x000007e0   Lc    1  Sect  De 
    180  ../am_hal_ios.c            0x00000000   Lc  Abs  File  De 
    181  i.am_hal_ios_access_int_clear
                                    0x0000082c   Lc    1  Sect  De 
    182  i.am_hal_ios_access_int_enable
                                    0x00000836   Lc    1  Sect  De 
    183  i.am_hal_ios_access_int_status_get
                                    0x00000846   Lc    1  Sect  De 
    184  i.am_hal_ios_config        0x0000085c   Lc    1  Sect  De 
    185  i.am_hal_ios_fifo_service  0x000008e8   Lc    1  Sect  De 
    186  i.am_hal_ios_int_clear     0x00000980   Lc    1  Sect  De 
    187  i.am_hal_ios_int_enable    0x0000098a   Lc    1  Sect  De 
    188  i.am_hal_ios_int_status_get
                                    0x0000099a   Lc    1  Sect  De 
    189  .bss                       0x100011cc   Lc    3  Sect  De   0x14
    190  .constdata                 0x00001aa4   Lc    1  Sect  De   0x4
    191  .data                      0x10000098   Lc    2  Sect  De   0xc
    192  ../am_hal_reset.c          0x00000000   Lc  Abs  File  De 
    193  i.am_hal_reset_poi         0x000009e8   Lc    1  Sect  De 
    194  ../am_hal_systick.c        0x00000000   Lc  Abs  File  De 
    195  i.am_hal_systick_count     0x00000a16   Lc    1  Sect  De 
    196  i.am_hal_systick_load      0x00000a1e   Lc    1  Sect  De 
    197  i.am_hal_systick_start     0x00000a26   Lc    1  Sect  De 
    198  ../am_hal_uart.c           0x00000000   Lc  Abs  File  De 
    199  i.am_hal_uart_char_transmit_polled
                                    0x00000a34   Lc    1  Sect  De 
    200  i.am_hal_uart_clock_enable 0x00000a48   Lc    1  Sect  De 
    201  i.am_hal_uart_config       0x00000a6c   Lc    1  Sect  De 
    202  i.am_hal_uart_disable      0x00000ac0   Lc    1  Sect  De 
    203  i.am_hal_uart_enable       0x00000ad4   Lc    1  Sect  De 
    204  i.am_hal_uart_fifo_config  0x00000ae8   Lc    1  Sect  De 
    205  i.am_hal_uart_int_clear    0x00000afc   Lc    1  Sect  De 
    206  i.am_hal_uart_int_enable   0x00000b08   Lc    1  Sect  De 
    207  i.am_hal_uart_int_status_get
                                    0x00000b18   Lc    1  Sect  De 
    208  ../am_bsp.c                0x00000000   Lc  Abs  File  De 
    209  i.am_bsp_low_power_init    0x00000610   Lc    1  Sect  De 
    210  ../am_hal_debug.c          0x00000000   Lc  Abs  File  De 
    211  ..\am_hal_itm.c            0x00000000   Lc  Abs  File  De 
    212  ../am_hal_itm.c            0x00000000   Lc  Abs  File  De 
    213  ../am_hal_mcuctrl.c        0x00000000   Lc  Abs  File  De 
    214  i.am_hal_mcuctrl_bandgap_disable
                                    0x000009b0   Lc    1  Sect  De 
    215  i.am_hal_mcuctrl_bucks_enable
                                    0x000009c0   Lc    1  Sect  De 
    216  ../am_hal_rtc.c            0x00000000   Lc  Abs  File  De 
    217  i.am_hal_rtc_osc_disable   0x000009f2   Lc    1  Sect  De 
    218  i.am_hal_rtc_osc_select    0x00000a00   Lc    1  Sect  De 
    219  ../am_hal_tpiu.c           0x00000000   Lc  Abs  File  De 
    220  ../am_hal_vcomp.c          0x00000000   Lc  Abs  File  De 
    221  i.am_hal_vcomp_disable     0x00000b28   Lc    1  Sect  De 
    222  dc.s                       0x00000000   Lc  Abs  File  De 
    223  ../clib/memcpset.s         0x00000000   Lc  Abs  File  De 
    224  .text                      0x0000018c   Lc    1  Sect  De   0x64
    225  ../clib/heapaux.c          0x00000000   Lc  Abs  File  De 
    226  .text                      0x000001f0   Lc    1  Sect  De 
    227  ../clib/angel/startup.s    0x00000000   Lc  Abs  File  De 
    228  !!!main                    0x000000a0   Lc    1  Sect  De   0x8
    229  ../fplib/d2f.s             0x00000000   Lc  Abs  File  De 
    230  ../clib/angel/kernel.s     0x00000000   Lc  Abs  File  De 
    231  .ARM.Collect$$rtentry$$00000000
                                    0x00000120   Lc    1  Sect  De 
    232  ../fplib/dnaninf.s         0x00000000   Lc  Abs  File  De 
    233  ../fplib/fretinf.s         0x00000000   Lc  Abs  File  De 
    234  ../fplib/usenofp.s         0x00000000   Lc  Abs  File  De 
    235  ../clib/angel/kernel.s     0x00000000   Lc  Abs  File  De 
    236  .ARM.Collect$$rtentry$$00000002
                                    0x00000120   Lc    1  Sect  De 
    237  .ARM.Collect$$rtentry$$00000009
                                    0x00000126   Lc    1  Sect  De 
    238  .ARM.Collect$$rtentry$$0000000A
                                    0x00000126   Lc    1  Sect  De   0x4
    239  .ARM.Collect$$rtentry$$0000000C
                                    0x0000012a   Lc    1  Sect  De 
    240  .ARM.Collect$$rtentry$$0000000D
                                    0x0000012a   Lc    1  Sect  De   0x8
    241  ../clib/angel/kernel.s     0x00000000   Lc  Abs  File  De 
    242  .ARM.Collect$$rtentry$$00000004
                                    0x00000120   Lc    1  Sect  De   0x6
    243  ../clib/angel/sys.s        0x00000000   Lc  Abs  File  De 
    244  .text                      0x000001f6   Lc    1  Sect  De   0x4a
    245  ../clib/stdlib.c           0x00000000   Lc  Abs  File  De 
    246  .text                      0x00000240   Lc    1  Sect  De 
    247  ../clib/angel/boardlib.s   0x00000000   Lc  Abs  File  De 
    248  ../clib/angel/boardlib.s   0x00000000   Lc  Abs  File  De 
    249  ../clib/angel/boardlib.s   0x00000000   Lc  Abs  File  De 
    250  ../clib/libinit.s          0x00000000   Lc  Abs  File  De 
    251  .ARM.Collect$$libinit$$00000000
                                    0x00000114   Lc    1  Sect  De   0x2
    252  ../clib/angel/sys.s        0x00000000   Lc  Abs  File  De 
    253  .text                      0x00000254   Lc    1  Sect  De   0x8
    254  .bss                       0x100011e0   Lc    3  Sect  De   0x60
    255  ../clib/angel/kernel.s     0x00000000   Lc  Abs  File  De 
    256  .ARM.Collect$$rtexit$$00000000
                                    0x00000132   Lc    1  Sect  De   0x2
    257  ../clib/libinit.s          0x00000000   Lc  Abs  File  De 
    258  .ARM.Collect$$libinit$$00000001
                                    0x00000116   Lc    1  Sect  De   0x4
    259  .ARM.Collect$$libinit$$00000004
                                    0x0000011a   Lc    1  Sect  De 
    260  .ARM.Collect$$libinit$$0000000A
                                    0x0000011a   Lc    1  Sect  De 
    261  .ARM.Collect$$libinit$$0000000C
                                    0x0000011a   Lc    1  Sect  De 
    262  .ARM.Collect$$libinit$$0000000E
                                    0x0000011a   Lc    1  Sect  De 
    263  .ARM.Collect$$libinit$$00000011
                                    0x0000011a   Lc    1  Sect  De 
    264  .ARM.Collect$$libinit$$00000013
                                    0x0000011a   Lc    1  Sect  De 
    265  .ARM.Collect$$libinit$$00000015
                                    0x0000011a   Lc    1  Sect  De 
    266  .ARM.Collect$$libinit$$00000017
                                    0x0000011a   Lc    1  Sect  De 
    267  .ARM.Collect$$libinit$$00000019
                                    0x0000011a   Lc    1  Sect  De 
    268  .ARM.Collect$$libinit$$0000001B
                                    0x0000011a   Lc    1  Sect  De 
    269  .ARM.Collect$$libinit$$0000001D
                                    0x0000011a   Lc    1  Sect  De 
    270  .ARM.Collect$$libinit$$0000001F
                                    0x0000011a   Lc    1  Sect  De 
    271  .ARM.Collect$$libinit$$00000021
                                    0x0000011a   Lc    1  Sect  De 
    272  .ARM.Collect$$libinit$$00000023
                                    0x0000011a   Lc    1  Sect  De 
    273  .ARM.Collect$$libinit$$00000025
                                    0x0000011a   Lc    1  Sect  De 
    274  .ARM.Collect$$libinit$$0000002C
                                    0x0000011a   Lc    1  Sect  De 
    275  .ARM.Collect$$libinit$$0000002E
                                    0x0000011a   Lc    1  Sect  De 
    276  .ARM.Collect$$libinit$$00000030
                                    0x0000011a   Lc    1  Sect  De 
    277  .ARM.Collect$$libinit$$00000032
                                    0x0000011a   Lc    1  Sect  De 
    278  .ARM.Collect$$libinit$$00000033
                                    0x0000011a   Lc    1  Sect  De   0x2
    279  ../clib/angel/kernel.s     0x00000000   Lc  Abs  File  De 
    280  .ARM.Collect$$rtexit$$00000002
                                    0x00000134   Lc    1  Sect  De 
    281  .ARM.Collect$$rtexit$$00000003
                                    0x00000134   Lc    1  Sect  De   0x4
    282  .ARM.Collect$$rtexit$$00000004
                                    0x00000138   Lc    1  Sect  De   0x6
    283  ../clib/armsys.c           0x00000000   Lc  Abs  File  De 
    284  ../clib/armsys.c           0x00000000   Lc  Abs  File  De 
    285  ../fplib/fpinit.s          0x00000000   Lc  Abs  File  De 
    286  x$fpl$fpinit               0x00001698   Lc    1  Sect  De   0xa
    287  $v0                        0x00001698   Lc    1   --   De 
    288  ../clib/angel/sysapp.c     0x00000000   Lc  Abs  File  De 
    289  .text                      0x0000025c   Lc    1  Sect  De 
    290  ../clib/angel/boardlib.s   0x00000000   Lc  Abs  File  De 
    291  ../clib/armsys.c           0x00000000   Lc  Abs  File  De 
    292  ../clib/armsys.c           0x00000000   Lc  Abs  File  De 
    293  ../clib/libinit.s          0x00000000   Lc  Abs  File  De 
    294  .ARM.Collect$$libshutdown$$00000000
                                    0x0000011c   Lc    1  Sect  De   0x2
    295  ../clib/angel/sysapp.c     0x00000000   Lc  Abs  File  De 
    296  ../clib/angel/sys.s        0x00000000   Lc  Abs  File  De 
    297  .text                      0x00000268   Lc    1  Sect  De   0x2
    298  ../clib/angel/sys.s        0x00000000   Lc  Abs  File  De 
    299  .text                      0x0000026a   Lc    1  Sect  De 
    300  ../clib/heapalloc.c        0x00000000   Lc  Abs  File  De 
    301  ../clib/signal.c           0x00000000   Lc  Abs  File  De 
    302  ../clib/signal.c           0x00000000   Lc  Abs  File  De 
    303  ../clib/libinit.s          0x00000000   Lc  Abs  File  De 
    304  .ARM.Collect$$libshutdown$$00000002
                                    0x0000011e   Lc    1  Sect  De 
    305  .ARM.Collect$$libshutdown$$00000004
                                    0x0000011e   Lc    1  Sect  De 
    306  .ARM.Collect$$libshutdown$$00000007
                                    0x0000011e   Lc    1  Sect  De 
    307  .ARM.Collect$$libshutdown$$0000000A
                                    0x0000011e   Lc    1  Sect  De 
    308  .ARM.Collect$$libshutdown$$0000000C
                                    0x0000011e   Lc    1  Sect  De 
    309  .ARM.Collect$$libshutdown$$0000000F
                                    0x0000011e   Lc    1  Sect  De 
    310  .ARM.Collect$$libshutdown$$00000010
                                    0x0000011e   Lc    1  Sect  De   0x2
    311  ../clib/angel/rt.s         0x00000000   Lc  Abs  File  De 
    312  ../clib/signal.c           0x00000000   Lc  Abs  File  De 
    313  ../clib/signal.c           0x00000000   Lc  Abs  File  De 
    314  ../clib/signal.c           0x00000000   Lc  Abs  File  De 
    315  ../clib/signal.c           0x00000000   Lc  Abs  File  De 
    316  ../clib/angel/sysapp.c     0x00000000   Lc  Abs  File  De 
    317  ../clib/signal.s           0x00000000   Lc  Abs  File  De 
    318  ../clib/signal.c           0x00000000   Lc  Abs  File  De 
    319  ../clib/signal.c           0x00000000   Lc  Abs  File  De 
    320  ../clib/signal.c           0x00000000   Lc  Abs  File  De 
    321  ../clib/signal.c           0x00000000   Lc  Abs  File  De 
    322  ../clib/signal.c           0x00000000   Lc  Abs  File  De 
    323  ../clib/signal.c           0x00000000   Lc  Abs  File  De 
    324  ../clib/signal.c           0x00000000   Lc  Abs  File  De 
    325  ../clib/signal.c           0x00000000   Lc  Abs  File  De 
    326  ../clib/angel/scatter.s    0x00000000   Lc  Abs  File  De 
    327  !!!scatter                 0x000000a8   Lc    1  Sect  De   0x34
    328  ../clib/angel/handlers.s   0x00000000   Lc  Abs  File  De 
    329  !!handler_copy             0x000000dc   Lc    1  Sect  De   0x1a
    330  ../clib/angel/handlers.s   0x00000000   Lc  Abs  File  De 
    331  !!handler_zi               0x000000f8   Lc    1  Sect  De   0x1c
    332  BuildAttributes$$THM_ISAv4$E$P$D$K$B$S$7EM$VFPi3$EXTD16$VFPS$VFMA$PE$A:L22UL41UL21$X:L11$S22US41US21$IEEE1$IW$USESV6$~STKCKD$USESV7$~SHL$OTIME$ROPI$EBA8$UX$STANDARDLIB$REQ8$EABIv2
                                    0x00000000   Gb  Abs   --   Hi 
    333  __ARM_use_no_argv          0x00000000   Gb  Abs   --   Hi 
    334  __Vectors                  0x00000000   Gb    1  Data  Hi 
    335  Reset_Handler              0x00000071   Wk    1  Code  Hi   0x1c
    336  am_nmi_isr                 0x0000008d   Wk    1  Code  Hi   0x2
    337  am_fault_isr               0x0000008f   Wk    1  Code  Hi   0x2
    338  am_memmanage_isr           0x00000091   Wk    1  Code  Hi   0x2
    339  am_mpufault_isr            0x00000093   Wk    1  Code  Hi   0x2
    340  am_busfault_isr            0x00000095   Wk    1  Code  Hi   0x2
    341  am_usagefault_isr          0x00000097   Wk    1  Code  Hi   0x2
    342  am_adc_isr                 0x00000099   Wk    1  Code  Hi 
    343  am_brownout_isr            0x00000099   Wk    1  Code  Hi 
    344  am_clkgen_isr              0x00000099   Wk    1  Code  Hi 
    345  am_ctimer_isr              0x00000099   Wk    1  Code  Hi 
    346  am_debugmon_isr            0x00000099   Wk    1  Code  Hi 
    347  am_iomaster0_isr           0x00000099   Wk    1  Code  Hi 
    348  am_iomaster1_isr           0x00000099   Wk    1  Code  Hi 
    349  am_pendsv_isr              0x00000099   Wk    1  Code  Hi 
    350  am_svcall_isr              0x00000099   Wk    1  Code  Hi 
    351  am_systick_isr             0x00000099   Wk    1  Code  Hi 
    352  am_vcomp_isr               0x00000099   Wk    1  Code  Hi 
    353  am_watchdog_isr            0x00000099   Wk    1  Code  Hi 
    354  __main                     0x000000a1   Gb    1  Code  Hi   0x8
    355  __scatterload              0x000000a9   Gb    1  Code  Hi 
    356  __scatterload_rt2          0x000000a9   Gb    1  Code  Hi   0x2c
    357  __scatterload_rt2_thumb_only
                                    0x000000a9   Gb    1  Code  Hi 
    358  __scatterload_null         0x000000b7   Gb    1  Code  Hi 
    359  __scatterload_copy         0x000000dd   Gb    1  Code  Hi   0x1a
    360  __scatterload_zeroinit     0x000000f9   Gb    1  Code  Hi   0x1c
    361  __rt_lib_init              0x00000115   Gb    1  Code  De 
    362  __rt_lib_init_fp_1         0x00000117   Gb    1  Code  Hi 
    363  __rt_lib_init_alloca_1     0x0000011b   Gb    1  Code  Hi 
    364  __rt_lib_init_argv_1       0x0000011b   Gb    1  Code  Hi 
    365  __rt_lib_init_atexit_1     0x0000011b   Gb    1  Code  Hi 
    366  __rt_lib_init_clock_1      0x0000011b   Gb    1  Code  Hi 
    367  __rt_lib_init_cpp_1        0x0000011b   Gb    1  Code  Hi 
    368  __rt_lib_init_exceptions_1 0x0000011b   Gb    1  Code  Hi 
    369  __rt_lib_init_fp_trap_1    0x0000011b   Gb    1  Code  Hi 
    370  __rt_lib_init_getenv_1     0x0000011b   Gb    1  Code  Hi 
    371  __rt_lib_init_heap_1       0x0000011b   Gb    1  Code  Hi 
    372  __rt_lib_init_lc_collate_1 0x0000011b   Gb    1  Code  Hi 
    373  __rt_lib_init_lc_ctype_1   0x0000011b   Gb    1  Code  Hi 
    374  __rt_lib_init_lc_monetary_1
                                    0x0000011b   Gb    1  Code  Hi 
    375  __rt_lib_init_lc_numeric_1 0x0000011b   Gb    1  Code  Hi 
    376  __rt_lib_init_lc_time_1    0x0000011b   Gb    1  Code  Hi 
    377  __rt_lib_init_preinit_1    0x0000011b   Gb    1  Code  Hi 
    378  __rt_lib_init_rand_1       0x0000011b   Gb    1  Code  Hi 
    379  __rt_lib_init_return       0x0000011b   Gb    1  Code  Hi 
    380  __rt_lib_init_signal_1     0x0000011b   Gb    1  Code  Hi 
    381  __rt_lib_init_stdio_1      0x0000011b   Gb    1  Code  Hi 
    382  __rt_lib_init_user_alloc_1 0x0000011b   Gb    1  Code  Hi 
    383  __rt_lib_shutdown          0x0000011d   Gb    1  Code  De 
    384  __rt_lib_shutdown_cpp_1    0x0000011f   Gb    1  Code  Hi 
    385  __rt_lib_shutdown_fp_trap_1
                                    0x0000011f   Gb    1  Code  Hi 
    386  __rt_lib_shutdown_heap_1   0x0000011f   Gb    1  Code  Hi 
    387  __rt_lib_shutdown_return   0x0000011f   Gb    1  Code  Hi 
    388  __rt_lib_shutdown_signal_1 0x0000011f   Gb    1  Code  Hi 
    389  __rt_lib_shutdown_stdio_1  0x0000011f   Gb    1  Code  Hi 
    390  __rt_lib_shutdown_user_alloc_1
                                    0x0000011f   Gb    1  Code  Hi 
    391  __rt_entry                 0x00000121   Gb    1  Code  Hi 
    392  __rt_entry_presh_1         0x00000121   Gb    1  Code  Hi 
    393  __rt_entry_sh              0x00000121   Gb    1  Code  Hi 
    394  __rt_entry_li              0x00000127   Gb    1  Code  Hi 
    395  __rt_entry_postsh_1        0x00000127   Gb    1  Code  Hi 
    396  __rt_entry_main            0x0000012b   Gb    1  Code  Hi 
    397  __rt_entry_postli_1        0x0000012b   Gb    1  Code  Hi 
    398  __rt_exit                  0x00000133   Gb    1  Code  De 
    399  __rt_exit_ls               0x00000135   Gb    1  Code  Hi 
    400  __rt_exit_prels_1          0x00000135   Gb    1  Code  Hi 
    401  __rt_exit_exit             0x00000139   Gb    1  Code  Hi 
    402  am_util_delay_cycles       0x00000141   Gb    1  Code  Hi   0x6
    403  am_bootloader_image_run    0x00000149   Gb    1  Code  Hi   0x14
    404  am_hal_interrupt_master_enable
                                    0x0000015d   Gb    1  Code  Hi   0x8
    405  am_hal_interrupt_master_disable
                                    0x00000165   Gb    1  Code  Hi   0x8
    406  am_hal_interrupt_master_set
                                    0x0000016d   Gb    1  Code  Hi   0x6
    407  __user_initial_stackheap   0x00000175   Gb    1  Code  Hi   0xa
    408  __aeabi_memcpy4            0x0000018d   Gb    1  Code  Hi 
    409  __aeabi_memcpy8            0x0000018d   Gb    1  Code  De 
    410  __rt_memcpy_w              0x0000018d   Gb    1  Code  De   0x64
    411  _memcpy_lastbytes_aligned  0x000001d5   Gb    1  Code  De 
    412  __use_two_region_memory    0x000001f1   Gb    1  Code  Hi   0x2
    413  __rt_heap_escrow$2region   0x000001f3   Gb    1  Code  De   0x2
    414  __rt_heap_expand$2region   0x000001f5   Gb    1  Code  De   0x2
    415  __user_setup_stackheap     0x000001f7   Gb    1  Code  De   0x4a
    416  exit                       0x00000241   Gb    1  Code  De   0x12
    417  __user_libspace            0x00000255   Wk    1  Code  De   0x8
    418  __user_perproc_libspace    0x00000255   Wk    1  Code  De 
    419  __user_perthread_libspace  0x00000255   Wk    1  Code  De 
    420  _sys_exit                  0x0000025d   Gb    1  Code  De   0x8
    421  __I$use$semihosting        0x00000269   Gb    1  Code  Hi 
    422  __use_no_semihosting_swi   0x00000269   Gb    1  Code  Hi   0x2
    423  __semihosting_library_function
                                    0x0000026b   Gb    1  Code  Hi 
    424  am_bootloader_boot_from_storage
                                    0x0000026b   Gb    1  Code  Hi   0x70
    425  am_bootloader_fast_crc32   0x000002dd   Gb    1  Code  Hi   0x26
    426  am_bootloader_flag_page_update
                                    0x00000309   Gb    1  Code  Hi   0x30
    427  am_bootloader_flash_check  0x0000033d   Gb    1  Code  Hi   0x60
    428  am_bootloader_image_check  0x0000039d   Gb    1  Code  Hi   0x1d4
    429  am_bootloader_new_image_check
                                    0x00000575   Gb    1  Code  Hi   0x6e
    430  am_bootloader_partial_crc32
                                    0x000005e5   Gb    1  Code  Hi   0x28
    431  am_bsp_low_power_init      0x00000611   Gb    1  Code  Hi   0x28
    432  am_gpio_isr                0x00000639   Gb    1  Code  Hi   0xba
    433  am_hal_clkgen_osc_stop     0x000006fd   Gb    1  Code  Hi   0xc
    434  am_hal_clkgen_sysclk_get   0x00000709   Gb    1  Code  Hi   0x40
    435  am_hal_clkgen_sysclk_select
                                    0x00000769   Gb    1  Code  Hi   0x10
    436  am_hal_flash_page_erase    0x00000779   Gb    1  Code  Hi   0x6
    437  am_hal_flash_program_main  0x00000785   Gb    1  Code  Hi   0xa
    438  am_hal_gpio_int_clear      0x00000795   Gb    1  Code  Hi   0xc
    439  am_hal_gpio_int_disable    0x000007a5   Gb    1  Code  Hi   0x1c
    440  am_hal_gpio_int_enable     0x000007c5   Gb    1  Code  Hi   0x18
    441  am_hal_interrupt_enable    0x000007e1   Gb    1  Code  Hi   0x46
    442  am_hal_ios_access_int_clear
                                    0x0000082d   Gb    1  Code  Hi   0xa
    443  am_hal_ios_access_int_enable
                                    0x00000837   Gb    1  Code  Hi   0x10
    444  am_hal_ios_access_int_status_get
                                    0x00000847   Gb    1  Code  Hi   0x14
    445  am_hal_ios_config          0x0000085d   Gb    1  Code  Hi   0x88
    446  am_hal_ios_fifo_service    0x000008e9   Gb    1  Code  Hi   0x8e
    447  am_hal_ios_int_clear       0x00000981   Gb    1  Code  Hi   0xa
    448  am_hal_ios_int_enable      0x0000098b   Gb    1  Code  Hi   0x10
    449  am_hal_ios_int_status_get  0x0000099b   Gb    1  Code  Hi   0x14
    450  am_hal_mcuctrl_bandgap_disable
                                    0x000009b1   Gb    1  Code  Hi   0xc
    451  am_hal_mcuctrl_bucks_enable
                                    0x000009c1   Gb    1  Code  Hi   0x24
    452  am_hal_reset_poi           0x000009e9   Gb    1  Code  Hi   0xa
    453  am_hal_rtc_osc_disable     0x000009f3   Gb    1  Code  Hi   0xe
    454  am_hal_rtc_osc_select      0x00000a01   Gb    1  Code  Hi   0x16
    455  am_hal_systick_count       0x00000a17   Gb    1  Code  Hi   0x8
    456  am_hal_systick_load        0x00000a1f   Gb    1  Code  Hi   0x8
    457  am_hal_systick_start       0x00000a27   Gb    1  Code  Hi   0xe
    458  am_hal_uart_char_transmit_polled
                                    0x00000a35   Gb    1  Code  Hi   0xe
    459  am_hal_uart_clock_enable   0x00000a49   Gb    1  Code  Hi   0x20
    460  am_hal_uart_config         0x00000a6d   Gb    1  Code  Hi   0x4e
    461  am_hal_uart_disable        0x00000ac1   Gb    1  Code  Hi   0x10
    462  am_hal_uart_enable         0x00000ad5   Gb    1  Code  Hi   0xe
    463  am_hal_uart_fifo_config    0x00000ae9   Gb    1  Code  Hi   0xe
    464  am_hal_uart_int_clear      0x00000afd   Gb    1  Code  Hi   0x6
    465  am_hal_uart_int_enable     0x00000b09   Gb    1  Code  Hi   0xa
    466  am_hal_uart_int_status_get 0x00000b19   Gb    1  Code  Hi   0xc
    467  am_hal_vcomp_disable       0x00000b29   Gb    1  Code  Hi   0x8
    468  am_ioslave_acc_isr         0x00000b35   Gb    1  Code  Hi   0x100
    469  am_ioslave_ios_isr         0x00000c59   Gb    1  Code  Hi   0x18
    470  am_uart_isr                0x00000c71   Gb    1  Code  Hi   0x1e8
    471  am_util_delay_ms           0x00000ea5   Gb    1  Code  Hi   0x1c
    472  cleanup_ios_interface      0x00000ec1   Gb    1  Code  Hi   0xb8
    473  flash_load_from_image      0x00000f7d   Gb    1  Code  Hi   0xac
    474  main                       0x000012b1   Gb    1  Code  Hi   0x144
    475  ser_out                    0x0000140d   Gb    1  Code  Hi   0x14
    476  setup_ios_interface        0x00001425   Gb    1  Code  Hi   0x194
    477  setup_serial               0x000015c5   Gb    1  Code  Hi   0xb0
    478  _fp_init                   0x00001699   Gb    1  Code  De   0xa
    479  __fplib_config_fpu_vfp     0x000016a1   Gb    1  Code  De 
    480  __fplib_config_pureend_doubles
                                    0x000016a1   Gb    1  Code  De 
    481  am_hal_ios_pui8LRAM        0x00001aa4   Gb    1  Data  Hi   0x4
    482  Region$$Table$$Base        0x00001aa8   Gb    1   --   Hi 
    483  Region$$Table$$Limit       0x00001ac8   Gb    1   --   Hi 
    484  g_pui8binary_counter_0x4000_up
                                    0x00008000   Gb    4  Data  Hi   0x1430
    485  g_bIOSActive               0x10000000   Gb    2  Data  Hi   0x1
    486  g_pui8TxBuffer             0x1000001c   Gb    2  Data  Hi   0x8
    487  g_pui8RxBuffer             0x10000024   Gb    2  Data  Hi   0x4
    488  g_ui32BytesInBuffer        0x10000028   Gb    2  Data  Hi   0x4
    489  g_pui32WriteAddress        0x1000002c   Gb    2  Data  Hi   0x4
    490  g_ui32BytesReceived        0x10000030   Gb    2  Data  Hi   0x4
    491  g_bImageValid              0x10000034   Gb    2  Data  Hi   0x1
    492  g_ui32CRC                  0x10000038   Gb    2  Data  Hi   0x4
    493  g_psBootImage              0x1000003c   Gb    2  Data  Hi   0x4
    494  g_sUartConfig              0x10000040   Gb    2  Data  Hi   0x14
    495  ui32_serial_status         0x10000054   Gb    2  Data  Hi   0x4
    496  cRecChar                   0x10000058   Gb    2  Data  Hi   0x1
    497  RX_FIFO_FULL               0x10000059   Gb    2  Data  Hi   0x1
    498  RX_FIFO_EMPTY              0x1000005a   Gb    2  Data  Hi   0x1
    499  uart_RX_cnt                0x1000005b   Gb    2  Data  Hi   0x1
    500  uart_RX_head               0x1000005c   Gb    2  Data  Hi   0x1
    501  uart_RX_tail               0x1000005d   Gb    2  Data  Hi   0x1
    502  cTxChar                    0x1000005e   Gb    2  Data  Hi   0x1
    503  TX_FIFO_FULL               0x1000005f   Gb    2  Data  Hi   0x1
    504  TX_FIFO_EMPTY              0x10000060   Gb    2  Data  Hi   0x1
    505  uart_TX_cnt                0x10000061   Gb    2  Data  Hi   0x1
    506  uart_TX_head               0x10000062   Gb    2  Data  Hi   0x1
    507  uart_TX_tail               0x10000063   Gb    2  Data  Hi   0x1
    508  command                    0x10000064   Gb    2  Data  Hi   0x4
    509  packet_cnt                 0x10000068   Gb    2  Data  Hi   0x1
    510  pkt_size                   0x10000069   Gb    2  Data  Hi   0x1
    511  g_ui32HALflags             0x1000006c   Gb    2  Data  Hi   0x4
    512  SRAM_load_ui32             0x10000070   Gb    2  Data  Hi   0x8
    513  g_am_hal_flash             0x10000078   Gb    2  Data  Hi   0x20
    514  g_pui8FIFOBase             0x10000098   Gb    2  Data  Hi   0x4
    515  g_pui8FIFOEnd              0x1000009c   Gb    2  Data  Hi   0x4
    516  g_pui8FIFOPtr              0x100000a0   Gb    2  Data  Hi   0x4
    517  g_pui32RxBuffer            0x100000a4   Gb    3  Data  Hi   0x800
    518  g_sImage                   0x100008a4   Gb    3  Data  Hi   0x28
    519  uart_RX_buffer             0x100008cc   Gb    3  Data  Hi   0x80
    520  uart_TX_buffer             0x1000094c   Gb    3  Data  Hi   0x80
    521  g_ui32FlashLoadingBuffer   0x100009cc   Gb    3  Data  Hi   0x800
    522  g_sSRAMBuffer              0x100011cc   Gb    3  Data  Hi   0x14
    523  __libspace_start           0x100011e0   Gb    3  Data  De   0x60
    524  __temporary_stack_top$libspace
                                    0x10001240   Gb    3  Data  De 


** Section #13 '.strtab' (SHT_STRTAB)
    Size   : 8068 bytes

            #  Offset String
        ====================================

            1      1: $d
            2      4: $t
            3      7: $d.realdata
            4     19: ../src/ios_boot_handlers.c
            5     46: i.am_ioslave_acc_isr
            6     67: i.am_ioslave_ios_isr
            7     88: i.cleanup_ios_interface
            8    112: i.image_data_packet_read
            9    137: image_data_packet_read
           10    160: i.image_start_packet_read
           11    186: image_start_packet_read
           12    210: i.setup_ios_interface
           13    232: .data
           14    238: g_sIOSConfig
           15    251: ../src/multi_boot.c
           16    271: i.am_gpio_isr
           17    285: i.main
           18    292: .bss
           19    297: ../src/uart_boot_handlers.c
           20    325: i.am_uart_isr
           21    339: i.ser_out
           22    349: i.setup_serial
           23    364: ..\src\image_boot_handlers.c
           24    393: i.flash_load_from_image
           25    417: ..\..\..\..\..\utils\am_util_delay.c
           26    454: .emb_text
           27    464: $v0
           28    468: ../../../../../utils/am_util_delay.c
           29    505: i.am_util_delay_ms
           30    524: ../../../../../utils/am_util_stdio.c
           31    561: ..\..\..\..\..\bootloader\am_bootloader.c
           32    603: ../../../../../bootloader/am_bootloader.c
           33    645: i.am_bootloader_boot_from_storage
           34    679: i.am_bootloader_fast_crc32
           35    706: i.am_bootloader_flag_page_update
           36    739: i.am_bootloader_flash_check
           37    767: i.am_bootloader_image_check
           38    795: i.am_bootloader_new_image_check
           39    827: i.am_bootloader_partial_crc32
           40    857: .constdata
           41    868: g_pui32CRC32Table
           42    886: ../keil/startup_keil.s
           43    909: STACK
           44    915: StackMem
           45    924: HEAP
           46    929: HeapMem
           47    937: RESET
           48    943: .text
           49    949: ..\src\binary_counter_0x4000_up.c
           50    983: .ARM.__at_0x8000
           51   1000: __tagsym$$used
           52   1015: ..\src\binary_counter_0x8000_down.c
           53   1051: ../am_hal_global.c
           54   1070: ../am_hal_clkgen.c
           55   1089: i.am_hal_clkgen_osc_stop
           56   1114: i.am_hal_clkgen_sysclk_get
           57   1141: i.am_hal_clkgen_sysclk_select
           58   1171: ../am_hal_flash.c
           59   1189: i.am_hal_flash_page_erase
           60   1215: i.am_hal_flash_program_main
           61   1243: ../am_hal_gpio.c
           62   1260: i.am_hal_gpio_int_clear
           63   1284: i.am_hal_gpio_int_disable
           64   1310: i.am_hal_gpio_int_enable
           65   1335: ..\am_hal_interrupt.c
           66   1357: ../am_hal_interrupt.c
           67   1379: i.am_hal_interrupt_enable
           68   1405: ../am_hal_ios.c
           69   1421: i.am_hal_ios_access_int_clear
           70   1451: i.am_hal_ios_access_int_enable
           71   1482: i.am_hal_ios_access_int_status_get
           72   1517: i.am_hal_ios_config
           73   1537: i.am_hal_ios_fifo_service
           74   1563: i.am_hal_ios_int_clear
           75   1586: i.am_hal_ios_int_enable
           76   1610: i.am_hal_ios_int_status_get
           77   1638: ../am_hal_reset.c
           78   1656: i.am_hal_reset_poi
           79   1675: ../am_hal_systick.c
           80   1695: i.am_hal_systick_count
           81   1718: i.am_hal_systick_load
           82   1740: i.am_hal_systick_start
           83   1763: ../am_hal_uart.c
           84   1780: i.am_hal_uart_char_transmit_polled
           85   1815: i.am_hal_uart_clock_enable
           86   1842: i.am_hal_uart_config
           87   1863: i.am_hal_uart_disable
           88   1885: i.am_hal_uart_enable
           89   1906: i.am_hal_uart_fifo_config
           90   1932: i.am_hal_uart_int_clear
           91   1956: i.am_hal_uart_int_enable
           92   1981: i.am_hal_uart_int_status_get
           93   2010: ../am_bsp.c
           94   2022: i.am_bsp_low_power_init
           95   2046: ../am_hal_debug.c
           96   2064: ..\am_hal_itm.c
           97   2080: ../am_hal_itm.c
           98   2096: ../am_hal_mcuctrl.c
           99   2116: i.am_hal_mcuctrl_bandgap_disable
          100   2149: i.am_hal_mcuctrl_bucks_enable
          101   2179: ../am_hal_rtc.c
          102   2195: i.am_hal_rtc_osc_disable
          103   2220: i.am_hal_rtc_osc_select
          104   2244: ../am_hal_tpiu.c
          105   2261: ../am_hal_vcomp.c
          106   2279: i.am_hal_vcomp_disable
          107   2302: dc.s
          108   2307: ../clib/memcpset.s
          109   2326: ../clib/heapaux.c
          110   2344: ../clib/angel/startup.s
          111   2368: !!!main
          112   2376: ../fplib/d2f.s
          113   2391: ../clib/angel/kernel.s
          114   2414: .ARM.Collect$$rtentry$$00000000
          115   2446: ../fplib/dnaninf.s
          116   2465: ../fplib/fretinf.s
          117   2484: ../fplib/usenofp.s
          118   2503: .ARM.Collect$$rtentry$$00000002
          119   2535: .ARM.Collect$$rtentry$$00000009
          120   2567: .ARM.Collect$$rtentry$$0000000A
          121   2599: .ARM.Collect$$rtentry$$0000000C
          122   2631: .ARM.Collect$$rtentry$$0000000D
          123   2663: .ARM.Collect$$rtentry$$00000004
          124   2695: ../clib/angel/sys.s
          125   2715: ../clib/stdlib.c
          126   2732: ../clib/angel/boardlib.s
          127   2757: ../clib/libinit.s
          128   2775: .ARM.Collect$$libinit$$00000000
          129   2807: .ARM.Collect$$rtexit$$00000000
          130   2838: .ARM.Collect$$libinit$$00000001
          131   2870: .ARM.Collect$$libinit$$00000004
          132   2902: .ARM.Collect$$libinit$$0000000A
          133   2934: .ARM.Collect$$libinit$$0000000C
          134   2966: .ARM.Collect$$libinit$$0000000E
          135   2998: .ARM.Collect$$libinit$$00000011
          136   3030: .ARM.Collect$$libinit$$00000013
          137   3062: .ARM.Collect$$libinit$$00000015
          138   3094: .ARM.Collect$$libinit$$00000017
          139   3126: .ARM.Collect$$libinit$$00000019
          140   3158: .ARM.Collect$$libinit$$0000001B
          141   3190: .ARM.Collect$$libinit$$0000001D
          142   3222: .ARM.Collect$$libinit$$0000001F
          143   3254: .ARM.Collect$$libinit$$00000021
          144   3286: .ARM.Collect$$libinit$$00000023
          145   3318: .ARM.Collect$$libinit$$00000025
          146   3350: .ARM.Collect$$libinit$$0000002C
          147   3382: .ARM.Collect$$libinit$$0000002E
          148   3414: .ARM.Collect$$libinit$$00000030
          149   3446: .ARM.Collect$$libinit$$00000032
          150   3478: .ARM.Collect$$libinit$$00000033
          151   3510: .ARM.Collect$$rtexit$$00000002
          152   3541: .ARM.Collect$$rtexit$$00000003
          153   3572: .ARM.Collect$$rtexit$$00000004
          154   3603: ../clib/armsys.c
          155   3620: ../fplib/fpinit.s
          156   3638: x$fpl$fpinit
          157   3651: ../clib/angel/sysapp.c
          158   3674: .ARM.Collect$$libshutdown$$00000000
          159   3710: ../clib/heapalloc.c
          160   3730: ../clib/signal.c
          161   3747: .ARM.Collect$$libshutdown$$00000002
          162   3783: .ARM.Collect$$libshutdown$$00000004
          163   3819: .ARM.Collect$$libshutdown$$00000007
          164   3855: .ARM.Collect$$libshutdown$$0000000A
          165   3891: .ARM.Collect$$libshutdown$$0000000C
          166   3927: .ARM.Collect$$libshutdown$$0000000F
          167   3963: .ARM.Collect$$libshutdown$$00000010
          168   3999: ../clib/angel/rt.s
          169   4018: ../clib/signal.s
          170   4035: ../clib/angel/scatter.s
          171   4059: !!!scatter
          172   4070: ../clib/angel/handlers.s
          173   4095: !!handler_copy
          174   4110: !!handler_zi
          175   4123: BuildAttributes$$THM_ISAv4$E$P$D$K$B$S$7EM$VFPi3$EXTD16$VFPS$VFMA$PE$A:L22UL41UL21$X:L11$S22US41US21$IEEE1$IW$USESV6$~STKCKD$USESV7$~SHL$OTIME$ROPI$EBA8$UX$STANDARDLIB$REQ8$EABIv2
          176   4303: __ARM_use_no_argv
          177   4321: __Vectors
          178   4331: Reset_Handler
          179   4345: am_nmi_isr
          180   4356: am_fault_isr
          181   4369: am_memmanage_isr
          182   4386: am_mpufault_isr
          183   4402: am_busfault_isr
          184   4418: am_usagefault_isr
          185   4436: am_adc_isr
          186   4447: am_brownout_isr
          187   4463: am_clkgen_isr
          188   4477: am_ctimer_isr
          189   4491: am_debugmon_isr
          190   4507: am_iomaster0_isr
          191   4524: am_iomaster1_isr
          192   4541: am_pendsv_isr
          193   4555: am_svcall_isr
          194   4569: am_systick_isr
          195   4584: am_vcomp_isr
          196   4597: am_watchdog_isr
          197   4613: __main
          198   4620: __scatterload
          199   4634: __scatterload_rt2
          200   4652: __scatterload_rt2_thumb_only
          201   4681: __scatterload_null
          202   4700: __scatterload_copy
          203   4719: __scatterload_zeroinit
          204   4742: __rt_lib_init
          205   4756: __rt_lib_init_fp_1
          206   4775: __rt_lib_init_alloca_1
          207   4798: __rt_lib_init_argv_1
          208   4819: __rt_lib_init_atexit_1
          209   4842: __rt_lib_init_clock_1
          210   4864: __rt_lib_init_cpp_1
          211   4884: __rt_lib_init_exceptions_1
          212   4911: __rt_lib_init_fp_trap_1
          213   4935: __rt_lib_init_getenv_1
          214   4958: __rt_lib_init_heap_1
          215   4979: __rt_lib_init_lc_collate_1
          216   5006: __rt_lib_init_lc_ctype_1
          217   5031: __rt_lib_init_lc_monetary_1
          218   5059: __rt_lib_init_lc_numeric_1
          219   5086: __rt_lib_init_lc_time_1
          220   5110: __rt_lib_init_preinit_1
          221   5134: __rt_lib_init_rand_1
          222   5155: __rt_lib_init_return
          223   5176: __rt_lib_init_signal_1
          224   5199: __rt_lib_init_stdio_1
          225   5221: __rt_lib_init_user_alloc_1
          226   5248: __rt_lib_shutdown
          227   5266: __rt_lib_shutdown_cpp_1
          228   5290: __rt_lib_shutdown_fp_trap_1
          229   5318: __rt_lib_shutdown_heap_1
          230   5343: __rt_lib_shutdown_return
          231   5368: __rt_lib_shutdown_signal_1
          232   5395: __rt_lib_shutdown_stdio_1
          233   5421: __rt_lib_shutdown_user_alloc_1
          234   5452: __rt_entry
          235   5463: __rt_entry_presh_1
          236   5482: __rt_entry_sh
          237   5496: __rt_entry_li
          238   5510: __rt_entry_postsh_1
          239   5530: __rt_entry_main
          240   5546: __rt_entry_postli_1
          241   5566: __rt_exit
          242   5576: __rt_exit_ls
          243   5589: __rt_exit_prels_1
          244   5607: __rt_exit_exit
          245   5622: am_util_delay_cycles
          246   5643: am_bootloader_image_run
          247   5667: am_hal_interrupt_master_enable
          248   5698: am_hal_interrupt_master_disable
          249   5730: am_hal_interrupt_master_set
          250   5758: __user_initial_stackheap
          251   5783: __aeabi_memcpy4
          252   5799: __aeabi_memcpy8
          253   5815: __rt_memcpy_w
          254   5829: _memcpy_lastbytes_aligned
          255   5855: __use_two_region_memory
          256   5879: __rt_heap_escrow$2region
          257   5904: __rt_heap_expand$2region
          258   5929: __user_setup_stackheap
          259   5952: exit
          260   5957: __user_libspace
          261   5973: __user_perproc_libspace
          262   5997: __user_perthread_libspace
          263   6023: _sys_exit
          264   6033: __I$use$semihosting
          265   6053: __use_no_semihosting_swi
          266   6078: __semihosting_library_function
          267   6109: am_bootloader_boot_from_storage
          268   6141: am_bootloader_fast_crc32
          269   6166: am_bootloader_flag_page_update
          270   6197: am_bootloader_flash_check
          271   6223: am_bootloader_image_check
          272   6249: am_bootloader_new_image_check
          273   6279: am_bootloader_partial_crc32
          274   6307: am_bsp_low_power_init
          275   6329: am_gpio_isr
          276   6341: am_hal_clkgen_osc_stop
          277   6364: am_hal_clkgen_sysclk_get
          278   6389: am_hal_clkgen_sysclk_select
          279   6417: am_hal_flash_page_erase
          280   6441: am_hal_flash_program_main
          281   6467: am_hal_gpio_int_clear
          282   6489: am_hal_gpio_int_disable
          283   6513: am_hal_gpio_int_enable
          284   6536: am_hal_interrupt_enable
          285   6560: am_hal_ios_access_int_clear
          286   6588: am_hal_ios_access_int_enable
          287   6617: am_hal_ios_access_int_status_get
          288   6650: am_hal_ios_config
          289   6668: am_hal_ios_fifo_service
          290   6692: am_hal_ios_int_clear
          291   6713: am_hal_ios_int_enable
          292   6735: am_hal_ios_int_status_get
          293   6761: am_hal_mcuctrl_bandgap_disable
          294   6792: am_hal_mcuctrl_bucks_enable
          295   6820: am_hal_reset_poi
          296   6837: am_hal_rtc_osc_disable
          297   6860: am_hal_rtc_osc_select
          298   6882: am_hal_systick_count
          299   6903: am_hal_systick_load
          300   6923: am_hal_systick_start
          301   6944: am_hal_uart_char_transmit_polled
          302   6977: am_hal_uart_clock_enable
          303   7002: am_hal_uart_config
          304   7021: am_hal_uart_disable
          305   7041: am_hal_uart_enable
          306   7060: am_hal_uart_fifo_config
          307   7084: am_hal_uart_int_clear
          308   7106: am_hal_uart_int_enable
          309   7129: am_hal_uart_int_status_get
          310   7156: am_hal_vcomp_disable
          311   7177: am_ioslave_acc_isr
          312   7196: am_ioslave_ios_isr
          313   7215: am_uart_isr
          314   7227: am_util_delay_ms
          315   7244: cleanup_ios_interface
          316   7266: flash_load_from_image
          317   7288: main
          318   7293: ser_out
          319   7301: setup_ios_interface
          320   7321: setup_serial
          321   7334: _fp_init
          322   7343: __fplib_config_fpu_vfp
          323   7366: __fplib_config_pureend_doubles
          324   7397: am_hal_ios_pui8LRAM
          325   7417: Region$$Table$$Base
          326   7437: Region$$Table$$Limit
          327   7458: g_pui8binary_counter_0x4000_up
          328   7489: g_bIOSActive
          329   7502: g_pui8TxBuffer
          330   7517: g_pui8RxBuffer
          331   7532: g_ui32BytesInBuffer
          332   7552: g_pui32WriteAddress
          333   7572: g_ui32BytesReceived
          334   7592: g_bImageValid
          335   7606: g_ui32CRC
          336   7616: g_psBootImage
          337   7630: g_sUartConfig
          338   7644: ui32_serial_status
          339   7663: cRecChar
          340   7672: RX_FIFO_FULL
          341   7685: RX_FIFO_EMPTY
          342   7699: uart_RX_cnt
          343   7711: uart_RX_head
          344   7724: uart_RX_tail
          345   7737: cTxChar
          346   7745: TX_FIFO_FULL
          347   7758: TX_FIFO_EMPTY
          348   7772: uart_TX_cnt
          349   7784: uart_TX_head
          350   7797: uart_TX_tail
          351   7810: command
          352   7818: packet_cnt
          353   7829: pkt_size
          354   7838: g_ui32HALflags
          355   7853: SRAM_load_ui32
          356   7868: g_am_hal_flash
          357   7883: g_pui8FIFOBase
          358   7898: g_pui8FIFOEnd
          359   7912: g_pui8FIFOPtr
          360   7926: g_pui32RxBuffer
          361   7942: g_sImage
          362   7951: uart_RX_buffer
          363   7966: uart_TX_buffer
          364   7981: g_ui32FlashLoadingBuffer
          365   8006: g_sSRAMBuffer
          366   8020: __libspace_start
          367   8037: __temporary_stack_top$libspace


** Section #14 '.note' (SHT_NOTE)
    Size   : 32 bytes (alignment 4)


** Section #15 '.comment' (SHT_PROGBITS)
    Size   : 19292 bytes


** Section #16 '.shstrtab' (SHT_STRTAB)
    Size   : 168 bytes

            #  Offset String
        ====================================

            1      1: FLASH
            2      7: SRAM
            3     12: ER$$.ARM.__at_0x8000
            4     33: .debug_abbrev
            5     47: .debug_frame
            6     60: .debug_info
            7     72: .debug_line
            8     84: .debug_loc
            9     95: .debug_macinfo
           10    110: .debug_pubnames
           11    126: .symtab
           12    134: .strtab
           13    142: .note
           14    148: .comment
           15    157: .shstrtab
           16    167: 


