
========================================================================

** ELF Header Information

    File Name: bin\multi_boot.axf

    Machine class: ELFCLASS32 (32-bit)
    Data encoding: ELFDATA2LSB (Little endian)
    Header version: EV_CURRENT (Current version)
    Operating System ABI: none
    ABI Version: 0
    File Type: ET_EXEC (Executable) (2)
    Machine: EM_ARM (ARM)

    Image Entry point: 0x000000a1
    Flags: EF_ARM_HASENTRY (0x05000002)

    ARM ELF revision: 5 (ABI version 2)

    Conforms to Base float procedure-call standard

    Built with
    Component: ARM Compiler 5.06 update 2 (build 183) Tool: armasm [4d35b2]
    Component: ARM Compiler 5.06 update 2 (build 183) Tool: armlink [4d35b7]

    Header size: 52 bytes (0x34)
    Program header entry size: 32 bytes (0x20)
    Section header entry size: 40 bytes (0x28)

    Program header entries: 1
    Section header entries: 16

    Program header offset: 102484 (0x00019054)
    Section header offset: 102516 (0x00019074)

    Section header string table index: 15

========================================================================

** Program header #0 (PT_LOAD) [PF_X + PF_W + PF_R + PF_ARM_ENTRY]
    Size : 15336 bytes (10088 bytes in file)
    Virtual address: 0x00000000 (Alignment 8)


========================================================================

** Section #1 'FLASH' (SHT_PROGBITS) [SHF_ALLOC + SHF_EXECINSTR]
    Size   : 9888 bytes (alignment 4)
    Address: 0x00000000

    $d
    RESET
    __Vectors
        0x00000000:    10001548    H...    DCD    268440904
        0x00000004:    00000071    q...    DCD    113
        0x00000008:    0000008d    ....    DCD    141
        0x0000000c:    0000008f    ....    DCD    143
        0x00000010:    00000093    ....    DCD    147
        0x00000014:    00000095    ....    DCD    149
        0x00000018:    00000097    ....    DCD    151
        0x0000001c:    00000000    ....    DCD    0
        0x00000020:    00000000    ....    DCD    0
        0x00000024:    00000000    ....    DCD    0
        0x00000028:    00000000    ....    DCD    0
        0x0000002c:    00000099    ....    DCD    153
        0x00000030:    00000099    ....    DCD    153
        0x00000034:    00000000    ....    DCD    0
        0x00000038:    00000099    ....    DCD    153
        0x0000003c:    00000099    ....    DCD    153
        0x00000040:    00000099    ....    DCD    153
        0x00000044:    00000099    ....    DCD    153
        0x00000048:    00000099    ....    DCD    153
        0x0000004c:    00000099    ....    DCD    153
        0x00000050:    000016d5    ....    DCD    5845
        0x00000054:    000015b1    ....    DCD    5553
        0x00000058:    00000099    ....    DCD    153
        0x0000005c:    00000099    ....    DCD    153
        0x00000060:    00000099    ....    DCD    153
        0x00000064:    00000851    Q...    DCD    2129
        0x00000068:    00000099    ....    DCD    153
        0x0000006c:    000016ed    ....    DCD    5869
    $t
    $v0
    Reset_Handler
        0x00000070:    f64e5088    N..P    MOV      r0,#0xed88
        0x00000074:    f2ce0000    ....    MOVT     r0,#0xe000
        0x00000078:    6801        .h      LDR      r1,[r0,#0]
        0x0000007a:    f4410170    A.p.    ORR      r1,r1,#0xf00000
        0x0000007e:    6001        .`      STR      r1,[r0,#0]
        0x00000080:    f3bf8f4f    ..O.    DSB      
        0x00000084:    f3bf8f6f    ..o.    ISB      
        0x00000088:    4804        .H      LDR      r0,[pc,#16] ; [0x9c] = 0xa1
        0x0000008a:    4700        .G      BX       r0
    am_nmi_isr
        0x0000008c:    e7fe        ..      B        am_nmi_isr ; 0x8c
    am_fault_isr
        0x0000008e:    e7fe        ..      B        am_fault_isr ; 0x8e
    am_memmanage_isr
        0x00000090:    e7fe        ..      B        am_memmanage_isr ; 0x90
    am_mpufault_isr
        0x00000092:    e7fe        ..      B        am_mpufault_isr ; 0x92
    am_busfault_isr
        0x00000094:    e7fe        ..      B        am_busfault_isr ; 0x94
    am_usagefault_isr
        0x00000096:    e7fe        ..      B        am_usagefault_isr ; 0x96
    am_adc_isr
    am_brownout_isr
    am_clkgen_isr
    am_ctimer_isr
    am_debugmon_isr
    am_iomaster0_isr
    am_iomaster1_isr
    am_pendsv_isr
    am_svcall_isr
    am_systick_isr
    am_vcomp_isr
    am_watchdog_isr
        0x00000098:    e7fe        ..      B        am_adc_isr ; 0x98
    $d
        0x0000009a:    0000        ..      DCW    0
        0x0000009c:    000000a1    ....    DCD    161
    $t
    !!!main
    __main
        0x000000a0:    f000f802    ....    BL       __scatterload ; 0xa8
        0x000000a4:    f000f83c    ..<.    BL       __rt_entry ; 0x120
    !!!scatter
    __scatterload
    __scatterload_rt2
    __scatterload_rt2_thumb_only
        0x000000a8:    a00a        ..      ADR      r0,{pc}+0x2c ; 0xd4
        0x000000aa:    e8900c00    ....    LDM      r0,{r10,r11}
        0x000000ae:    4482        .D      ADD      r10,r10,r0
        0x000000b0:    4483        .D      ADD      r11,r11,r0
        0x000000b2:    f1aa0701    ....    SUB      r7,r10,#1
    __scatterload_null
        0x000000b6:    45da        .E      CMP      r10,r11
        0x000000b8:    d101        ..      BNE      0xbe ; __scatterload_null + 8
        0x000000ba:    f000f831    ..1.    BL       __rt_entry ; 0x120
        0x000000be:    f2af0e09    ....    ADR      lr,{pc}-7 ; 0xb7
        0x000000c2:    e8ba000f    ....    LDM      r10!,{r0-r3}
        0x000000c6:    f0130f01    ....    TST      r3,#1
        0x000000ca:    bf18        ..      IT       NE
        0x000000cc:    1afb        ..      SUBNE    r3,r7,r3
        0x000000ce:    f0430301    C...    ORR      r3,r3,#1
        0x000000d2:    4718        .G      BX       r3
    $d
        0x000000d4:    000025ac    .%..    DCD    9644
        0x000000d8:    000025cc    .%..    DCD    9676
    $t
    !!handler_copy
    __scatterload_copy
        0x000000dc:    3a10        .:      SUBS     r2,r2,#0x10
        0x000000de:    bf24        $.      ITT      CS
        0x000000e0:    c878        x.      LDMCS    r0!,{r3-r6}
        0x000000e2:    c178        x.      STMCS    r1!,{r3-r6}
        0x000000e4:    d8fa        ..      BHI      __scatterload_copy ; 0xdc
        0x000000e6:    0752        R.      LSLS     r2,r2,#29
        0x000000e8:    bf24        $.      ITT      CS
        0x000000ea:    c830        0.      LDMCS    r0!,{r4,r5}
        0x000000ec:    c130        0.      STMCS    r1!,{r4,r5}
        0x000000ee:    bf44        D.      ITT      MI
        0x000000f0:    6804        .h      LDRMI    r4,[r0,#0]
        0x000000f2:    600c        .`      STRMI    r4,[r1,#0]
        0x000000f4:    4770        pG      BX       lr
        0x000000f6:    0000        ..      MOVS     r0,r0
    !!handler_zi
    __scatterload_zeroinit
        0x000000f8:    2300        .#      MOVS     r3,#0
        0x000000fa:    2400        .$      MOVS     r4,#0
        0x000000fc:    2500        .%      MOVS     r5,#0
        0x000000fe:    2600        .&      MOVS     r6,#0
        0x00000100:    3a10        .:      SUBS     r2,r2,#0x10
        0x00000102:    bf28        (.      IT       CS
        0x00000104:    c178        x.      STMCS    r1!,{r3-r6}
        0x00000106:    d8fb        ..      BHI      0x100 ; __scatterload_zeroinit + 8
        0x00000108:    0752        R.      LSLS     r2,r2,#29
        0x0000010a:    bf28        (.      IT       CS
        0x0000010c:    c130        0.      STMCS    r1!,{r4,r5}
        0x0000010e:    bf48        H.      IT       MI
        0x00000110:    600b        .`      STRMI    r3,[r1,#0]
        0x00000112:    4770        pG      BX       lr
    .ARM.Collect$$libinit$$00000000
    __rt_lib_init
        0x00000114:    b51f        ..      PUSH     {r0-r4,lr}
    .ARM.Collect$$libinit$$00000001
    __rt_lib_init_fp_1
        0x00000116:    f002f871    ..q.    BL       _fp_init ; 0x21fc
    .ARM.Collect$$libinit$$00000004
    .ARM.Collect$$libinit$$0000000A
    .ARM.Collect$$libinit$$0000000C
    .ARM.Collect$$libinit$$0000000E
    .ARM.Collect$$libinit$$00000011
    .ARM.Collect$$libinit$$00000013
    .ARM.Collect$$libinit$$00000015
    .ARM.Collect$$libinit$$00000017
    .ARM.Collect$$libinit$$00000019
    .ARM.Collect$$libinit$$0000001B
    .ARM.Collect$$libinit$$0000001D
    .ARM.Collect$$libinit$$0000001F
    .ARM.Collect$$libinit$$00000021
    .ARM.Collect$$libinit$$00000023
    .ARM.Collect$$libinit$$00000025
    .ARM.Collect$$libinit$$0000002C
    .ARM.Collect$$libinit$$0000002E
    .ARM.Collect$$libinit$$00000030
    .ARM.Collect$$libinit$$00000032
    .ARM.Collect$$libinit$$00000033
    __rt_lib_init_alloca_1
    __rt_lib_init_argv_1
    __rt_lib_init_atexit_1
    __rt_lib_init_clock_1
    __rt_lib_init_cpp_1
    __rt_lib_init_exceptions_1
    __rt_lib_init_fp_trap_1
    __rt_lib_init_getenv_1
    __rt_lib_init_heap_1
    __rt_lib_init_lc_collate_1
    __rt_lib_init_lc_ctype_1
    __rt_lib_init_lc_monetary_1
    __rt_lib_init_lc_numeric_1
    __rt_lib_init_lc_time_1
    __rt_lib_init_preinit_1
    __rt_lib_init_rand_1
    __rt_lib_init_return
    __rt_lib_init_signal_1
    __rt_lib_init_stdio_1
    __rt_lib_init_user_alloc_1
        0x0000011a:    bd1f        ..      POP      {r0-r4,pc}
    .ARM.Collect$$libshutdown$$00000000
    __rt_lib_shutdown
        0x0000011c:    b510        ..      PUSH     {r4,lr}
    .ARM.Collect$$libshutdown$$00000002
    .ARM.Collect$$libshutdown$$00000004
    .ARM.Collect$$libshutdown$$00000007
    .ARM.Collect$$libshutdown$$0000000A
    .ARM.Collect$$libshutdown$$0000000C
    .ARM.Collect$$libshutdown$$0000000F
    .ARM.Collect$$libshutdown$$00000010
    __rt_lib_shutdown_cpp_1
    __rt_lib_shutdown_fp_trap_1
    __rt_lib_shutdown_heap_1
    __rt_lib_shutdown_return
    __rt_lib_shutdown_signal_1
    __rt_lib_shutdown_stdio_1
    __rt_lib_shutdown_user_alloc_1
        0x0000011e:    bd10        ..      POP      {r4,pc}
    .ARM.Collect$$rtentry$$00000000
    .ARM.Collect$$rtentry$$00000002
    .ARM.Collect$$rtentry$$00000004
    __rt_entry
    __rt_entry_presh_1
    __rt_entry_sh
        0x00000120:    f000f869    ..i.    BL       __user_setup_stackheap ; 0x1f6
        0x00000124:    4611        .F      MOV      r1,r2
    .ARM.Collect$$rtentry$$00000009
    .ARM.Collect$$rtentry$$0000000A
    __rt_entry_li
    __rt_entry_postsh_1
        0x00000126:    f7fffff5    ....    BL       __rt_lib_init ; 0x114
    .ARM.Collect$$rtentry$$0000000C
    .ARM.Collect$$rtentry$$0000000D
    __rt_entry_main
    __rt_entry_postli_1
        0x0000012a:    f001fe95    ....    BL       main ; 0x1e58
        0x0000012e:    f000f887    ....    BL       exit ; 0x240
    .ARM.Collect$$rtexit$$00000000
    __rt_exit
        0x00000132:    b403        ..      PUSH     {r0,r1}
    .ARM.Collect$$rtexit$$00000002
    .ARM.Collect$$rtexit$$00000003
    __rt_exit_ls
    __rt_exit_prels_1
        0x00000134:    f7fffff2    ....    BL       __rt_lib_shutdown ; 0x11c
    .ARM.Collect$$rtexit$$00000004
    __rt_exit_exit
        0x00000138:    bc03        ..      POP      {r0,r1}
        0x0000013a:    f000f88f    ....    BL       _sys_exit ; 0x25c
        0x0000013e:    0000        ..      MOVS     r0,r0
    .emb_text
    $v0
    am_util_delay_cycles
        0x00000140:    3801        .8      SUBS     r0,#1
        0x00000142:    d1fd        ..      BNE      am_util_delay_cycles ; 0x140
        0x00000144:    4770        pG      BX       lr
        0x00000146:    0000        ..      MOVS     r0,r0
    .emb_text
    $v0
    am_bootloader_image_run
        0x00000148:    6941        Ai      LDR      r1,[r0,#0x14]
        0x0000014a:    6982        .i      LDR      r2,[r0,#0x18]
        0x0000014c:    6800        .h      LDR      r0,[r0,#0]
        0x0000014e:    f64e5308    N..S    MOV      r3,#0xed08
        0x00000152:    f2ce0300    ....    MOVT     r3,#0xe000
        0x00000156:    6018        .`      STR      r0,[r3,#0]
        0x00000158:    468d        .F      MOV      sp,r1
        0x0000015a:    4710        .G      BX       r2
    .emb_text
    $v0
    am_hal_interrupt_master_enable
        0x0000015c:    f3ef8010    ....    MRS      r0,PRIMASK
        0x00000160:    b662        b.      CPSIE    i
        0x00000162:    4770        pG      BX       lr
    am_hal_interrupt_master_disable
        0x00000164:    f3ef8010    ....    MRS      r0,PRIMASK
        0x00000168:    b672        r.      CPSID    i
        0x0000016a:    4770        pG      BX       lr
    am_hal_interrupt_master_set
        0x0000016c:    f3808810    ....    MSR      PRIMASK,r0
        0x00000170:    4770        pG      BX       lr
        0x00000172:    0000        ..      MOVS     r0,r0
    .text
    $v0
    __user_initial_stackheap
        0x00000174:    4802        .H      LDR      r0,[pc,#8] ; [0x180] = 0x10001348
        0x00000176:    4903        .I      LDR      r1,[pc,#12] ; [0x184] = 0x10001548
        0x00000178:    4a01        .J      LDR      r2,[pc,#4] ; [0x180] = 0x10001348
        0x0000017a:    4b03        .K      LDR      r3,[pc,#12] ; [0x188] = 0x10001348
        0x0000017c:    4770        pG      BX       lr
    $d
        0x0000017e:    0000        ..      DCW    0
        0x00000180:    10001348    H...    DCD    268440392
        0x00000184:    10001548    H...    DCD    268440904
        0x00000188:    10001348    H...    DCD    268440392
    $t
    .text
    __aeabi_memcpy4
    __aeabi_memcpy8
    __rt_memcpy_w
        0x0000018c:    b510        ..      PUSH     {r4,lr}
        0x0000018e:    3a20         :      SUBS     r2,r2,#0x20
        0x00000190:    f0c0800b    ....    BCC.W    0x1aa ; __aeabi_memcpy4 + 30
        0x00000194:    e8b15018    ...P    LDM      r1!,{r3,r4,r12,lr}
        0x00000198:    3a20         :      SUBS     r2,r2,#0x20
        0x0000019a:    e8a05018    ...P    STM      r0!,{r3,r4,r12,lr}
        0x0000019e:    e8b15018    ...P    LDM      r1!,{r3,r4,r12,lr}
        0x000001a2:    e8a05018    ...P    STM      r0!,{r3,r4,r12,lr}
        0x000001a6:    f4bfaff5    ....    BCS.W    0x194 ; __aeabi_memcpy4 + 8
        0x000001aa:    ea5f7c02    _..|    LSLS     r12,r2,#28
        0x000001ae:    bf24        $.      ITT      CS
        0x000001b0:    e8b15018    ...P    LDMCS    r1!,{r3,r4,r12,lr}
        0x000001b4:    e8a05018    ...P    STMCS    r0!,{r3,r4,r12,lr}
        0x000001b8:    bf44        D.      ITT      MI
        0x000001ba:    c918        ..      LDMMI    r1!,{r3,r4}
        0x000001bc:    c018        ..      STMMI    r0!,{r3,r4}
        0x000001be:    e8bd4010    ...@    POP      {r4,lr}
        0x000001c2:    ea5f7c82    _..|    LSLS     r12,r2,#30
        0x000001c6:    bf24        $.      ITT      CS
        0x000001c8:    f8513b04    Q..;    LDRCS    r3,[r1],#4
        0x000001cc:    f8403b04    @..;    STRCS    r3,[r0],#4
        0x000001d0:    bf08        ..      IT       EQ
        0x000001d2:    4770        pG      BXEQ     lr
    _memcpy_lastbytes_aligned
        0x000001d4:    07d2        ..      LSLS     r2,r2,#31
        0x000001d6:    bf28        (.      IT       CS
        0x000001d8:    f8313b02    1..;    LDRHCS   r3,[r1],#2
        0x000001dc:    bf48        H.      IT       MI
        0x000001de:    f8112b01    ...+    LDRBMI   r2,[r1],#1
        0x000001e2:    bf28        (.      IT       CS
        0x000001e4:    f8203b02     ..;    STRHCS   r3,[r0],#2
        0x000001e8:    bf48        H.      IT       MI
        0x000001ea:    f8002b01    ...+    STRBMI   r2,[r0],#1
        0x000001ee:    4770        pG      BX       lr
    .text
    __use_two_region_memory
        0x000001f0:    4770        pG      BX       lr
    __rt_heap_escrow$2region
        0x000001f2:    4770        pG      BX       lr
    __rt_heap_expand$2region
        0x000001f4:    4770        pG      BX       lr
    .text
    __user_setup_stackheap
        0x000001f6:    4675        uF      MOV      r5,lr
        0x000001f8:    f000f82c    ..,.    BL       __user_libspace ; 0x254
        0x000001fc:    46ae        .F      MOV      lr,r5
        0x000001fe:    0005        ..      MOVS     r5,r0
        0x00000200:    4669        iF      MOV      r1,sp
        0x00000202:    4653        SF      MOV      r3,r10
        0x00000204:    f0200007     ...    BIC      r0,r0,#7
        0x00000208:    4685        .F      MOV      sp,r0
        0x0000020a:    b018        ..      ADD      sp,sp,#0x60
        0x0000020c:    b520         .      PUSH     {r5,lr}
        0x0000020e:    f7ffffb1    ....    BL       __user_initial_stackheap ; 0x174
        0x00000212:    e8bd4020    .. @    POP      {r5,lr}
        0x00000216:    f04f0600    O...    MOV      r6,#0
        0x0000021a:    f04f0700    O...    MOV      r7,#0
        0x0000021e:    f04f0800    O...    MOV      r8,#0
        0x00000222:    f04f0b00    O...    MOV      r11,#0
        0x00000226:    f0210107    !...    BIC      r1,r1,#7
        0x0000022a:    46ac        .F      MOV      r12,r5
        0x0000022c:    e8ac09c0    ....    STM      r12!,{r6-r8,r11}
        0x00000230:    e8ac09c0    ....    STM      r12!,{r6-r8,r11}
        0x00000234:    e8ac09c0    ....    STM      r12!,{r6-r8,r11}
        0x00000238:    e8ac09c0    ....    STM      r12!,{r6-r8,r11}
        0x0000023c:    468d        .F      MOV      sp,r1
        0x0000023e:    4770        pG      BX       lr
    .text
    exit
        0x00000240:    b510        ..      PUSH     {r4,lr}
        0x00000242:    4604        .F      MOV      r4,r0
        0x00000244:    f3af8000    ....    NOP.W    
        0x00000248:    4620         F      MOV      r0,r4
        0x0000024a:    e8bd4010    ...@    POP      {r4,lr}
        0x0000024e:    f7ffbf70    ..p.    B.W      __rt_exit ; 0x132
        0x00000252:    0000        ..      MOVS     r0,r0
    .text
    __user_libspace
    __user_perproc_libspace
    __user_perthread_libspace
        0x00000254:    4800        .H      LDR      r0,[pc,#0] ; [0x258] = 0x100012e8
        0x00000256:    4770        pG      BX       lr
    $d
        0x00000258:    100012e8    ....    DCD    268440296
    $t
    .text
    _sys_exit
        0x0000025c:    4901        .I      LDR      r1,[pc,#4] ; [0x264] = 0x20026
        0x0000025e:    2018        .       MOVS     r0,#0x18
        0x00000260:    beab        ..      BKPT     #0xab
        0x00000262:    e7fe        ..      B        0x262 ; _sys_exit + 6
    $d
        0x00000264:    00020026    &...    DCD    131110
    $t
    .text
    __I$use$semihosting
    __use_no_semihosting_swi
        0x00000268:    4770        pG      BX       lr
    .text
    __semihosting_library_function
        0x0000026a:    0000        ..      MOVS     r0,r0
    i.am_bootloader_boot_from_storage
    am_bootloader_boot_from_storage
        0x0000026c:    b570        p.      PUSH     {r4-r6,lr}
        0x0000026e:    b090        ..      SUB      sp,sp,#0x40
        0x00000270:    4604        .F      MOV      r4,r0
        0x00000272:    69e0        .i      LDR      r0,[r4,#0x1c]
        0x00000274:    2801        .(      CMP      r0,#1
        0x00000276:    d113        ..      BNE      0x2a0 ; am_bootloader_boot_from_storage + 52
        0x00000278:    2101        .!      MOVS     r1,#1
        0x0000027a:    4620         F      MOV      r0,r4
        0x0000027c:    f000f9d6    ....    BL       am_bootloader_new_image_check ; 0x62c
        0x00000280:    b908        ..      CBNZ     r0,0x286 ; am_bootloader_boot_from_storage + 26
        0x00000282:    b010        ..      ADD      sp,sp,#0x40
        0x00000284:    bd70        p.      POP      {r4-r6,pc}
        0x00000286:    e9d40200    ....    LDRD     r0,r2,[r4,#0]
        0x0000028a:    6aa1        .j      LDR      r1,[r4,#0x28]
        0x0000028c:    f001fd30    ..0.    BL       image_load_from_internal_flash ; 0x1cf0
        0x00000290:    e9d40100    ....    LDRD     r0,r1,[r4,#0]
        0x00000294:    f000f87a    ..z.    BL       am_bootloader_fast_crc32 ; 0x38c
        0x00000298:    68a1        .h      LDR      r1,[r4,#8]
        0x0000029a:    4288        .B      CMP      r0,r1
        0x0000029c:    d054        T.      BEQ      0x348 ; am_bootloader_boot_from_storage + 220
        0x0000029e:    e7f0        ..      B        0x282 ; am_bootloader_boot_from_storage + 22
        0x000002a0:    69e0        .i      LDR      r0,[r4,#0x1c]
        0x000002a2:    2802        .(      CMP      r0,#2
        0x000002a4:    d150        P.      BNE      0x348 ; am_bootloader_boot_from_storage + 220
        0x000002a6:    4936        6I      LDR      r1,[pc,#216] ; [0x380] = 0x1000000c
        0x000002a8:    2001        .       MOVS     r0,#1
        0x000002aa:    f000fbcd    ....    BL       am_hal_iom_config ; 0xa48
        0x000002ae:    f001fba3    ....    BL       configure_spiflash_pins ; 0x19f8
        0x000002b2:    4834        4H      LDR      r0,[pc,#208] ; [0x384] = 0x10000004
        0x000002b4:    f000fa78    ..x.    BL       am_devices_spiflash_init ; 0x7a8
        0x000002b8:    2001        .       MOVS     r0,#1
        0x000002ba:    f000fa33    ..3.    BL       am_bsp_iom_spi_pins_enable ; 0x724
        0x000002be:    2001        .       MOVS     r0,#1
        0x000002c0:    f000fc2e    ....    BL       am_hal_iom_enable ; 0xb20
        0x000002c4:    2000        .       MOVS     r0,#0
        0x000002c6:    9000        ..      STR      r0,[sp,#0]
        0x000002c8:    2600        .&      MOVS     r6,#0
        0x000002ca:    e00f        ..      B        0x2ec ; am_bootloader_boot_from_storage + 128
        0x000002cc:    6aa0        .j      LDR      r0,[r4,#0x28]
        0x000002ce:    eb0021c6    ...!    ADD      r1,r0,r6,LSL #11
        0x000002d2:    f44f6200    O..b    MOV      r2,#0x800
        0x000002d6:    482c        ,H      LDR      r0,[pc,#176] ; [0x388] = 0x100000c8
        0x000002d8:    f000fa6c    ..l.    BL       am_devices_spiflash_read ; 0x7b4
        0x000002dc:    466a        jF      MOV      r2,sp
        0x000002de:    f44f6100    O..a    MOV      r1,#0x800
        0x000002e2:    4829        )H      LDR      r0,[pc,#164] ; [0x388] = 0x100000c8
        0x000002e4:    f000f9da    ....    BL       am_bootloader_partial_crc32 ; 0x69c
        0x000002e8:    1c70        p.      ADDS     r0,r6,#1
        0x000002ea:    b286        ..      UXTH     r6,r0
        0x000002ec:    6860        `h      LDR      r0,[r4,#4]
        0x000002ee:    ebb62fd0    .../    CMP      r6,r0,LSR #11
        0x000002f2:    d3eb        ..      BCC      0x2cc ; am_bootloader_boot_from_storage + 96
        0x000002f4:    88a0        ..      LDRH     r0,[r4,#4]
        0x000002f6:    f3c0050a    ....    UBFX     r5,r0,#0,#11
        0x000002fa:    b165        e.      CBZ      r5,0x316 ; am_bootloader_boot_from_storage + 170
        0x000002fc:    6862        bh      LDR      r2,[r4,#4]
        0x000002fe:    6aa0        .j      LDR      r0,[r4,#0x28]
        0x00000300:    4410        .D      ADD      r0,r0,r2
        0x00000302:    1b41        A.      SUBS     r1,r0,r5
        0x00000304:    462a        *F      MOV      r2,r5
        0x00000306:    4820         H      LDR      r0,[pc,#128] ; [0x388] = 0x100000c8
        0x00000308:    f000fa54    ..T.    BL       am_devices_spiflash_read ; 0x7b4
        0x0000030c:    466a        jF      MOV      r2,sp
        0x0000030e:    4629        )F      MOV      r1,r5
        0x00000310:    481d        .H      LDR      r0,[pc,#116] ; [0x388] = 0x100000c8
        0x00000312:    f000f9c3    ....    BL       am_bootloader_partial_crc32 ; 0x69c
        0x00000316:    2001        .       MOVS     r0,#1
        0x00000318:    f000f9d6    ....    BL       am_bsp_iom_spi_pins_disable ; 0x6c8
        0x0000031c:    2001        .       MOVS     r0,#1
        0x0000031e:    f000fbbf    ....    BL       am_hal_iom_disable ; 0xaa0
        0x00000322:    68a0        .h      LDR      r0,[r4,#8]
        0x00000324:    9900        ..      LDR      r1,[sp,#0]
        0x00000326:    4288        .B      CMP      r0,r1
        0x00000328:    d000        ..      BEQ      0x32c ; am_bootloader_boot_from_storage + 192
        0x0000032a:    e7aa        ..      B        0x282 ; am_bootloader_boot_from_storage + 22
        0x0000032c:    e9d40200    ....    LDRD     r0,r2,[r4,#0]
        0x00000330:    6aa1        .j      LDR      r1,[r4,#0x28]
        0x00000332:    f001fc6d    ..m.    BL       image_load_from_external_flash ; 0x1c10
        0x00000336:    e9d40100    ....    LDRD     r0,r1,[r4,#0]
        0x0000033a:    f000f827    ..'.    BL       am_bootloader_fast_crc32 ; 0x38c
        0x0000033e:    68a1        .h      LDR      r1,[r4,#8]
        0x00000340:    4288        .B      CMP      r0,r1
        0x00000342:    d000        ..      BEQ      0x346 ; am_bootloader_boot_from_storage + 218
        0x00000344:    e79d        ..      B        0x282 ; am_bootloader_boot_from_storage + 22
        0x00000346:    bf00        ..      NOP      
        0x00000348:    6820         h      LDR      r0,[r4,#0]
        0x0000034a:    9001        ..      STR      r0,[sp,#4]
        0x0000034c:    6860        `h      LDR      r0,[r4,#4]
        0x0000034e:    9002        ..      STR      r0,[sp,#8]
        0x00000350:    68a0        .h      LDR      r0,[r4,#8]
        0x00000352:    9003        ..      STR      r0,[sp,#0xc]
        0x00000354:    68e0        .h      LDR      r0,[r4,#0xc]
        0x00000356:    9004        ..      STR      r0,[sp,#0x10]
        0x00000358:    6920         i      LDR      r0,[r4,#0x10]
        0x0000035a:    9005        ..      STR      r0,[sp,#0x14]
        0x0000035c:    6960        `i      LDR      r0,[r4,#0x14]
        0x0000035e:    9006        ..      STR      r0,[sp,#0x18]
        0x00000360:    69a0        .i      LDR      r0,[r4,#0x18]
        0x00000362:    9007        ..      STR      r0,[sp,#0x1c]
        0x00000364:    f8940038    ..8.    LDRB     r0,[r4,#0x38]
        0x00000368:    f88d003c    ..<.    STRB     r0,[sp,#0x3c]
        0x0000036c:    f04f30ff    O..0    MOV      r0,#0xffffffff
        0x00000370:    9008        ..      STR      r0,[sp,#0x20]
        0x00000372:    900b        ..      STR      r0,[sp,#0x2c]
        0x00000374:    4621        !F      MOV      r1,r4
        0x00000376:    a801        ..      ADD      r0,sp,#4
        0x00000378:    f000f81e    ....    BL       am_bootloader_flag_page_update ; 0x3b8
        0x0000037c:    bf00        ..      NOP      
        0x0000037e:    e780        ..      B        0x282 ; am_bootloader_boot_from_storage + 22
    $d
        0x00000380:    1000000c    ....    DCD    268435468
        0x00000384:    10000004    ....    DCD    268435460
        0x00000388:    100000c8    ....    DCD    268435656
    $t
    i.am_bootloader_fast_crc32
    am_bootloader_fast_crc32
        0x0000038c:    b570        p.      PUSH     {r4-r6,lr}
        0x0000038e:    4602        .F      MOV      r2,r0
        0x00000390:    460b        .F      MOV      r3,r1
        0x00000392:    2000        .       MOVS     r0,#0
        0x00000394:    4615        .F      MOV      r5,r2
        0x00000396:    2100        .!      MOVS     r1,#0
        0x00000398:    e008        ..      B        0x3ac ; am_bootloader_fast_crc32 + 32
        0x0000039a:    5c6e        n\      LDRB     r6,[r5,r1]
        0x0000039c:    ea866410    ...d    EOR      r4,r6,r0,LSR #24
        0x000003a0:    4e04        .N      LDR      r6,[pc,#16] ; [0x3b4] = 0x2208
        0x000003a2:    f8566024    V.$`    LDR      r6,[r6,r4,LSL #2]
        0x000003a6:    ea862000    ...     EOR      r0,r6,r0,LSL #8
        0x000003aa:    1c49        I.      ADDS     r1,r1,#1
        0x000003ac:    4299        .B      CMP      r1,r3
        0x000003ae:    d3f4        ..      BCC      0x39a ; am_bootloader_fast_crc32 + 14
        0x000003b0:    bd70        p.      POP      {r4-r6,pc}
    $d
        0x000003b2:    0000        ..      DCW    0
        0x000003b4:    00002208    ."..    DCD    8712
    $t
    i.am_bootloader_flag_page_update
    am_bootloader_flag_page_update
        0x000003b8:    e92d47f0    -..G    PUSH     {r4-r10,lr}
        0x000003bc:    4605        .F      MOV      r5,r0
        0x000003be:    460c        .F      MOV      r4,r1
        0x000003c0:    f3c427c6    ...'    UBFX     r7,r4,#11,#7
        0x000003c4:    f3c44680    ...F    UBFX     r6,r4,#18,#1
        0x000003c8:    f7fffecc    ....    BL       am_hal_interrupt_master_disable ; 0x164
        0x000003cc:    4681        .F      MOV      r9,r0
        0x000003ce:    463a        :F      MOV      r2,r7
        0x000003d0:    4631        1F      MOV      r1,r6
        0x000003d2:    4808        .H      LDR      r0,[pc,#32] ; [0x3f4] = 0x12344321
        0x000003d4:    f000fade    ....    BL       am_hal_flash_page_erase ; 0x994
        0x000003d8:    4680        .F      MOV      r8,r0
        0x000003da:    230f        .#      MOVS     r3,#0xf
        0x000003dc:    4622        "F      MOV      r2,r4
        0x000003de:    4629        )F      MOV      r1,r5
        0x000003e0:    4804        .H      LDR      r0,[pc,#16] ; [0x3f4] = 0x12344321
        0x000003e2:    f000fadd    ....    BL       am_hal_flash_program_main ; 0x9a0
        0x000003e6:    4680        .F      MOV      r8,r0
        0x000003e8:    4648        HF      MOV      r0,r9
        0x000003ea:    f7fffebf    ....    BL       am_hal_interrupt_master_set ; 0x16c
        0x000003ee:    4640        @F      MOV      r0,r8
        0x000003f0:    e8bd87f0    ....    POP      {r4-r10,pc}
    $d
        0x000003f4:    12344321    !C4.    DCD    305414945
    $t
    i.am_bootloader_flash_check
    am_bootloader_flash_check
        0x000003f8:    b5f0        ..      PUSH     {r4-r7,lr}
        0x000003fa:    4604        .F      MOV      r4,r0
        0x000003fc:    6827        'h      LDR      r7,[r4,#0]
        0x000003fe:    f5b72f00    .../    CMP      r7,#0x80000
        0x00000402:    d901        ..      BLS      0x408 ; am_bootloader_flash_check + 16
        0x00000404:    2000        .       MOVS     r0,#0
        0x00000406:    bdf0        ..      POP      {r4-r7,pc}
        0x00000408:    f8940038    ..8.    LDRB     r0,[r4,#0x38]
        0x0000040c:    b920         .      CBNZ     r0,0x418 ; am_bootloader_flash_check + 32
        0x0000040e:    6820         h      LDR      r0,[r4,#0]
        0x00000410:    6806        .h      LDR      r6,[r0,#0]
        0x00000412:    6820         h      LDR      r0,[r4,#0]
        0x00000414:    6845        Eh      LDR      r5,[r0,#4]
        0x00000416:    e001        ..      B        0x41c ; am_bootloader_flash_check + 36
        0x00000418:    6966        fi      LDR      r6,[r4,#0x14]
        0x0000041a:    69a5        .i      LDR      r5,[r4,#0x18]
        0x0000041c:    f1b65f80    ..._    CMP      r6,#0x10000000
        0x00000420:    d302        ..      BCC      0x428 ; am_bootloader_flash_check + 48
        0x00000422:    f1b65f00    ..._    CMP      r6,#0x20000000
        0x00000426:    d301        ..      BCC      0x42c ; am_bootloader_flash_check + 52
        0x00000428:    2000        .       MOVS     r0,#0
        0x0000042a:    e7ec        ..      B        0x406 ; am_bootloader_flash_check + 14
        0x0000042c:    42bd        .B      CMP      r5,r7
        0x0000042e:    d303        ..      BCC      0x438 ; am_bootloader_flash_check + 64
        0x00000430:    6860        `h      LDR      r0,[r4,#4]
        0x00000432:    4438        8D      ADD      r0,r0,r7
        0x00000434:    42a8        .B      CMP      r0,r5
        0x00000436:    d201        ..      BCS      0x43c ; am_bootloader_flash_check + 68
        0x00000438:    2000        .       MOVS     r0,#0
        0x0000043a:    e7e4        ..      B        0x406 ; am_bootloader_flash_check + 14
        0x0000043c:    f8940038    ..8.    LDRB     r0,[r4,#0x38]
        0x00000440:    b940        @.      CBNZ     r0,0x454 ; am_bootloader_flash_check + 92
        0x00000442:    e9d40100    ....    LDRD     r0,r1,[r4,#0]
        0x00000446:    f7ffffa1    ....    BL       am_bootloader_fast_crc32 ; 0x38c
        0x0000044a:    68a1        .h      LDR      r1,[r4,#8]
        0x0000044c:    4288        .B      CMP      r0,r1
        0x0000044e:    d001        ..      BEQ      0x454 ; am_bootloader_flash_check + 92
        0x00000450:    2000        .       MOVS     r0,#0
        0x00000452:    e7d8        ..      B        0x406 ; am_bootloader_flash_check + 14
        0x00000454:    2001        .       MOVS     r0,#1
        0x00000456:    e7d6        ..      B        0x406 ; am_bootloader_flash_check + 14
    i.am_bootloader_image_check
    am_bootloader_image_check
        0x00000458:    b510        ..      PUSH     {r4,lr}
        0x0000045a:    4604        .F      MOV      r4,r0
        0x0000045c:    68e0        .h      LDR      r0,[r4,#0xc]
        0x0000045e:    1c40        @.      ADDS     r0,r0,#1
        0x00000460:    2800        .(      CMP      r0,#0
        0x00000462:    d07d        }.      BEQ      0x560 ; am_bootloader_image_check + 264
        0x00000464:    bf00        ..      NOP      
        0x00000466:    68e0        .h      LDR      r0,[r4,#0xc]
        0x00000468:    2800        .(      CMP      r0,#0
        0x0000046a:    da00        ..      BGE      0x46e ; am_bootloader_image_check + 22
        0x0000046c:    e035        5.      B        0x4da ; am_bootloader_image_check + 130
        0x0000046e:    2073        s       MOVS     r0,#0x73
        0x00000470:    4a6d        mJ      LDR      r2,[pc,#436] ; [0x628] = 0x40010000
        0x00000472:    6610        .f      STR      r0,[r2,#0x60]
        0x00000474:    7b20         {      LDRB     r0,[r4,#0xc]
        0x00000476:    f00000f8    ....    AND      r0,r0,#0xf8
        0x0000047a:    eb020050    ..P.    ADD      r0,r2,r0,LSR #1
        0x0000047e:    6c00        .l      LDR      r0,[r0,#0x40]
        0x00000480:    7b22        "{      LDRB     r2,[r4,#0xc]
        0x00000482:    0752        R.      LSLS     r2,r2,#29
        0x00000484:    0ed3        ..      LSRS     r3,r2,#27
        0x00000486:    2207        ."      MOVS     r2,#7
        0x00000488:    409a        .@      LSLS     r2,r2,r3
        0x0000048a:    4390        .C      BICS     r0,r0,r2
        0x0000048c:    7b22        "{      LDRB     r2,[r4,#0xc]
        0x0000048e:    0752        R.      LSLS     r2,r2,#29
        0x00000490:    0ed3        ..      LSRS     r3,r2,#27
        0x00000492:    2200        ."      MOVS     r2,#0
        0x00000494:    409a        .@      LSLS     r2,r2,r3
        0x00000496:    4310        .C      ORRS     r0,r0,r2
        0x00000498:    7b22        "{      LDRB     r2,[r4,#0xc]
        0x0000049a:    f00202f8    ....    AND      r2,r2,#0xf8
        0x0000049e:    4b62        bK      LDR      r3,[pc,#392] ; [0x628] = 0x40010000
        0x000004a0:    eb030252    ..R.    ADD      r2,r3,r2,LSR #1
        0x000004a4:    6410        .d      STR      r0,[r2,#0x40]
        0x000004a6:    7b20         {      LDRB     r0,[r4,#0xc]
        0x000004a8:    f00000fc    ....    AND      r0,r0,#0xfc
        0x000004ac:    461a        .F      MOV      r2,r3
        0x000004ae:    5880        .X      LDR      r0,[r0,r2]
        0x000004b0:    7b22        "{      LDRB     r2,[r4,#0xc]
        0x000004b2:    0792        ..      LSLS     r2,r2,#30
        0x000004b4:    0ed3        ..      LSRS     r3,r2,#27
        0x000004b6:    22ff        ."      MOVS     r2,#0xff
        0x000004b8:    409a        .@      LSLS     r2,r2,r3
        0x000004ba:    4390        .C      BICS     r0,r0,r2
        0x000004bc:    7b22        "{      LDRB     r2,[r4,#0xc]
        0x000004be:    0792        ..      LSLS     r2,r2,#30
        0x000004c0:    0ed3        ..      LSRS     r3,r2,#27
        0x000004c2:    221a        ."      MOVS     r2,#0x1a
        0x000004c4:    409a        .@      LSLS     r2,r2,r3
        0x000004c6:    4310        .C      ORRS     r0,r0,r2
        0x000004c8:    7b22        "{      LDRB     r2,[r4,#0xc]
        0x000004ca:    f00202fc    ....    AND      r2,r2,#0xfc
        0x000004ce:    4b56        VK      LDR      r3,[pc,#344] ; [0x628] = 0x40010000
        0x000004d0:    50d0        .P      STR      r0,[r2,r3]
        0x000004d2:    2000        .       MOVS     r0,#0
        0x000004d4:    461a        .F      MOV      r2,r3
        0x000004d6:    6610        .f      STR      r0,[r2,#0x60]
        0x000004d8:    bf00        ..      NOP      
        0x000004da:    bf00        ..      NOP      
        0x000004dc:    7b20         {      LDRB     r0,[r4,#0xc]
        0x000004de:    f0000020    .. .    AND      r0,r0,#0x20
        0x000004e2:    4a51        QJ      LDR      r2,[pc,#324] ; [0x628] = 0x40010000
        0x000004e4:    eb0200d0    ....    ADD      r0,r2,r0,LSR #3
        0x000004e8:    f8d00080    ....    LDR      r0,[r0,#0x80]
        0x000004ec:    7b22        "{      LDRB     r2,[r4,#0xc]
        0x000004ee:    f002031f    ....    AND      r3,r2,#0x1f
        0x000004f2:    2201        ."      MOVS     r2,#1
        0x000004f4:    409a        .@      LSLS     r2,r2,r3
        0x000004f6:    4010        .@      ANDS     r0,r0,r2
        0x000004f8:    b108        ..      CBZ      r0,0x4fe ; am_bootloader_image_check + 166
        0x000004fa:    2001        .       MOVS     r0,#1
        0x000004fc:    e000        ..      B        0x500 ; am_bootloader_image_check + 168
        0x000004fe:    2000        .       MOVS     r0,#0
        0x00000500:    4601        .F      MOV      r1,r0
        0x00000502:    7c20         |      LDRB     r0,[r4,#0x10]
        0x00000504:    f0000001    ....    AND      r0,r0,#1
        0x00000508:    4288        .B      CMP      r0,r1
        0x0000050a:    d13f        ?.      BNE      0x58c ; am_bootloader_image_check + 308
        0x0000050c:    bf00        ..      NOP      
        0x0000050e:    68e0        .h      LDR      r0,[r4,#0xc]
        0x00000510:    2800        .(      CMP      r0,#0
        0x00000512:    da00        ..      BGE      0x516 ; am_bootloader_image_check + 190
        0x00000514:    e037        7.      B        0x586 ; am_bootloader_image_check + 302
        0x00000516:    2073        s       MOVS     r0,#0x73
        0x00000518:    4a43        CJ      LDR      r2,[pc,#268] ; [0x628] = 0x40010000
        0x0000051a:    6610        .f      STR      r0,[r2,#0x60]
        0x0000051c:    7b20         {      LDRB     r0,[r4,#0xc]
        0x0000051e:    f00000f8    ....    AND      r0,r0,#0xf8
        0x00000522:    eb020050    ..P.    ADD      r0,r2,r0,LSR #1
        0x00000526:    6c00        .l      LDR      r0,[r0,#0x40]
        0x00000528:    7b22        "{      LDRB     r2,[r4,#0xc]
        0x0000052a:    0752        R.      LSLS     r2,r2,#29
        0x0000052c:    0ed3        ..      LSRS     r3,r2,#27
        0x0000052e:    2207        ."      MOVS     r2,#7
        0x00000530:    409a        .@      LSLS     r2,r2,r3
        0x00000532:    4390        .C      BICS     r0,r0,r2
        0x00000534:    7b22        "{      LDRB     r2,[r4,#0xc]
        0x00000536:    0752        R.      LSLS     r2,r2,#29
        0x00000538:    0ed3        ..      LSRS     r3,r2,#27
        0x0000053a:    2200        ."      MOVS     r2,#0
        0x0000053c:    409a        .@      LSLS     r2,r2,r3
        0x0000053e:    4310        .C      ORRS     r0,r0,r2
        0x00000540:    7b22        "{      LDRB     r2,[r4,#0xc]
        0x00000542:    f00202f8    ....    AND      r2,r2,#0xf8
        0x00000546:    4b38        8K      LDR      r3,[pc,#224] ; [0x628] = 0x40010000
        0x00000548:    eb030252    ..R.    ADD      r2,r3,r2,LSR #1
        0x0000054c:    6410        .d      STR      r0,[r2,#0x40]
        0x0000054e:    7b20         {      LDRB     r0,[r4,#0xc]
        0x00000550:    f00000fc    ....    AND      r0,r0,#0xfc
        0x00000554:    461a        .F      MOV      r2,r3
        0x00000556:    5880        .X      LDR      r0,[r0,r2]
        0x00000558:    7b22        "{      LDRB     r2,[r4,#0xc]
        0x0000055a:    0792        ..      LSLS     r2,r2,#30
        0x0000055c:    0ed3        ..      LSRS     r3,r2,#27
        0x0000055e:    e000        ..      B        0x562 ; am_bootloader_image_check + 266
        0x00000560:    e051        Q.      B        0x606 ; am_bootloader_image_check + 430
        0x00000562:    22ff        ."      MOVS     r2,#0xff
        0x00000564:    409a        .@      LSLS     r2,r2,r3
        0x00000566:    4390        .C      BICS     r0,r0,r2
        0x00000568:    7b22        "{      LDRB     r2,[r4,#0xc]
        0x0000056a:    0792        ..      LSLS     r2,r2,#30
        0x0000056c:    0ed3        ..      LSRS     r3,r2,#27
        0x0000056e:    2218        ."      MOVS     r2,#0x18
        0x00000570:    409a        .@      LSLS     r2,r2,r3
        0x00000572:    4310        .C      ORRS     r0,r0,r2
        0x00000574:    7b22        "{      LDRB     r2,[r4,#0xc]
        0x00000576:    f00202fc    ....    AND      r2,r2,#0xfc
        0x0000057a:    4b2b        +K      LDR      r3,[pc,#172] ; [0x628] = 0x40010000
        0x0000057c:    50d0        .P      STR      r0,[r2,r3]
        0x0000057e:    2000        .       MOVS     r0,#0
        0x00000580:    461a        .F      MOV      r2,r3
        0x00000582:    6610        .f      STR      r0,[r2,#0x60]
        0x00000584:    bf00        ..      NOP      
        0x00000586:    bf00        ..      NOP      
        0x00000588:    2000        .       MOVS     r0,#0
        0x0000058a:    bd10        ..      POP      {r4,pc}
        0x0000058c:    bf00        ..      NOP      
        0x0000058e:    68e0        .h      LDR      r0,[r4,#0xc]
        0x00000590:    2800        .(      CMP      r0,#0
        0x00000592:    da00        ..      BGE      0x596 ; am_bootloader_image_check + 318
        0x00000594:    e035        5.      B        0x602 ; am_bootloader_image_check + 426
        0x00000596:    2073        s       MOVS     r0,#0x73
        0x00000598:    4a23        #J      LDR      r2,[pc,#140] ; [0x628] = 0x40010000
        0x0000059a:    6610        .f      STR      r0,[r2,#0x60]
        0x0000059c:    7b20         {      LDRB     r0,[r4,#0xc]
        0x0000059e:    f00000f8    ....    AND      r0,r0,#0xf8
        0x000005a2:    eb020050    ..P.    ADD      r0,r2,r0,LSR #1
        0x000005a6:    6c00        .l      LDR      r0,[r0,#0x40]
        0x000005a8:    7b22        "{      LDRB     r2,[r4,#0xc]
        0x000005aa:    0752        R.      LSLS     r2,r2,#29
        0x000005ac:    0ed3        ..      LSRS     r3,r2,#27
        0x000005ae:    2207        ."      MOVS     r2,#7
        0x000005b0:    409a        .@      LSLS     r2,r2,r3
        0x000005b2:    4390        .C      BICS     r0,r0,r2
        0x000005b4:    7b22        "{      LDRB     r2,[r4,#0xc]
        0x000005b6:    0752        R.      LSLS     r2,r2,#29
        0x000005b8:    0ed3        ..      LSRS     r3,r2,#27
        0x000005ba:    2200        ."      MOVS     r2,#0
        0x000005bc:    409a        .@      LSLS     r2,r2,r3
        0x000005be:    4310        .C      ORRS     r0,r0,r2
        0x000005c0:    7b22        "{      LDRB     r2,[r4,#0xc]
        0x000005c2:    f00202f8    ....    AND      r2,r2,#0xf8
        0x000005c6:    4b18        .K      LDR      r3,[pc,#96] ; [0x628] = 0x40010000
        0x000005c8:    eb030252    ..R.    ADD      r2,r3,r2,LSR #1
        0x000005cc:    6410        .d      STR      r0,[r2,#0x40]
        0x000005ce:    7b20         {      LDRB     r0,[r4,#0xc]
        0x000005d0:    f00000fc    ....    AND      r0,r0,#0xfc
        0x000005d4:    461a        .F      MOV      r2,r3
        0x000005d6:    5880        .X      LDR      r0,[r0,r2]
        0x000005d8:    7b22        "{      LDRB     r2,[r4,#0xc]
        0x000005da:    0792        ..      LSLS     r2,r2,#30
        0x000005dc:    0ed3        ..      LSRS     r3,r2,#27
        0x000005de:    22ff        ."      MOVS     r2,#0xff
        0x000005e0:    409a        .@      LSLS     r2,r2,r3
        0x000005e2:    4390        .C      BICS     r0,r0,r2
        0x000005e4:    7b22        "{      LDRB     r2,[r4,#0xc]
        0x000005e6:    0792        ..      LSLS     r2,r2,#30
        0x000005e8:    0ed3        ..      LSRS     r3,r2,#27
        0x000005ea:    2218        ."      MOVS     r2,#0x18
        0x000005ec:    409a        .@      LSLS     r2,r2,r3
        0x000005ee:    4310        .C      ORRS     r0,r0,r2
        0x000005f0:    7b22        "{      LDRB     r2,[r4,#0xc]
        0x000005f2:    f00202fc    ....    AND      r2,r2,#0xfc
        0x000005f6:    4b0c        .K      LDR      r3,[pc,#48] ; [0x628] = 0x40010000
        0x000005f8:    50d0        .P      STR      r0,[r2,r3]
        0x000005fa:    2000        .       MOVS     r0,#0
        0x000005fc:    461a        .F      MOV      r2,r3
        0x000005fe:    6610        .f      STR      r0,[r2,#0x60]
        0x00000600:    bf00        ..      NOP      
        0x00000602:    bf00        ..      NOP      
        0x00000604:    bf00        ..      NOP      
        0x00000606:    69e0        .i      LDR      r0,[r4,#0x1c]
        0x00000608:    1c40        @.      ADDS     r0,r0,#1
        0x0000060a:    b140        @.      CBZ      r0,0x61e ; am_bootloader_image_check + 454
        0x0000060c:    69e0        .i      LDR      r0,[r4,#0x1c]
        0x0000060e:    2801        .(      CMP      r0,#1
        0x00000610:    d002        ..      BEQ      0x618 ; am_bootloader_image_check + 448
        0x00000612:    69e0        .i      LDR      r0,[r4,#0x1c]
        0x00000614:    2802        .(      CMP      r0,#2
        0x00000616:    d102        ..      BNE      0x61e ; am_bootloader_image_check + 454
        0x00000618:    4620         F      MOV      r0,r4
        0x0000061a:    f7fffe27    ..'.    BL       am_bootloader_boot_from_storage ; 0x26c
        0x0000061e:    4620         F      MOV      r0,r4
        0x00000620:    f7fffeea    ....    BL       am_bootloader_flash_check ; 0x3f8
        0x00000624:    e7b1        ..      B        0x58a ; am_bootloader_image_check + 306
    $d
        0x00000626:    0000        ..      DCW    0
        0x00000628:    40010000    ...@    DCD    1073807360
    $t
    i.am_bootloader_new_image_check
    am_bootloader_new_image_check
        0x0000062c:    e92d41f0    -..A    PUSH     {r4-r8,lr}
        0x00000630:    4604        .F      MOV      r4,r0
        0x00000632:    4688        .F      MOV      r8,r1
        0x00000634:    6827        'h      LDR      r7,[r4,#0]
        0x00000636:    f5b72f00    .../    CMP      r7,#0x80000
        0x0000063a:    d902        ..      BLS      0x642 ; am_bootloader_new_image_check + 22
        0x0000063c:    2000        .       MOVS     r0,#0
        0x0000063e:    e8bd81f0    ....    POP      {r4-r8,pc}
        0x00000642:    f8940038    ..8.    LDRB     r0,[r4,#0x38]
        0x00000646:    b920         .      CBNZ     r0,0x652 ; am_bootloader_new_image_check + 38
        0x00000648:    6aa0        .j      LDR      r0,[r4,#0x28]
        0x0000064a:    6806        .h      LDR      r6,[r0,#0]
        0x0000064c:    6aa0        .j      LDR      r0,[r4,#0x28]
        0x0000064e:    6845        Eh      LDR      r5,[r0,#4]
        0x00000650:    e001        ..      B        0x656 ; am_bootloader_new_image_check + 42
        0x00000652:    6966        fi      LDR      r6,[r4,#0x14]
        0x00000654:    69a5        .i      LDR      r5,[r4,#0x18]
        0x00000656:    f1b65f80    ..._    CMP      r6,#0x10000000
        0x0000065a:    d302        ..      BCC      0x662 ; am_bootloader_new_image_check + 54
        0x0000065c:    f1b65f00    ..._    CMP      r6,#0x20000000
        0x00000660:    d301        ..      BCC      0x666 ; am_bootloader_new_image_check + 58
        0x00000662:    2000        .       MOVS     r0,#0
        0x00000664:    e7eb        ..      B        0x63e ; am_bootloader_new_image_check + 18
        0x00000666:    42bd        .B      CMP      r5,r7
        0x00000668:    d303        ..      BCC      0x672 ; am_bootloader_new_image_check + 70
        0x0000066a:    6860        `h      LDR      r0,[r4,#4]
        0x0000066c:    4438        8D      ADD      r0,r0,r7
        0x0000066e:    42a8        .B      CMP      r0,r5
        0x00000670:    d201        ..      BCS      0x676 ; am_bootloader_new_image_check + 74
        0x00000672:    2000        .       MOVS     r0,#0
        0x00000674:    e7e3        ..      B        0x63e ; am_bootloader_new_image_check + 18
        0x00000676:    f8940038    ..8.    LDRB     r0,[r4,#0x38]
        0x0000067a:    b960        `.      CBNZ     r0,0x696 ; am_bootloader_new_image_check + 106
        0x0000067c:    f1b80f01    ....    CMP      r8,#1
        0x00000680:    d108        ..      BNE      0x694 ; am_bootloader_new_image_check + 104
        0x00000682:    6861        ah      LDR      r1,[r4,#4]
        0x00000684:    6aa0        .j      LDR      r0,[r4,#0x28]
        0x00000686:    f7fffe81    ....    BL       am_bootloader_fast_crc32 ; 0x38c
        0x0000068a:    68a1        .h      LDR      r1,[r4,#8]
        0x0000068c:    4288        .B      CMP      r0,r1
        0x0000068e:    d002        ..      BEQ      0x696 ; am_bootloader_new_image_check + 106
        0x00000690:    2000        .       MOVS     r0,#0
        0x00000692:    e7d4        ..      B        0x63e ; am_bootloader_new_image_check + 18
        0x00000694:    bf00        ..      NOP      
        0x00000696:    2001        .       MOVS     r0,#1
        0x00000698:    e7d1        ..      B        0x63e ; am_bootloader_new_image_check + 18
        0x0000069a:    0000        ..      MOVS     r0,r0
    i.am_bootloader_partial_crc32
    am_bootloader_partial_crc32
        0x0000069c:    b5f0        ..      PUSH     {r4-r7,lr}
        0x0000069e:    4603        .F      MOV      r3,r0
        0x000006a0:    460c        .F      MOV      r4,r1
        0x000006a2:    6811        .h      LDR      r1,[r2,#0]
        0x000006a4:    461e        .F      MOV      r6,r3
        0x000006a6:    2000        .       MOVS     r0,#0
        0x000006a8:    e008        ..      B        0x6bc ; am_bootloader_partial_crc32 + 32
        0x000006aa:    5c37        7\      LDRB     r7,[r6,r0]
        0x000006ac:    ea876511    ...e    EOR      r5,r7,r1,LSR #24
        0x000006b0:    4f04        .O      LDR      r7,[pc,#16] ; [0x6c4] = 0x2208
        0x000006b2:    f8577025    W.%p    LDR      r7,[r7,r5,LSL #2]
        0x000006b6:    ea872101    ...!    EOR      r1,r7,r1,LSL #8
        0x000006ba:    1c40        @.      ADDS     r0,r0,#1
        0x000006bc:    42a0        .B      CMP      r0,r4
        0x000006be:    d3f4        ..      BCC      0x6aa ; am_bootloader_partial_crc32 + 14
        0x000006c0:    6011        .`      STR      r1,[r2,#0]
        0x000006c2:    bdf0        ..      POP      {r4-r7,pc}
    $d
        0x000006c4:    00002208    ."..    DCD    8712
    $t
    i.am_bsp_iom_spi_pins_disable
    am_bsp_iom_spi_pins_disable
        0x000006c8:    2801        .(      CMP      r0,#1
        0x000006ca:    d000        ..      BEQ      0x6ce ; am_bsp_iom_spi_pins_disable + 6
        0x000006cc:    e7fe        ..      B        0x6cc ; am_bsp_iom_spi_pins_disable + 4
        0x000006ce:    4814        .H      LDR      r0,[pc,#80] ; [0x720] = 0x40010000
        0x000006d0:    2173        s!      MOVS     r1,#0x73
        0x000006d2:    6601        .f      STR      r1,[r0,#0x60]
        0x000006d4:    6c42        Bl      LDR      r2,[r0,#0x44]
        0x000006d6:    f0220207    "...    BIC      r2,r2,#7
        0x000006da:    6442        Bd      STR      r2,[r0,#0x44]
        0x000006dc:    6882        .h      LDR      r2,[r0,#8]
        0x000006de:    f02202ff    "...    BIC      r2,r2,#0xff
        0x000006e2:    f0420218    B...    ORR      r2,r2,#0x18
        0x000006e6:    6082        .`      STR      r2,[r0,#8]
        0x000006e8:    2200        ."      MOVS     r2,#0
        0x000006ea:    6602        .f      STR      r2,[r0,#0x60]
        0x000006ec:    6601        .f      STR      r1,[r0,#0x60]
        0x000006ee:    6c43        Cl      LDR      r3,[r0,#0x44]
        0x000006f0:    f0230370    #.p.    BIC      r3,r3,#0x70
        0x000006f4:    6443        Cd      STR      r3,[r0,#0x44]
        0x000006f6:    6883        .h      LDR      r3,[r0,#8]
        0x000006f8:    f423437f    #..C    BIC      r3,r3,#0xff00
        0x000006fc:    f44353c0    C..S    ORR      r3,r3,#0x1800
        0x00000700:    6083        .`      STR      r3,[r0,#8]
        0x00000702:    6602        .f      STR      r2,[r0,#0x60]
        0x00000704:    6601        .f      STR      r1,[r0,#0x60]
        0x00000706:    6c41        Al      LDR      r1,[r0,#0x44]
        0x00000708:    f42161e0    !..a    BIC      r1,r1,#0x700
        0x0000070c:    6441        Ad      STR      r1,[r0,#0x44]
        0x0000070e:    6881        .h      LDR      r1,[r0,#8]
        0x00000710:    f421017f    !...    BIC      r1,r1,#0xff0000
        0x00000714:    f44111c0    A...    ORR      r1,r1,#0x180000
        0x00000718:    6081        .`      STR      r1,[r0,#8]
        0x0000071a:    6602        .f      STR      r2,[r0,#0x60]
        0x0000071c:    4770        pG      BX       lr
    $d
        0x0000071e:    0000        ..      DCW    0
        0x00000720:    40010000    ...@    DCD    1073807360
    $t
    i.am_bsp_iom_spi_pins_enable
    am_bsp_iom_spi_pins_enable
        0x00000724:    2801        .(      CMP      r0,#1
        0x00000726:    d000        ..      BEQ      0x72a ; am_bsp_iom_spi_pins_enable + 6
        0x00000728:    e7fe        ..      B        0x728 ; am_bsp_iom_spi_pins_enable + 4
        0x0000072a:    4814        .H      LDR      r0,[pc,#80] ; [0x77c] = 0x40010000
        0x0000072c:    2173        s!      MOVS     r1,#0x73
        0x0000072e:    6601        .f      STR      r1,[r0,#0x60]
        0x00000730:    6c42        Bl      LDR      r2,[r0,#0x44]
        0x00000732:    f0220207    "...    BIC      r2,r2,#7
        0x00000736:    6442        Bd      STR      r2,[r0,#0x44]
        0x00000738:    6882        .h      LDR      r2,[r0,#8]
        0x0000073a:    f02202ff    "...    BIC      r2,r2,#0xff
        0x0000073e:    f042020e    B...    ORR      r2,r2,#0xe
        0x00000742:    6082        .`      STR      r2,[r0,#8]
        0x00000744:    2200        ."      MOVS     r2,#0
        0x00000746:    6602        .f      STR      r2,[r0,#0x60]
        0x00000748:    6601        .f      STR      r1,[r0,#0x60]
        0x0000074a:    6c43        Cl      LDR      r3,[r0,#0x44]
        0x0000074c:    f0230370    #.p.    BIC      r3,r3,#0x70
        0x00000750:    6443        Cd      STR      r3,[r0,#0x44]
        0x00000752:    6883        .h      LDR      r3,[r0,#8]
        0x00000754:    f423437f    #..C    BIC      r3,r3,#0xff00
        0x00000758:    f4436320    C. c    ORR      r3,r3,#0xa00
        0x0000075c:    6083        .`      STR      r3,[r0,#8]
        0x0000075e:    6602        .f      STR      r2,[r0,#0x60]
        0x00000760:    6601        .f      STR      r1,[r0,#0x60]
        0x00000762:    6c41        Al      LDR      r1,[r0,#0x44]
        0x00000764:    f42161e0    !..a    BIC      r1,r1,#0x700
        0x00000768:    6441        Ad      STR      r1,[r0,#0x44]
        0x0000076a:    6881        .h      LDR      r1,[r0,#8]
        0x0000076c:    f421017f    !...    BIC      r1,r1,#0xff0000
        0x00000770:    f4412100    A..!    ORR      r1,r1,#0x80000
        0x00000774:    6081        .`      STR      r1,[r0,#8]
        0x00000776:    6602        .f      STR      r2,[r0,#0x60]
        0x00000778:    4770        pG      BX       lr
    $d
        0x0000077a:    0000        ..      DCW    0
        0x0000077c:    40010000    ...@    DCD    1073807360
    $t
    i.am_bsp_low_power_init
    am_bsp_low_power_init
        0x00000780:    b510        ..      PUSH     {r4,lr}
        0x00000782:    f000fdf1    ....    BL       am_hal_mcuctrl_bucks_enable ; 0x1368
        0x00000786:    f000ff0d    ....    BL       am_hal_vcomp_disable ; 0x15a4
        0x0000078a:    2001        .       MOVS     r0,#1
        0x0000078c:    f000fe5b    ..[.    BL       am_hal_rtc_osc_select ; 0x1446
        0x00000790:    2001        .       MOVS     r0,#1
        0x00000792:    f000f8bf    ....    BL       am_hal_clkgen_osc_stop ; 0x914
        0x00000796:    2002        .       MOVS     r0,#2
        0x00000798:    f000f8bc    ....    BL       am_hal_clkgen_osc_stop ; 0x914
        0x0000079c:    f000fe4c    ..L.    BL       am_hal_rtc_osc_disable ; 0x1438
        0x000007a0:    e8bd4010    ...@    POP      {r4,lr}
        0x000007a4:    f000bdd8    ....    B.W      am_hal_mcuctrl_bandgap_disable ; 0x1358
    i.am_devices_spiflash_init
    am_devices_spiflash_init
        0x000007a8:    4901        .I      LDR      r1,[pc,#4] ; [0x7b0] = 0x10000080
        0x000007aa:    6008        .`      STR      r0,[r1,#0]
        0x000007ac:    4770        pG      BX       lr
    $d
        0x000007ae:    0000        ..      DCW    0
        0x000007b0:    10000080    ....    DCD    268435584
    $t
    i.am_devices_spiflash_read
    am_devices_spiflash_read
        0x000007b4:    e92d4ff0    -..O    PUSH     {r4-r11,lr}
        0x000007b8:    b095        ..      SUB      sp,sp,#0x54
        0x000007ba:    4681        .F      MOV      r9,r0
        0x000007bc:    468a        .F      MOV      r10,r1
        0x000007be:    4693        .F      MOV      r11,r2
        0x000007c0:    af13        ..      ADD      r7,sp,#0x4c
        0x000007c2:    a803        ..      ADD      r0,sp,#0xc
        0x000007c4:    9002        ..      STR      r0,[sp,#8]
        0x000007c6:    46d8        .F      MOV      r8,r11
        0x000007c8:    f8cd9050    ..P.    STR      r9,[sp,#0x50]
        0x000007cc:    4656        VF      MOV      r6,r10
        0x000007ce:    e036        6.      B        0x83e ; am_devices_spiflash_read + 138
        0x000007d0:    f1b80f40    ..@.    CMP      r8,#0x40
        0x000007d4:    d901        ..      BLS      0x7da ; am_devices_spiflash_read + 38
        0x000007d6:    2040        @       MOVS     r0,#0x40
        0x000007d8:    e000        ..      B        0x7dc ; am_devices_spiflash_read + 40
        0x000007da:    4640        @F      MOV      r0,r8
        0x000007dc:    4604        .F      MOV      r4,r0
        0x000007de:    2003        .       MOVS     r0,#3
        0x000007e0:    7038        8p      STRB     r0,[r7,#0]
        0x000007e2:    0c30        0.      LSRS     r0,r6,#16
        0x000007e4:    7078        xp      STRB     r0,[r7,#1]
        0x000007e6:    0a30        0.      LSRS     r0,r6,#8
        0x000007e8:    70b8        .p      STRB     r0,[r7,#2]
        0x000007ea:    70fe        .p      STRB     r6,[r7,#3]
        0x000007ec:    f04f40a0    O..@    MOV      r0,#0x50000000
        0x000007f0:    4a16        .J      LDR      r2,[pc,#88] ; [0x84c] = 0x10000080
        0x000007f2:    9000        ..      STR      r0,[sp,#0]
        0x000007f4:    6812        .h      LDR      r2,[r2,#0]
        0x000007f6:    6851        Qh      LDR      r1,[r2,#4]
        0x000007f8:    4a14        .J      LDR      r2,[pc,#80] ; [0x84c] = 0x10000080
        0x000007fa:    6812        .h      LDR      r2,[r2,#0]
        0x000007fc:    2304        .#      MOVS     r3,#4
        0x000007fe:    6810        .h      LDR      r0,[r2,#0]
        0x00000800:    aa13        ..      ADD      r2,sp,#0x4c
        0x00000802:    f000fbc5    ....    BL       am_hal_iom_spi_write ; 0xf90
        0x00000806:    f04f4080    O..@    MOV      r0,#0x40000000
        0x0000080a:    4a10        .J      LDR      r2,[pc,#64] ; [0x84c] = 0x10000080
        0x0000080c:    9000        ..      STR      r0,[sp,#0]
        0x0000080e:    6812        .h      LDR      r2,[r2,#0]
        0x00000810:    6851        Qh      LDR      r1,[r2,#4]
        0x00000812:    4a0e        .J      LDR      r2,[pc,#56] ; [0x84c] = 0x10000080
        0x00000814:    6812        .h      LDR      r2,[r2,#0]
        0x00000816:    4623        #F      MOV      r3,r4
        0x00000818:    6810        .h      LDR      r0,[r2,#0]
        0x0000081a:    aa03        ..      ADD      r2,sp,#0xc
        0x0000081c:    f000fb28    ..(.    BL       am_hal_iom_spi_read ; 0xe70
        0x00000820:    2500        .%      MOVS     r5,#0
        0x00000822:    e004        ..      B        0x82e ; am_devices_spiflash_read + 122
        0x00000824:    9802        ..      LDR      r0,[sp,#8]
        0x00000826:    5d41        A]      LDRB     r1,[r0,r5]
        0x00000828:    9814        ..      LDR      r0,[sp,#0x50]
        0x0000082a:    5541        AU      STRB     r1,[r0,r5]
        0x0000082c:    1c6d        m.      ADDS     r5,r5,#1
        0x0000082e:    42a5        .B      CMP      r5,r4
        0x00000830:    d3f8        ..      BCC      0x824 ; am_devices_spiflash_read + 112
        0x00000832:    eba80804    ....    SUB      r8,r8,r4
        0x00000836:    9814        ..      LDR      r0,[sp,#0x50]
        0x00000838:    4420         D      ADD      r0,r0,r4
        0x0000083a:    9014        ..      STR      r0,[sp,#0x50]
        0x0000083c:    4426        &D      ADD      r6,r6,r4
        0x0000083e:    f1b80f00    ....    CMP      r8,#0
        0x00000842:    d1c5        ..      BNE      0x7d0 ; am_devices_spiflash_read + 28
        0x00000844:    b015        ..      ADD      sp,sp,#0x54
        0x00000846:    e8bd8ff0    ....    POP      {r4-r11,pc}
    $d
        0x0000084a:    0000        ..      DCW    0
        0x0000084c:    10000080    ....    DCD    268435584
    $t
    i.am_gpio_isr
    am_gpio_isr
        0x00000850:    e92d41f0    -..A    PUSH     {r4-r8,lr}
        0x00000854:    f000fe1c    ....    BL       am_hal_systick_count ; 0x1490
        0x00000858:    4607        .F      MOV      r7,r0
        0x0000085a:    bf00        ..      NOP      
        0x0000085c:    482b        +H      LDR      r0,[pc,#172] ; [0x90c] = 0x40010080
        0x0000085e:    6800        .h      LDR      r0,[r0,#0]
        0x00000860:    f0000002    ....    AND      r0,r0,#2
        0x00000864:    2800        .(      CMP      r0,#0
        0x00000866:    d0f9        ..      BEQ      0x85c ; am_gpio_isr + 12
        0x00000868:    bf00        ..      NOP      
        0x0000086a:    4828        (H      LDR      r0,[pc,#160] ; [0x90c] = 0x40010080
        0x0000086c:    6800        .h      LDR      r0,[r0,#0]
        0x0000086e:    f0000002    ....    AND      r0,r0,#2
        0x00000872:    2800        .(      CMP      r0,#0
        0x00000874:    d1f9        ..      BNE      0x86a ; am_gpio_isr + 26
        0x00000876:    bf00        ..      NOP      
        0x00000878:    4824        $H      LDR      r0,[pc,#144] ; [0x90c] = 0x40010080
        0x0000087a:    6800        .h      LDR      r0,[r0,#0]
        0x0000087c:    f0000002    ....    AND      r0,r0,#2
        0x00000880:    2800        .(      CMP      r0,#0
        0x00000882:    d0f9        ..      BEQ      0x878 ; am_gpio_isr + 40
        0x00000884:    bf00        ..      NOP      
        0x00000886:    4821        !H      LDR      r0,[pc,#132] ; [0x90c] = 0x40010080
        0x00000888:    6800        .h      LDR      r0,[r0,#0]
        0x0000088a:    f0000002    ....    AND      r0,r0,#2
        0x0000088e:    2800        .(      CMP      r0,#0
        0x00000890:    d1f9        ..      BNE      0x886 ; am_gpio_isr + 54
        0x00000892:    bf00        ..      NOP      
        0x00000894:    481d        .H      LDR      r0,[pc,#116] ; [0x90c] = 0x40010080
        0x00000896:    6800        .h      LDR      r0,[r0,#0]
        0x00000898:    f0000002    ....    AND      r0,r0,#2
        0x0000089c:    2800        .(      CMP      r0,#0
        0x0000089e:    d0f9        ..      BEQ      0x894 ; am_gpio_isr + 68
        0x000008a0:    bf00        ..      NOP      
        0x000008a2:    481a        .H      LDR      r0,[pc,#104] ; [0x90c] = 0x40010080
        0x000008a4:    6800        .h      LDR      r0,[r0,#0]
        0x000008a6:    f0000002    ....    AND      r0,r0,#2
        0x000008aa:    2800        .(      CMP      r0,#0
        0x000008ac:    d1f9        ..      BNE      0x8a2 ; am_gpio_isr + 82
        0x000008ae:    bf00        ..      NOP      
        0x000008b0:    4816        .H      LDR      r0,[pc,#88] ; [0x90c] = 0x40010080
        0x000008b2:    6800        .h      LDR      r0,[r0,#0]
        0x000008b4:    f0000002    ....    AND      r0,r0,#2
        0x000008b8:    2800        .(      CMP      r0,#0
        0x000008ba:    d0f9        ..      BEQ      0x8b0 ; am_gpio_isr + 96
        0x000008bc:    bf00        ..      NOP      
        0x000008be:    4813        .H      LDR      r0,[pc,#76] ; [0x90c] = 0x40010080
        0x000008c0:    6800        .h      LDR      r0,[r0,#0]
        0x000008c2:    f0000002    ....    AND      r0,r0,#2
        0x000008c6:    2800        .(      CMP      r0,#0
        0x000008c8:    d1f9        ..      BNE      0x8be ; am_gpio_isr + 110
        0x000008ca:    bf00        ..      NOP      
        0x000008cc:    480f        .H      LDR      r0,[pc,#60] ; [0x90c] = 0x40010080
        0x000008ce:    6800        .h      LDR      r0,[r0,#0]
        0x000008d0:    f0000002    ....    AND      r0,r0,#2
        0x000008d4:    2800        .(      CMP      r0,#0
        0x000008d6:    d0f9        ..      BEQ      0x8cc ; am_gpio_isr + 124
        0x000008d8:    f000fdda    ....    BL       am_hal_systick_count ; 0x1490
        0x000008dc:    4604        .F      MOV      r4,r0
        0x000008de:    2002        .       MOVS     r0,#2
        0x000008e0:    2100        .!      MOVS     r1,#0
        0x000008e2:    f000f86d    ..m.    BL       am_hal_gpio_int_disable ; 0x9c0
        0x000008e6:    2002        .       MOVS     r0,#2
        0x000008e8:    2100        .!      MOVS     r1,#0
        0x000008ea:    f000f861    ..a.    BL       am_hal_gpio_int_clear ; 0x9b0
        0x000008ee:    1b3d        =.      SUBS     r5,r7,r4
        0x000008f0:    4807        .H      LDR      r0,[pc,#28] ; [0x910] = 0xcdfe600
        0x000008f2:    fbb0f6f5    ....    UDIV     r6,r0,r5
        0x000008f6:    4631        1F      MOV      r1,r6
        0x000008f8:    2000        .       MOVS     r0,#0
        0x000008fa:    f001fc15    ....    BL       setup_serial ; 0x2128
        0x000008fe:    2155        U!      MOVS     r1,#0x55
        0x00000900:    2000        .       MOVS     r0,#0
        0x00000902:    f000fdd5    ....    BL       am_hal_uart_char_transmit_polled ; 0x14b0
        0x00000906:    e8bd81f0    ....    POP      {r4-r8,pc}
    $d
        0x0000090a:    0000        ..      DCW    0
        0x0000090c:    40010080    ...@    DCD    1073807488
        0x00000910:    0cdfe600    ....    DCD    216000000
    $t
    i.am_hal_clkgen_osc_stop
    am_hal_clkgen_osc_stop
        0x00000914:    f04f2140    O.@!    MOV      r1,#0x40004000
        0x00000918:    68ca        .h      LDR      r2,[r1,#0xc]
        0x0000091a:    4310        .C      ORRS     r0,r0,r2
        0x0000091c:    60c8        .`      STR      r0,[r1,#0xc]
        0x0000091e:    4770        pG      BX       lr
    i.am_hal_clkgen_sysclk_get
    am_hal_clkgen_sysclk_get
        0x00000920:    f04f2040    O.@     MOV      r0,#0x40004000
        0x00000924:    6980        .i      LDR      r0,[r0,#0x18]
        0x00000926:    f0000007    ....    AND      r0,r0,#7
        0x0000092a:    2808        .(      CMP      r0,#8
        0x0000092c:    d215        ..      BCS      0x95a ; am_hal_clkgen_sysclk_get + 58
        0x0000092e:    e8dff000    ....    TBB      [pc,r0]
    $d
        0x00000932:    0604        ..      DCW    1540
        0x00000934:    0e0c0a08    ....    DCD    235670024
        0x00000938:    1210        ..      DCW    4624
    $t
        0x0000093a:    4809        .H      LDR      r0,[pc,#36] ; [0x960] = 0x16e3600
        0x0000093c:    4770        pG      BX       lr
        0x0000093e:    4809        .H      LDR      r0,[pc,#36] ; [0x964] = 0xb71b00
        0x00000940:    4770        pG      BX       lr
        0x00000942:    4809        .H      LDR      r0,[pc,#36] ; [0x968] = 0x7a1200
        0x00000944:    4770        pG      BX       lr
        0x00000946:    4809        .H      LDR      r0,[pc,#36] ; [0x96c] = 0x5b8d80
        0x00000948:    4770        pG      BX       lr
        0x0000094a:    4809        .H      LDR      r0,[pc,#36] ; [0x970] = 0x493e00
        0x0000094c:    4770        pG      BX       lr
        0x0000094e:    4809        .H      LDR      r0,[pc,#36] ; [0x974] = 0x3d0900
        0x00000950:    4770        pG      BX       lr
        0x00000952:    4809        .H      LDR      r0,[pc,#36] ; [0x978] = 0x3450db
        0x00000954:    4770        pG      BX       lr
        0x00000956:    4809        .H      LDR      r0,[pc,#36] ; [0x97c] = 0x2dc6c0
        0x00000958:    4770        pG      BX       lr
        0x0000095a:    f04f30ff    O..0    MOV      r0,#0xffffffff
        0x0000095e:    4770        pG      BX       lr
    $d
        0x00000960:    016e3600    .6n.    DCD    24000000
        0x00000964:    00b71b00    ....    DCD    12000000
        0x00000968:    007a1200    ..z.    DCD    8000000
        0x0000096c:    005b8d80    ..[.    DCD    6000000
        0x00000970:    00493e00    .>I.    DCD    4800000
        0x00000974:    003d0900    ..=.    DCD    4000000
        0x00000978:    003450db    .P4.    DCD    3428571
        0x0000097c:    002dc6c0    ..-.    DCD    3000000
    $t
    i.am_hal_clkgen_sysclk_select
    am_hal_clkgen_sysclk_select
        0x00000980:    f04f2140    O.@!    MOV      r1,#0x40004000
        0x00000984:    2247        G"      MOVS     r2,#0x47
        0x00000986:    614a        Ja      STR      r2,[r1,#0x14]
        0x00000988:    6188        .a      STR      r0,[r1,#0x18]
        0x0000098a:    2000        .       MOVS     r0,#0
        0x0000098c:    6148        Ha      STR      r0,[r1,#0x14]
        0x0000098e:    4770        pG      BX       lr
    i.am_hal_debug_error
    am_hal_debug_error
        0x00000990:    e7fe        ..      B        am_hal_debug_error ; 0x990
        0x00000992:    0000        ..      MOVS     r0,r0
    i.am_hal_flash_page_erase
    am_hal_flash_page_erase
        0x00000994:    4b01        .K      LDR      r3,[pc,#4] ; [0x99c] = 0x10000090
        0x00000996:    685b        [h      LDR      r3,[r3,#4]
        0x00000998:    4718        .G      BX       r3
    $d
        0x0000099a:    0000        ..      DCW    0
        0x0000099c:    10000090    ....    DCD    268435600
    $t
    i.am_hal_flash_program_main
    am_hal_flash_program_main
        0x000009a0:    f8dfc008    ....    LDR      r12,[pc,#8] ; [0x9ac] = 0x10000090
        0x000009a4:    f8dcc008    ....    LDR      r12,[r12,#8]
        0x000009a8:    4760        `G      BX       r12
    $d
        0x000009aa:    0000        ..      DCW    0
        0x000009ac:    10000090    ....    DCD    268435600
    $t
    i.am_hal_gpio_int_clear
    am_hal_gpio_int_clear
        0x000009b0:    4a02        .J      LDR      r2,[pc,#8] ; [0x9bc] = 0x40010000
        0x000009b2:    f8c21218    ....    STR      r1,[r2,#0x218]
        0x000009b6:    f8c20208    ....    STR      r0,[r2,#0x208]
        0x000009ba:    4770        pG      BX       lr
    $d
        0x000009bc:    40010000    ...@    DCD    1073807360
    $t
    i.am_hal_gpio_int_disable
    am_hal_gpio_int_disable
        0x000009c0:    4a06        .J      LDR      r2,[pc,#24] ; [0x9dc] = 0x40010000
        0x000009c2:    f8d23210    ...2    LDR      r3,[r2,#0x210]
        0x000009c6:    ea230101    #...    BIC      r1,r3,r1
        0x000009ca:    f8c21210    ....    STR      r1,[r2,#0x210]
        0x000009ce:    f8d21200    ....    LDR      r1,[r2,#0x200]
        0x000009d2:    ea210000    !...    BIC      r0,r1,r0
        0x000009d6:    f8c20200    ....    STR      r0,[r2,#0x200]
        0x000009da:    4770        pG      BX       lr
    $d
        0x000009dc:    40010000    ...@    DCD    1073807360
    $t
    i.am_hal_gpio_int_enable
    am_hal_gpio_int_enable
        0x000009e0:    4a05        .J      LDR      r2,[pc,#20] ; [0x9f8] = 0x40010000
        0x000009e2:    f8d23210    ...2    LDR      r3,[r2,#0x210]
        0x000009e6:    4319        .C      ORRS     r1,r1,r3
        0x000009e8:    f8c21210    ....    STR      r1,[r2,#0x210]
        0x000009ec:    f8d21200    ....    LDR      r1,[r2,#0x200]
        0x000009f0:    4308        .C      ORRS     r0,r0,r1
        0x000009f2:    f8c20200    ....    STR      r0,[r2,#0x200]
        0x000009f6:    4770        pG      BX       lr
    $d
        0x000009f8:    40010000    ...@    DCD    1073807360
    $t
    i.am_hal_interrupt_enable
    am_hal_interrupt_enable
        0x000009fc:    280f        .(      CMP      r0,#0xf
        0x000009fe:    d90a        ..      BLS      0xa16 ; am_hal_interrupt_enable + 26
        0x00000a00:    3810        .8      SUBS     r0,r0,#0x10
        0x00000a02:    f000001f    ....    AND      r0,r0,#0x1f
        0x00000a06:    2101        .!      MOVS     r1,#1
        0x00000a08:    fa01f000    ....    LSL      r0,r1,r0
        0x00000a0c:    f04f21e0    O..!    MOV      r1,#0xe000e000
        0x00000a10:    f8c10100    ....    STR      r0,[r1,#0x100]
        0x00000a14:    4770        pG      BX       lr
        0x00000a16:    490b        .I      LDR      r1,[pc,#44] ; [0xa44] = 0xe000ed24
        0x00000a18:    2804        .(      CMP      r0,#4
        0x00000a1a:    d00d        ..      BEQ      0xa38 ; am_hal_interrupt_enable + 60
        0x00000a1c:    2805        .(      CMP      r0,#5
        0x00000a1e:    bf04        ..      ITT      EQ
        0x00000a20:    6808        .h      LDREQ    r0,[r1,#0]
        0x00000a22:    f4403000    @..0    ORREQ    r0,r0,#0x20000
        0x00000a26:    d005        ..      BEQ      0xa34 ; am_hal_interrupt_enable + 56
        0x00000a28:    2806        .(      CMP      r0,#6
        0x00000a2a:    bf06        ..      ITTE     EQ
        0x00000a2c:    6808        .h      LDREQ    r0,[r1,#0]
        0x00000a2e:    f4402080    @..     ORREQ    r0,r0,#0x40000
        0x00000a32:    4770        pG      BXNE     lr
        0x00000a34:    6008        .`      STR      r0,[r1,#0]
        0x00000a36:    4770        pG      BX       lr
        0x00000a38:    6808        .h      LDR      r0,[r1,#0]
        0x00000a3a:    f4403080    @..0    ORR      r0,r0,#0x10000
        0x00000a3e:    6008        .`      STR      r0,[r1,#0]
        0x00000a40:    4770        pG      BX       lr
    $d
        0x00000a42:    0000        ..      DCW    0
        0x00000a44:    e000ed24    $...    DCD    3758157092
    $t
    i.am_hal_iom_config
    am_hal_iom_config
        0x00000a48:    680a        .h      LDR      r2,[r1,#0]
        0x00000a4a:    4b14        .K      LDR      r3,[pc,#80] ; [0xa9c] = 0x100000b0
        0x00000a4c:    2800        .(      CMP      r0,#0
        0x00000a4e:    4694        .F      MOV      r12,r2
        0x00000a50:    bf0c        ..      ITE      EQ
        0x00000a52:    f8c3c000    ....    STREQ    r12,[r3,#0]
        0x00000a56:    f8c3c004    ....    STRNE    r12,[r3,#4]
        0x00000a5a:    7a0b        .z      LDRB     r3,[r1,#8]
        0x00000a5c:    2b00        .+      CMP      r3,#0
        0x00000a5e:    bf18        ..      IT       NE
        0x00000a60:    f0420204    B...    ORRNE    r2,r2,#4
        0x00000a64:    7a4b        Kz      LDRB     r3,[r1,#9]
        0x00000a66:    2b00        .+      CMP      r3,#0
        0x00000a68:    bf18        ..      IT       NE
        0x00000a6a:    f0420202    B...    ORRNE    r2,r2,#2
        0x00000a6e:    0300        ..      LSLS     r0,r0,#12
        0x00000a70:    f10040a0    ...@    ADD      r0,r0,#0x50000000
        0x00000a74:    f5004080    ...@    ADD      r0,r0,#0x4000
        0x00000a78:    f8c0211c    ...!    STR      r2,[r0,#0x11c]
        0x00000a7c:    7a8a        .z      LDRB     r2,[r1,#0xa]
        0x00000a7e:    f44f537c    O.|S    MOV      r3,#0x3f00
        0x00000a82:    ea032202    ..."    AND      r2,r3,r2,LSL #8
        0x00000a86:    7acb        .z      LDRB     r3,[r1,#0xb]
        0x00000a88:    f003033f    ..?.    AND      r3,r3,#0x3f
        0x00000a8c:    431a        .C      ORRS     r2,r2,r3
        0x00000a8e:    f8c02108    ...!    STR      r2,[r0,#0x108]
        0x00000a92:    6849        Ih      LDR      r1,[r1,#4]
        0x00000a94:    f8c0110c    ....    STR      r1,[r0,#0x10c]
        0x00000a98:    4770        pG      BX       lr
    $d
        0x00000a9a:    0000        ..      DCW    0
        0x00000a9c:    100000b0    ....    DCD    268435632
    $t
    i.am_hal_iom_disable
    am_hal_iom_disable
        0x00000aa0:    0301        ..      LSLS     r1,r0,#12
        0x00000aa2:    f10141a0    ...A    ADD      r1,r1,#0x50000000
        0x00000aa6:    f5014180    ...A    ADD      r1,r1,#0x4000
        0x00000aaa:    bf00        ..      NOP      
        0x00000aac:    f8d12118    ...!    LDR      r2,[r1,#0x118]
        0x00000ab0:    f0120f04    ....    TST      r2,#4
        0x00000ab4:    d0fa        ..      BEQ      0xaac ; am_hal_iom_disable + 12
        0x00000ab6:    0301        ..      LSLS     r1,r0,#12
        0x00000ab8:    f10141a0    ...A    ADD      r1,r1,#0x50000000
        0x00000abc:    f5014180    ...A    ADD      r1,r1,#0x4000
        0x00000ac0:    f8d1211c    ...!    LDR      r2,[r1,#0x11c]
        0x00000ac4:    f0224200    "..B    BIC      r2,r2,#0x80000000
        0x00000ac8:    f8c1211c    ...!    STR      r2,[r1,#0x11c]
        0x00000acc:    2200        ."      MOVS     r2,#0
        0x00000ace:    f8dfc048    ..H.    LDR      r12,[pc,#72] ; [0xb18] = 0x100000b0
        0x00000ad2:    4912        .I      LDR      r1,[pc,#72] ; [0xb1c] = 0x40010000
        0x00000ad4:    2373        s#      MOVS     r3,#0x73
        0x00000ad6:    b178        x.      CBZ      r0,0xaf8 ; am_hal_iom_disable + 88
        0x00000ad8:    f8dc0004    ....    LDR      r0,[r12,#4]
        0x00000adc:    2801        .(      CMP      r0,#1
        0x00000ade:    bf18        ..      IT       NE
        0x00000ae0:    4770        pG      BXNE     lr
        0x00000ae2:    660b        .f      STR      r3,[r1,#0x60]
        0x00000ae4:    6888        .h      LDR      r0,[r1,#8]
        0x00000ae6:    f0200002     ...    BIC      r0,r0,#2
        0x00000aea:    6088        .`      STR      r0,[r1,#8]
        0x00000aec:    6888        .h      LDR      r0,[r1,#8]
        0x00000aee:    f4207000     ..p    BIC      r0,r0,#0x200
        0x00000af2:    6088        .`      STR      r0,[r1,#8]
        0x00000af4:    660a        .f      STR      r2,[r1,#0x60]
        0x00000af6:    4770        pG      BX       lr
        0x00000af8:    f8dc0000    ....    LDR      r0,[r12,#0]
        0x00000afc:    2801        .(      CMP      r0,#1
        0x00000afe:    bf18        ..      IT       NE
        0x00000b00:    4770        pG      BXNE     lr
        0x00000b02:    660b        .f      STR      r3,[r1,#0x60]
        0x00000b04:    6848        Hh      LDR      r0,[r1,#4]
        0x00000b06:    f4207000     ..p    BIC      r0,r0,#0x200
        0x00000b0a:    6048        H`      STR      r0,[r1,#4]
        0x00000b0c:    6848        Hh      LDR      r0,[r1,#4]
        0x00000b0e:    f4203000     ..0    BIC      r0,r0,#0x20000
        0x00000b12:    6048        H`      STR      r0,[r1,#4]
        0x00000b14:    e7ee        ..      B        0xaf4 ; am_hal_iom_disable + 84
    $d
        0x00000b16:    0000        ..      DCW    0
        0x00000b18:    100000b0    ....    DCD    268435632
        0x00000b1c:    40010000    ...@    DCD    1073807360
    $t
    i.am_hal_iom_enable
    am_hal_iom_enable
        0x00000b20:    0301        ..      LSLS     r1,r0,#12
        0x00000b22:    f10141a0    ...A    ADD      r1,r1,#0x50000000
        0x00000b26:    f5014180    ...A    ADD      r1,r1,#0x4000
        0x00000b2a:    f8d1211c    ...!    LDR      r2,[r1,#0x11c]
        0x00000b2e:    f0424200    B..B    ORR      r2,r2,#0x80000000
        0x00000b32:    f8c1211c    ...!    STR      r2,[r1,#0x11c]
        0x00000b36:    2200        ."      MOVS     r2,#0
        0x00000b38:    4911        .I      LDR      r1,[pc,#68] ; [0xb80] = 0x40010000
        0x00000b3a:    f8dfc048    ..H.    LDR      r12,[pc,#72] ; [0xb84] = 0x100000b0
        0x00000b3e:    2373        s#      MOVS     r3,#0x73
        0x00000b40:    b178        x.      CBZ      r0,0xb62 ; am_hal_iom_enable + 66
        0x00000b42:    f8dc0004    ....    LDR      r0,[r12,#4]
        0x00000b46:    2801        .(      CMP      r0,#1
        0x00000b48:    bf18        ..      IT       NE
        0x00000b4a:    4770        pG      BXNE     lr
        0x00000b4c:    660b        .f      STR      r3,[r1,#0x60]
        0x00000b4e:    6888        .h      LDR      r0,[r1,#8]
        0x00000b50:    f0400002    @...    ORR      r0,r0,#2
        0x00000b54:    6088        .`      STR      r0,[r1,#8]
        0x00000b56:    6888        .h      LDR      r0,[r1,#8]
        0x00000b58:    f4407000    @..p    ORR      r0,r0,#0x200
        0x00000b5c:    6088        .`      STR      r0,[r1,#8]
        0x00000b5e:    660a        .f      STR      r2,[r1,#0x60]
        0x00000b60:    4770        pG      BX       lr
        0x00000b62:    f8dc0000    ....    LDR      r0,[r12,#0]
        0x00000b66:    2801        .(      CMP      r0,#1
        0x00000b68:    bf18        ..      IT       NE
        0x00000b6a:    4770        pG      BXNE     lr
        0x00000b6c:    660b        .f      STR      r3,[r1,#0x60]
        0x00000b6e:    6848        Hh      LDR      r0,[r1,#4]
        0x00000b70:    f4407000    @..p    ORR      r0,r0,#0x200
        0x00000b74:    6048        H`      STR      r0,[r1,#4]
        0x00000b76:    6848        Hh      LDR      r0,[r1,#4]
        0x00000b78:    f4403000    @..0    ORR      r0,r0,#0x20000
        0x00000b7c:    6048        H`      STR      r0,[r1,#4]
        0x00000b7e:    e7ee        ..      B        0xb5e ; am_hal_iom_enable + 62
    $d
        0x00000b80:    40010000    ...@    DCD    1073807360
        0x00000b84:    100000b0    ....    DCD    268435632
    $t
    i.am_hal_iom_fifo_read
    am_hal_iom_fifo_read
        0x00000b88:    b570        p.      PUSH     {r4-r6,lr}
        0x00000b8a:    0300        ..      LSLS     r0,r0,#12
        0x00000b8c:    f10045a0    ...E    ADD      r5,r0,#0x50000000
        0x00000b90:    f5054580    ...E    ADD      r5,r5,#0x4000
        0x00000b94:    4614        .F      MOV      r4,r2
        0x00000b96:    f8d50100    ....    LDR      r0,[r5,#0x100]
        0x00000b9a:    460e        .F      MOV      r6,r1
        0x00000b9c:    f000007f    ....    AND      r0,r0,#0x7f
        0x00000ba0:    42a0        .B      CMP      r0,r4
        0x00000ba2:    d205        ..      BCS      0xbb0 ; am_hal_iom_fifo_read + 40
        0x00000ba4:    a21a        ..      ADR      r2,{pc}+0x6c ; 0xc10
        0x00000ba6:    f2405123    @.#Q    MOV      r1,#0x523
        0x00000baa:    a027        '.      ADR      r0,{pc}+0x9e ; 0xc48
        0x00000bac:    f7fffef0    ....    BL       am_hal_debug_error ; 0x990
        0x00000bb0:    2300        .#      MOVS     r3,#0
        0x00000bb2:    1ce2        ..      ADDS     r2,r4,#3
        0x00000bb4:    2a03        .*      CMP      r2,#3
        0x00000bb6:    d921        !.      BLS      0xbfc ; am_hal_iom_fifo_read + 116
        0x00000bb8:    f1b44f00    ...O    CMP      r4,#0x80000000
        0x00000bbc:    d21e        ..      BCS      0xbfc ; am_hal_iom_fifo_read + 116
        0x00000bbe:    17d1        ..      ASRS     r1,r2,#31
        0x00000bc0:    eb027191    ...q    ADD      r1,r2,r1,LSR #30
        0x00000bc4:    2a03        .*      CMP      r2,#3
        0x00000bc6:    bfd8        ..      IT       LE
        0x00000bc8:    2000        .       MOVLE    r0,#0
        0x00000bca:    dd05        ..      BLE      0xbd8 ; am_hal_iom_fifo_read + 80
        0x00000bcc:    f3c10080    ....    UBFX     r0,r1,#2,#1
        0x00000bd0:    b110        ..      CBZ      r0,0xbd8 ; am_hal_iom_fifo_read + 80
        0x00000bd2:    682a        *h      LDR      r2,[r5,#0]
        0x00000bd4:    2301        .#      MOVS     r3,#1
        0x00000bd6:    6032        2`      STR      r2,[r6,#0]
        0x00000bd8:    2201        ."      MOVS     r2,#1
        0x00000bda:    eb0202a1    ....    ADD      r2,r2,r1,ASR #2
        0x00000bde:    1c40        @.      ADDS     r0,r0,#1
        0x00000be0:    e008        ..      B        0xbf4 ; am_hal_iom_fifo_read + 108
        0x00000be2:    6829        )h      LDR      r1,[r5,#0]
        0x00000be4:    f8461023    F.#.    STR      r1,[r6,r3,LSL #2]
        0x00000be8:    1c59        Y.      ADDS     r1,r3,#1
        0x00000bea:    682b        +h      LDR      r3,[r5,#0]
        0x00000bec:    f8463021    F.!0    STR      r3,[r6,r1,LSL #2]
        0x00000bf0:    1c4b        K.      ADDS     r3,r1,#1
        0x00000bf2:    1c80        ..      ADDS     r0,r0,#2
        0x00000bf4:    4282        .B      CMP      r2,r0
        0x00000bf6:    dcf4        ..      BGT      0xbe2 ; am_hal_iom_fifo_read + 90
        0x00000bf8:    4620         F      MOV      r0,r4
        0x00000bfa:    bd70        p.      POP      {r4-r6,pc}
        0x00000bfc:    2c00        .,      CMP      r4,#0
        0x00000bfe:    d9fb        ..      BLS      0xbf8 ; am_hal_iom_fifo_read + 112
        0x00000c00:    6828        (h      LDR      r0,[r5,#0]
        0x00000c02:    f8460023    F.#.    STR      r0,[r6,r3,LSL #2]
        0x00000c06:    1c5b        [.      ADDS     r3,r3,#1
        0x00000c08:    ebb40f83    ....    CMP      r4,r3,LSL #2
        0x00000c0c:    d8f8        ..      BHI      0xc00 ; am_hal_iom_fifo_read + 120
        0x00000c0e:    e7f3        ..      B        0xbf8 ; am_hal_iom_fifo_read + 112
    $d
        0x00000c10:    20656854    The     DCD    543516756
        0x00000c14:    6f666966    fifo    DCD    1868982630
        0x00000c18:    656f6420     doe    DCD    1701798944
        0x00000c1c:    74276e73    sn't    DCD    1948741235
        0x00000c20:    6e6f6320     con    DCD    1852793632
        0x00000c24:    6e696174    tain    DCD    1852399988
        0x00000c28:    65687420     the    DCD    1701344288
        0x00000c2c:    71657220     req    DCD    1902473760
        0x00000c30:    74736575    uest    DCD    1953719669
        0x00000c34:    6e206465    ed n    DCD    1847616613
        0x00000c38:    65626d75    umbe    DCD    1700949365
        0x00000c3c:    666f2072    r of    DCD    1718558834
        0x00000c40:    74796220     byt    DCD    1954112032
        0x00000c44:    002e7365    es..    DCD    3044197
        0x00000c48:    612f2e2e    ../a    DCD    1630481966
        0x00000c4c:    61685f6d    m_ha    DCD    1634230125
        0x00000c50:    6f695f6c    l_io    DCD    1869176684
        0x00000c54:    00632e6d    m.c.    DCD    6499949
    $t
    i.am_hal_iom_fifo_write
    am_hal_iom_fifo_write
        0x00000c58:    b570        p.      PUSH     {r4-r6,lr}
        0x00000c5a:    0300        ..      LSLS     r0,r0,#12
        0x00000c5c:    f10045a0    ...E    ADD      r5,r0,#0x50000000
        0x00000c60:    f5054580    ...E    ADD      r5,r5,#0x4000
        0x00000c64:    4614        .F      MOV      r4,r2
        0x00000c66:    f8d50100    ....    LDR      r0,[r5,#0x100]
        0x00000c6a:    460e        .F      MOV      r6,r1
        0x00000c6c:    f3c04006    ...@    UBFX     r0,r0,#16,#7
        0x00000c70:    42a0        .B      CMP      r0,r4
        0x00000c72:    d205        ..      BCS      0xc80 ; am_hal_iom_fifo_write + 40
        0x00000c74:    a21b        ..      ADR      r2,{pc}+0x70 ; 0xce4
        0x00000c76:    f24041f5    @..A    MOV      r1,#0x4f5
        0x00000c7a:    a027        '.      ADR      r0,{pc}+0x9e ; 0xd18
        0x00000c7c:    f7fffe88    ....    BL       am_hal_debug_error ; 0x990
        0x00000c80:    2300        .#      MOVS     r3,#0
        0x00000c82:    1ce0        ..      ADDS     r0,r4,#3
        0x00000c84:    2803        .(      CMP      r0,#3
        0x00000c86:    d922        ".      BLS      0xcce ; am_hal_iom_fifo_write + 118
        0x00000c88:    f1b44f00    ...O    CMP      r4,#0x80000000
        0x00000c8c:    d21f        ..      BCS      0xcce ; am_hal_iom_fifo_write + 118
        0x00000c8e:    17c2        ..      ASRS     r2,r0,#31
        0x00000c90:    eb007292    ...r    ADD      r2,r0,r2,LSR #30
        0x00000c94:    2803        .(      CMP      r0,#3
        0x00000c96:    bfd8        ..      IT       LE
        0x00000c98:    2000        .       MOVLE    r0,#0
        0x00000c9a:    dd05        ..      BLE      0xca8 ; am_hal_iom_fifo_write + 80
        0x00000c9c:    f3c20080    ....    UBFX     r0,r2,#2,#1
        0x00000ca0:    b110        ..      CBZ      r0,0xca8 ; am_hal_iom_fifo_write + 80
        0x00000ca2:    6831        1h      LDR      r1,[r6,#0]
        0x00000ca4:    6029        )`      STR      r1,[r5,#0]
        0x00000ca6:    2301        .#      MOVS     r3,#1
        0x00000ca8:    2101        .!      MOVS     r1,#1
        0x00000caa:    eb0102a2    ....    ADD      r2,r1,r2,ASR #2
        0x00000cae:    1c40        @.      ADDS     r0,r0,#1
        0x00000cb0:    e009        ..      B        0xcc6 ; am_hal_iom_fifo_write + 110
        0x00000cb2:    bf00        ..      NOP      
        0x00000cb4:    f8561023    V.#.    LDR      r1,[r6,r3,LSL #2]
        0x00000cb8:    6029        )`      STR      r1,[r5,#0]
        0x00000cba:    1c59        Y.      ADDS     r1,r3,#1
        0x00000cbc:    f8563021    V.!0    LDR      r3,[r6,r1,LSL #2]
        0x00000cc0:    602b        +`      STR      r3,[r5,#0]
        0x00000cc2:    1c4b        K.      ADDS     r3,r1,#1
        0x00000cc4:    1c80        ..      ADDS     r0,r0,#2
        0x00000cc6:    4282        .B      CMP      r2,r0
        0x00000cc8:    dcf4        ..      BGT      0xcb4 ; am_hal_iom_fifo_write + 92
        0x00000cca:    4620         F      MOV      r0,r4
        0x00000ccc:    bd70        p.      POP      {r4-r6,pc}
        0x00000cce:    2c00        .,      CMP      r4,#0
        0x00000cd0:    d9fb        ..      BLS      0xcca ; am_hal_iom_fifo_write + 114
        0x00000cd2:    bf00        ..      NOP      
        0x00000cd4:    f8560023    V.#.    LDR      r0,[r6,r3,LSL #2]
        0x00000cd8:    6028        (`      STR      r0,[r5,#0]
        0x00000cda:    1c5b        [.      ADDS     r3,r3,#1
        0x00000cdc:    ebb40f83    ....    CMP      r4,r3,LSL #2
        0x00000ce0:    d8f8        ..      BHI      0xcd4 ; am_hal_iom_fifo_write + 124
        0x00000ce2:    e7f2        ..      B        0xcca ; am_hal_iom_fifo_write + 114
    $d
        0x00000ce4:    20656854    The     DCD    543516756
        0x00000ce8:    6f666966    fifo    DCD    1868982630
        0x00000cec:    756f6320     cou    DCD    1970234144
        0x00000cf0:    276e646c    ldn'    DCD    661546092
        0x00000cf4:    69662074    t fi    DCD    1768300660
        0x00000cf8:    68742074    t th    DCD    1752440948
        0x00000cfc:    65722065    e re    DCD    1701978213
        0x00000d00:    73657571    ques    DCD    1936029041
        0x00000d04:    20646574    ted     DCD    543450484
        0x00000d08:    626d756e    numb    DCD    1651340654
        0x00000d0c:    6f207265    er o    DCD    1864397413
        0x00000d10:    79622066    f by    DCD    2036473958
        0x00000d14:    00736574    tes.    DCD    7562612
        0x00000d18:    612f2e2e    ../a    DCD    1630481966
        0x00000d1c:    61685f6d    m_ha    DCD    1634230125
        0x00000d20:    6f695f6c    l_io    DCD    1869176684
        0x00000d24:    00632e6d    m.c.    DCD    6499949
    $t
    i.am_hal_iom_queue_spi_read
    am_hal_iom_queue_spi_read
        0x00000d28:    e92d47f0    -..G    PUSH     {r4-r10,lr}
        0x00000d2c:    b088        ..      SUB      sp,sp,#0x20
        0x00000d2e:    461d        .F      MOV      r5,r3
        0x00000d30:    e9dd7910    ...y    LDRD     r7,r9,[sp,#0x40]
        0x00000d34:    4690        .F      MOV      r8,r2
        0x00000d36:    460e        .F      MOV      r6,r1
        0x00000d38:    4604        .F      MOV      r4,r0
        0x00000d3a:    f7fffa13    ....    BL       am_hal_interrupt_master_disable ; 0x164
        0x00000d3e:    4682        .F      MOV      r10,r0
        0x00000d40:    0320         .      LSLS     r0,r4,#12
        0x00000d42:    f10040a0    ...@    ADD      r0,r0,#0x50000000
        0x00000d46:    f5004080    ...@    ADD      r0,r0,#0x4000
        0x00000d4a:    f8d00118    ....    LDR      r0,[r0,#0x118]
        0x00000d4e:    492d        -I      LDR      r1,[pc,#180] ; [0xe04] = 0x100012a4
        0x00000d50:    f0100f04    ....    TST      r0,#4
        0x00000d54:    eb040044    ..D.    ADD      r0,r4,r4,LSL #1
        0x00000d58:    eb0100c0    ....    ADD      r0,r1,r0,LSL #3
        0x00000d5c:    d001        ..      BEQ      0xd62 ; am_hal_iom_queue_spi_read + 58
        0x00000d5e:    6881        .h      LDR      r1,[r0,#8]
        0x00000d60:    b169        i.      CBZ      r1,0xd7e ; am_hal_iom_queue_spi_read + 86
        0x00000d62:    2101        .!      MOVS     r1,#1
        0x00000d64:    f8cd9018    ....    STR      r9,[sp,#0x18]
        0x00000d68:    e88d0152    ..R.    STM      sp,{r1,r4,r6,r8}
        0x00000d6c:    e9cd5704    ...W    STRD     r5,r7,[sp,#0x10]
        0x00000d70:    460a        .F      MOV      r2,r1
        0x00000d72:    4669        iF      MOV      r1,sp
        0x00000d74:    f000fb0c    ....    BL       am_hal_queue_item_add ; 0x1390
        0x00000d78:    2800        .(      CMP      r0,#0
        0x00000d7a:    d13d        =.      BNE      0xdf8 ; am_hal_iom_queue_spi_read + 208
        0x00000d7c:    e036        6.      B        0xdec ; am_hal_iom_queue_spi_read + 196
        0x00000d7e:    4620         F      MOV      r0,r4
        0x00000d80:    f7fffece    ....    BL       am_hal_iom_enable ; 0xb20
        0x00000d84:    f5b55f80    ..._    CMP      r5,#0x1000
        0x00000d88:    d306        ..      BCC      0xd98 ; am_hal_iom_queue_spi_read + 112
        0x00000d8a:    4a1f        .J      LDR      r2,[pc,#124] ; [0xe08] = 0x11a4
        0x00000d8c:    f2402145    @.E!    MOV      r1,#0x245
        0x00000d90:    f1020018    ....    ADD      r0,r2,#0x18
        0x00000d94:    f7fffdfc    ....    BL       am_hal_debug_error ; 0x990
        0x00000d98:    0320         .      LSLS     r0,r4,#12
        0x00000d9a:    f10041a0    ...A    ADD      r1,r0,#0x50000000
        0x00000d9e:    f5014180    ...A    ADD      r1,r1,#0x4000
        0x00000da2:    bf00        ..      NOP      
        0x00000da4:    f8d10118    ....    LDR      r0,[r1,#0x118]
        0x00000da8:    f0100f04    ....    TST      r0,#4
        0x00000dac:    d0fa        ..      BEQ      0xda4 ; am_hal_iom_queue_spi_read + 124
        0x00000dae:    4817        .H      LDR      r0,[pc,#92] ; [0xe0c] = 0x10001284
        0x00000db0:    2102        .!      MOVS     r1,#2
        0x00000db2:    eb001004    ....    ADD      r0,r0,r4,LSL #4
        0x00000db6:    e9c01800    ....    STRD     r1,r8,[r0,#0]
        0x00000dba:    e9c05902    ...Y    STRD     r5,r9,[r0,#8]
        0x00000dbe:    0788        ..      LSLS     r0,r1,#30
        0x00000dc0:    f4056170    ..pa    AND      r1,r5,#0xf00
        0x00000dc4:    ea4030c1    @..0    ORR      r0,r0,r1,LSL #15
        0x00000dc8:    b2e9        ..      UXTB     r1,r5
        0x00000dca:    4308        .C      ORRS     r0,r0,r1
        0x00000dcc:    f44f21e0    O..!    MOV      r1,#0x70000
        0x00000dd0:    ea014106    ...A    AND      r1,r1,r6,LSL #16
        0x00000dd4:    4308        .C      ORRS     r0,r0,r1
        0x00000dd6:    490e        .I      LDR      r1,[pc,#56] ; [0xe10] = 0x5c00ff00
        0x00000dd8:    4039        9@      ANDS     r1,r1,r7
        0x00000dda:    4308        .C      ORRS     r0,r0,r1
        0x00000ddc:    0321        !.      LSLS     r1,r4,#12
        0x00000dde:    f10141a0    ...A    ADD      r1,r1,#0x50000000
        0x00000de2:    f5014180    ...A    ADD      r1,r1,#0x4000
        0x00000de6:    f8c10110    ....    STR      r0,[r1,#0x110]
        0x00000dea:    e005        ..      B        0xdf8 ; am_hal_iom_queue_spi_read + 208
        0x00000dec:    4a09        .J      LDR      r2,[pc,#36] ; [0xe14] = 0x260c
        0x00000dee:    f240715e    @.^q    MOV      r1,#0x75e
        0x00000df2:    4809        .H      LDR      r0,[pc,#36] ; [0xe18] = 0x11bc
        0x00000df4:    f7fffdcc    ....    BL       am_hal_debug_error ; 0x990
        0x00000df8:    b008        ..      ADD      sp,sp,#0x20
        0x00000dfa:    4650        PF      MOV      r0,r10
        0x00000dfc:    e8bd47f0    ...G    POP      {r4-r10,lr}
        0x00000e00:    f7ffb9b4    ....    B        am_hal_interrupt_master_set ; 0x16c
    $d
        0x00000e04:    100012a4    ....    DCD    268440228
        0x00000e08:    000011a4    ....    DCD    4516
        0x00000e0c:    10001284    ....    DCD    268440196
        0x00000e10:    5c00ff00    ...\    DCD    1543569152
        0x00000e14:    0000260c    .&..    DCD    9740
        0x00000e18:    000011bc    ....    DCD    4540
    $t
    i.am_hal_iom_sleeping_queue_flush
    am_hal_iom_sleeping_queue_flush
        0x00000e1c:    e92d41f0    -..A    PUSH     {r4-r8,lr}
        0x00000e20:    2501        .%      MOVS     r5,#1
        0x00000e22:    0301        ..      LSLS     r1,r0,#12
        0x00000e24:    f10144a0    ...D    ADD      r4,r1,#0x50000000
        0x00000e28:    4910        .I      LDR      r1,[pc,#64] ; [0xe6c] = 0x100012a4
        0x00000e2a:    eb000040    ..@.    ADD      r0,r0,r0,LSL #1
        0x00000e2e:    f5044480    ...D    ADD      r4,r4,#0x4000
        0x00000e32:    eb0106c0    ....    ADD      r6,r1,r0,LSL #3
        0x00000e36:    bf00        ..      NOP      
        0x00000e38:    f7fff994    ....    BL       am_hal_interrupt_master_disable ; 0x164
        0x00000e3c:    f8d41118    ....    LDR      r1,[r4,#0x118]
        0x00000e40:    4607        .F      MOV      r7,r0
        0x00000e42:    f0110f04    ....    TST      r1,#4
        0x00000e46:    d001        ..      BEQ      0xe4c ; am_hal_iom_sleeping_queue_flush + 48
        0x00000e48:    68b0        .h      LDR      r0,[r6,#8]
        0x00000e4a:    b148        H.      CBZ      r0,0xe60 ; am_hal_iom_sleeping_queue_flush + 68
        0x00000e4c:    2000        .       MOVS     r0,#0
        0x00000e4e:    f000fb05    ....    BL       am_hal_sysctrl_sleep ; 0x145c
        0x00000e52:    4638        8F      MOV      r0,r7
        0x00000e54:    f7fff98a    ....    BL       am_hal_interrupt_master_set ; 0x16c
        0x00000e58:    2d00        .-      CMP      r5,#0
        0x00000e5a:    d1ed        ..      BNE      0xe38 ; am_hal_iom_sleeping_queue_flush + 28
        0x00000e5c:    e8bd81f0    ....    POP      {r4-r8,pc}
        0x00000e60:    4638        8F      MOV      r0,r7
        0x00000e62:    e8bd41f0    ...A    POP      {r4-r8,lr}
        0x00000e66:    f7ffb981    ....    B        am_hal_interrupt_master_set ; 0x16c
    $d
        0x00000e6a:    0000        ..      DCW    0
        0x00000e6c:    100012a4    ....    DCD    268440228
    $t
    i.am_hal_iom_spi_read
    am_hal_iom_spi_read
        0x00000e70:    e92d41f0    -..A    PUSH     {r4-r8,lr}
        0x00000e74:    b082        ..      SUB      sp,sp,#8
        0x00000e76:    461c        .F      MOV      r4,r3
        0x00000e78:    9d08        ..      LDR      r5,[sp,#0x20]
        0x00000e7a:    4616        .F      MOV      r6,r2
        0x00000e7c:    4688        .F      MOV      r8,r1
        0x00000e7e:    4607        .F      MOV      r7,r0
        0x00000e80:    f5b35f80    ..._    CMP      r3,#0x1000
        0x00000e84:    d305        ..      BCC      0xe92 ; am_hal_iom_spi_read + 34
        0x00000e86:    a235        5.      ADR      r2,{pc}+0xd6 ; 0xf5c
        0x00000e88:    f2401191    @...    MOV      r1,#0x191
        0x00000e8c:    a039        9.      ADR      r0,{pc}+0xe8 ; 0xf74
        0x00000e8e:    f7fffd7f    ....    BL       am_hal_debug_error ; 0x990
        0x00000e92:    493c        <I      LDR      r1,[pc,#240] ; [0xf84] = 0x100012a4
        0x00000e94:    eb070047    ..G.    ADD      r0,r7,r7,LSL #1
        0x00000e98:    eb0100c0    ....    ADD      r0,r1,r0,LSL #3
        0x00000e9c:    6940        @i      LDR      r0,[r0,#0x14]
        0x00000e9e:    2800        .(      CMP      r0,#0
        0x00000ea0:    bf02        ..      ITTT     EQ
        0x00000ea2:    0338        8.      LSLEQ    r0,r7,#12
        0x00000ea4:    f10041a0    ...A    ADDEQ    r1,r0,#0x50000000
        0x00000ea8:    f5014180    ...A    ADDEQ    r1,r1,#0x4000
        0x00000eac:    d00f        ..      BEQ      0xece ; am_hal_iom_spi_read + 94
        0x00000eae:    2000        .       MOVS     r0,#0
        0x00000eb0:    e9cd5000    ...P    STRD     r5,r0,[sp,#0]
        0x00000eb4:    4623        #F      MOV      r3,r4
        0x00000eb6:    4632        2F      MOV      r2,r6
        0x00000eb8:    4641        AF      MOV      r1,r8
        0x00000eba:    4638        8F      MOV      r0,r7
        0x00000ebc:    f7ffff34    ..4.    BL       am_hal_iom_queue_spi_read ; 0xd28
        0x00000ec0:    4931        1I      LDR      r1,[pc,#196] ; [0xf88] = 0x100000b0
        0x00000ec2:    4638        8F      MOV      r0,r7
        0x00000ec4:    6889        .h      LDR      r1,[r1,#8]
        0x00000ec6:    b002        ..      ADD      sp,sp,#8
        0x00000ec8:    e8bd41f0    ...A    POP      {r4-r8,lr}
        0x00000ecc:    4708        .G      BX       r1
        0x00000ece:    f8d10118    ....    LDR      r0,[r1,#0x118]
        0x00000ed2:    f0100f04    ....    TST      r0,#4
        0x00000ed6:    d0fa        ..      BEQ      0xece ; am_hal_iom_spi_read + 94
        0x00000ed8:    f04f4000    O..@    MOV      r0,#0x80000000
        0x00000edc:    f4046170    ..pa    AND      r1,r4,#0xf00
        0x00000ee0:    ea4030c1    @..0    ORR      r0,r0,r1,LSL #15
        0x00000ee4:    b2e1        ..      UXTB     r1,r4
        0x00000ee6:    4308        .C      ORRS     r0,r0,r1
        0x00000ee8:    f44f21e0    O..!    MOV      r1,#0x70000
        0x00000eec:    ea014108    ...A    AND      r1,r1,r8,LSL #16
        0x00000ef0:    4308        .C      ORRS     r0,r0,r1
        0x00000ef2:    4926        &I      LDR      r1,[pc,#152] ; [0xf8c] = 0x5c00ff00
        0x00000ef4:    4029        )@      ANDS     r1,r1,r5
        0x00000ef6:    4308        .C      ORRS     r0,r0,r1
        0x00000ef8:    0339        9.      LSLS     r1,r7,#12
        0x00000efa:    f10145a0    ...E    ADD      r5,r1,#0x50000000
        0x00000efe:    f5054580    ...E    ADD      r5,r5,#0x4000
        0x00000f02:    f8c50110    ....    STR      r0,[r5,#0x110]
        0x00000f06:    f8d50118    ....    LDR      r0,[r5,#0x118]
        0x00000f0a:    f0100f04    ....    TST      r0,#4
        0x00000f0e:    bf1c        ..      ITT      NE
        0x00000f10:    b002        ..      ADDNE    sp,sp,#8
        0x00000f12:    e8bd81f0    ....    POPNE    {r4-r8,pc}
        0x00000f16:    bf00        ..      NOP      
        0x00000f18:    f8d50100    ....    LDR      r0,[r5,#0x100]
        0x00000f1c:    f000017f    ....    AND      r1,r0,#0x7f
        0x00000f20:    42a1        .B      CMP      r1,r4
        0x00000f22:    d105        ..      BNE      0xf30 ; am_hal_iom_spi_read + 192
        0x00000f24:    4622        "F      MOV      r2,r4
        0x00000f26:    4631        1F      MOV      r1,r6
        0x00000f28:    4638        8F      MOV      r0,r7
        0x00000f2a:    f7fffe2d    ..-.    BL       am_hal_iom_fifo_read ; 0xb88
        0x00000f2e:    e00c        ..      B        0xf4a ; am_hal_iom_spi_read + 218
        0x00000f30:    f8d50100    ....    LDR      r0,[r5,#0x100]
        0x00000f34:    f000007f    ....    AND      r0,r0,#0x7f
        0x00000f38:    2804        .(      CMP      r0,#4
        0x00000f3a:    d306        ..      BCC      0xf4a ; am_hal_iom_spi_read + 218
        0x00000f3c:    2204        ."      MOVS     r2,#4
        0x00000f3e:    4631        1F      MOV      r1,r6
        0x00000f40:    4638        8F      MOV      r0,r7
        0x00000f42:    f7fffe21    ..!.    BL       am_hal_iom_fifo_read ; 0xb88
        0x00000f46:    1f24        $.      SUBS     r4,r4,#4
        0x00000f48:    1d36        6.      ADDS     r6,r6,#4
        0x00000f4a:    f8d50118    ....    LDR      r0,[r5,#0x118]
        0x00000f4e:    f0100f04    ....    TST      r0,#4
        0x00000f52:    d0e1        ..      BEQ      0xf18 ; am_hal_iom_spi_read + 168
        0x00000f54:    b002        ..      ADD      sp,sp,#8
        0x00000f56:    e8bd81f0    ....    POP      {r4-r8,pc}
    $d
        0x00000f5a:    0000        ..      DCW    0
        0x00000f5c:    20495053    SPI     DCD    541675603
        0x00000f60:    6e617274    tran    DCD    1851880052
        0x00000f64:    72656673    sfer    DCD    1919247987
        0x00000f68:    6f6f7420     too    DCD    1869575200
        0x00000f6c:    67696220     big    DCD    1734959648
        0x00000f70:    0000002e    ....    DCD    46
        0x00000f74:    612f2e2e    ../a    DCD    1630481966
        0x00000f78:    61685f6d    m_ha    DCD    1634230125
        0x00000f7c:    6f695f6c    l_io    DCD    1869176684
        0x00000f80:    00632e6d    m.c.    DCD    6499949
        0x00000f84:    100012a4    ....    DCD    268440228
        0x00000f88:    100000b0    ....    DCD    268435632
        0x00000f8c:    5c00ff00    ...\    DCD    1543569152
    $t
    i.am_hal_iom_spi_write
    am_hal_iom_spi_write
        0x00000f90:    e92d4ff0    -..O    PUSH     {r4-r11,lr}
        0x00000f94:    b089        ..      SUB      sp,sp,#0x24
        0x00000f96:    461d        .F      MOV      r5,r3
        0x00000f98:    9f12        ..      LDR      r7,[sp,#0x48]
        0x00000f9a:    4691        .F      MOV      r9,r2
        0x00000f9c:    4688        .F      MOV      r8,r1
        0x00000f9e:    4606        .F      MOV      r6,r0
        0x00000fa0:    f5b35f80    ..._    CMP      r3,#0x1000
        0x00000fa4:    d305        ..      BCC      0xfb2 ; am_hal_iom_spi_write + 34
        0x00000fa6:    a24b        K.      ADR      r2,{pc}+0x12e ; 0x10d4
        0x00000fa8:    f240111d    @...    MOV      r1,#0x11d
        0x00000fac:    a04f        O.      ADR      r0,{pc}+0x140 ; 0x10ec
        0x00000fae:    f7fffcef    ....    BL       am_hal_debug_error ; 0x990
        0x00000fb2:    4852        RH      LDR      r0,[pc,#328] ; [0x10fc] = 0x100012a4
        0x00000fb4:    eb060146    ..F.    ADD      r1,r6,r6,LSL #1
        0x00000fb8:    eb000ac1    ....    ADD      r10,r0,r1,LSL #3
        0x00000fbc:    0330        0.      LSLS     r0,r6,#12
        0x00000fbe:    f8da1014    ....    LDR      r1,[r10,#0x14]
        0x00000fc2:    f10044a0    ...D    ADD      r4,r0,#0x50000000
        0x00000fc6:    f5044480    ...D    ADD      r4,r4,#0x4000
        0x00000fca:    2900        .)      CMP      r1,#0
        0x00000fcc:    d035        5.      BEQ      0x103a ; am_hal_iom_spi_write + 170
        0x00000fce:    f04f0b00    O...    MOV      r11,#0
        0x00000fd2:    f7fff8c7    ....    BL       am_hal_interrupt_master_disable ; 0x164
        0x00000fd6:    9007        ..      STR      r0,[sp,#0x1c]
        0x00000fd8:    f8d40118    ....    LDR      r0,[r4,#0x118]
        0x00000fdc:    f0100f04    ....    TST      r0,#4
        0x00000fe0:    d002        ..      BEQ      0xfe8 ; am_hal_iom_spi_write + 88
        0x00000fe2:    f8da0008    ....    LDR      r0,[r10,#8]
        0x00000fe6:    b160        `.      CBZ      r0,0x1002 ; am_hal_iom_spi_write + 114
        0x00000fe8:    2000        .       MOVS     r0,#0
        0x00000fea:    9504        ..      STR      r5,[sp,#0x10]
        0x00000fec:    e88d0341    ..A.    STM      sp,{r0,r6,r8,r9}
        0x00000ff0:    e9cd7005    ...p    STRD     r7,r0,[sp,#0x14]
        0x00000ff4:    4650        PF      MOV      r0,r10
        0x00000ff6:    2201        ."      MOVS     r2,#1
        0x00000ff8:    4669        iF      MOV      r1,sp
        0x00000ffa:    f000f9c9    ....    BL       am_hal_queue_item_add ; 0x1390
        0x00000ffe:    b990        ..      CBNZ     r0,0x1026 ; am_hal_iom_spi_write + 150
        0x00001000:    e00b        ..      B        0x101a ; am_hal_iom_spi_write + 138
        0x00001002:    4630        0F      MOV      r0,r6
        0x00001004:    f7fffd8c    ....    BL       am_hal_iom_enable ; 0xb20
        0x00001008:    e9cd7b00    ...{    STRD     r7,r11,[sp,#0]
        0x0000100c:    462b        +F      MOV      r3,r5
        0x0000100e:    464a        JF      MOV      r2,r9
        0x00001010:    4641        AF      MOV      r1,r8
        0x00001012:    4630        0F      MOV      r0,r6
        0x00001014:    f000f87c    ..|.    BL       am_hal_iom_spi_write_nb ; 0x1110
        0x00001018:    e005        ..      B        0x1026 ; am_hal_iom_spi_write + 150
        0x0000101a:    4a39        9J      LDR      r2,[pc,#228] ; [0x1100] = 0x260c
        0x0000101c:    f24061f9    @..a    MOV      r1,#0x6f9
        0x00001020:    4838        8H      LDR      r0,[pc,#224] ; [0x1104] = 0x11bc
        0x00001022:    f7fffcb5    ....    BL       am_hal_debug_error ; 0x990
        0x00001026:    9807        ..      LDR      r0,[sp,#0x1c]
        0x00001028:    f7fff8a0    ....    BL       am_hal_interrupt_master_set ; 0x16c
        0x0000102c:    4936        6I      LDR      r1,[pc,#216] ; [0x1108] = 0x100000b0
        0x0000102e:    4630        0F      MOV      r0,r6
        0x00001030:    6889        .h      LDR      r1,[r1,#8]
        0x00001032:    b009        ..      ADD      sp,sp,#0x24
        0x00001034:    e8bd4ff0    ...O    POP      {r4-r11,lr}
        0x00001038:    4708        .G      BX       r1
        0x0000103a:    2d40        @-      CMP      r5,#0x40
        0x0000103c:    bf94        ..      ITE      LS
        0x0000103e:    46aa        .F      MOVLS    r10,r5
        0x00001040:    f04f0a40    O.@.    MOVHI    r10,#0x40
        0x00001044:    0330        0.      LSLS     r0,r6,#12
        0x00001046:    f10040a0    ...@    ADD      r0,r0,#0x50000000
        0x0000104a:    f5004080    ...@    ADD      r0,r0,#0x4000
        0x0000104e:    bf00        ..      NOP      
        0x00001050:    f8d01118    ....    LDR      r1,[r0,#0x118]
        0x00001054:    f0110f04    ....    TST      r1,#4
        0x00001058:    d0fa        ..      BEQ      0x1050 ; am_hal_iom_spi_write + 192
        0x0000105a:    4652        RF      MOV      r2,r10
        0x0000105c:    4649        IF      MOV      r1,r9
        0x0000105e:    4630        0F      MOV      r0,r6
        0x00001060:    f7fffdfa    ....    BL       am_hal_iom_fifo_write ; 0xc58
        0x00001064:    2000        .       MOVS     r0,#0
        0x00001066:    f4056170    ..pa    AND      r1,r5,#0xf00
        0x0000106a:    ea4030c1    @..0    ORR      r0,r0,r1,LSL #15
        0x0000106e:    b2e9        ..      UXTB     r1,r5
        0x00001070:    4308        .C      ORRS     r0,r0,r1
        0x00001072:    f44f21e0    O..!    MOV      r1,#0x70000
        0x00001076:    ea014108    ...A    AND      r1,r1,r8,LSL #16
        0x0000107a:    4308        .C      ORRS     r0,r0,r1
        0x0000107c:    4923        #I      LDR      r1,[pc,#140] ; [0x110c] = 0x5c00ff00
        0x0000107e:    4039        9@      ANDS     r1,r1,r7
        0x00001080:    4308        .C      ORRS     r0,r0,r1
        0x00001082:    f8c40110    ....    STR      r0,[r4,#0x110]
        0x00001086:    f02a0003    *...    BIC      r0,r10,#3
        0x0000108a:    ebb5050a    ....    SUBS     r5,r5,r10
        0x0000108e:    eb000809    ....    ADD      r8,r0,r9
        0x00001092:    bf04        ..      ITT      EQ
        0x00001094:    b009        ..      ADDEQ    sp,sp,#0x24
        0x00001096:    e8bd8ff0    ....    POPEQ    {r4-r11,pc}
        0x0000109a:    bf00        ..      NOP      
        0x0000109c:    f8d40100    ....    LDR      r0,[r4,#0x100]
        0x000010a0:    f3c04006    ...@    UBFX     r0,r0,#16,#7
        0x000010a4:    42a8        .B      CMP      r0,r5
        0x000010a6:    bf28        (.      IT       CS
        0x000010a8:    462f        /F      MOVCS    r7,r5
        0x000010aa:    d205        ..      BCS      0x10b8 ; am_hal_iom_spi_write + 296
        0x000010ac:    f8d40100    ....    LDR      r0,[r4,#0x100]
        0x000010b0:    f3c04006    ...@    UBFX     r0,r0,#16,#7
        0x000010b4:    f0200703     ...    BIC      r7,r0,#3
        0x000010b8:    463a        :F      MOV      r2,r7
        0x000010ba:    4641        AF      MOV      r1,r8
        0x000010bc:    4630        0F      MOV      r0,r6
        0x000010be:    f7fffdcb    ....    BL       am_hal_iom_fifo_write ; 0xc58
        0x000010c2:    f0270003    '...    BIC      r0,r7,#3
        0x000010c6:    1bed        ..      SUBS     r5,r5,r7
        0x000010c8:    4480        .D      ADD      r8,r8,r0
        0x000010ca:    d1e7        ..      BNE      0x109c ; am_hal_iom_spi_write + 268
        0x000010cc:    b009        ..      ADD      sp,sp,#0x24
        0x000010ce:    e8bd8ff0    ....    POP      {r4-r11,pc}
    $d
        0x000010d2:    0000        ..      DCW    0
        0x000010d4:    20495053    SPI     DCD    541675603
        0x000010d8:    6e617274    tran    DCD    1851880052
        0x000010dc:    72656673    sfer    DCD    1919247987
        0x000010e0:    6f6f7420     too    DCD    1869575200
        0x000010e4:    67696220     big    DCD    1734959648
        0x000010e8:    0000002e    ....    DCD    46
        0x000010ec:    612f2e2e    ../a    DCD    1630481966
        0x000010f0:    61685f6d    m_ha    DCD    1634230125
        0x000010f4:    6f695f6c    l_io    DCD    1869176684
        0x000010f8:    00632e6d    m.c.    DCD    6499949
        0x000010fc:    100012a4    ....    DCD    268440228
        0x00001100:    0000260c    .&..    DCD    9740
        0x00001104:    000011bc    ....    DCD    4540
        0x00001108:    100000b0    ....    DCD    268435632
        0x0000110c:    5c00ff00    ...\    DCD    1543569152
    $t
    i.am_hal_iom_spi_write_nb
    am_hal_iom_spi_write_nb
        0x00001110:    e92d47f0    -..G    PUSH     {r4-r10,lr}
        0x00001114:    461c        .F      MOV      r4,r3
        0x00001116:    e9dd9a08    ....    LDRD     r9,r10,[sp,#0x20]
        0x0000111a:    4616        .F      MOV      r6,r2
        0x0000111c:    4688        .F      MOV      r8,r1
        0x0000111e:    4605        .F      MOV      r5,r0
        0x00001120:    f5b35f80    ..._    CMP      r3,#0x1000
        0x00001124:    d305        ..      BCC      0x1132 ; am_hal_iom_spi_write_nb + 34
        0x00001126:    a21f        ..      ADR      r2,{pc}+0x7e ; 0x11a4
        0x00001128:    f24011f9    @...    MOV      r1,#0x1f9
        0x0000112c:    a023        #.      ADR      r0,{pc}+0x90 ; 0x11bc
        0x0000112e:    f7fffc2f    ../.    BL       am_hal_debug_error ; 0x990
        0x00001132:    2c40        @,      CMP      r4,#0x40
        0x00001134:    bf94        ..      ITE      LS
        0x00001136:    4627        'F      MOVLS    r7,r4
        0x00001138:    2740        @'      MOVHI    r7,#0x40
        0x0000113a:    0328        (.      LSLS     r0,r5,#12
        0x0000113c:    f10040a0    ...@    ADD      r0,r0,#0x50000000
        0x00001140:    f5004080    ...@    ADD      r0,r0,#0x4000
        0x00001144:    f8d01118    ....    LDR      r1,[r0,#0x118]
        0x00001148:    f0110f04    ....    TST      r1,#4
        0x0000114c:    d0fa        ..      BEQ      0x1144 ; am_hal_iom_spi_write_nb + 52
        0x0000114e:    463a        :F      MOV      r2,r7
        0x00001150:    4631        1F      MOV      r1,r6
        0x00001152:    4628        (F      MOV      r0,r5
        0x00001154:    f7fffd80    ....    BL       am_hal_iom_fifo_write ; 0xc58
        0x00001158:    481c        .H      LDR      r0,[pc,#112] ; [0x11cc] = 0x10001284
        0x0000115a:    2101        .!      MOVS     r1,#1
        0x0000115c:    eb001005    ....    ADD      r0,r0,r5,LSL #4
        0x00001160:    6001        .`      STR      r1,[r0,#0]
        0x00001162:    1be1        ..      SUBS     r1,r4,r7
        0x00001164:    e9c01a02    ....    STRD     r1,r10,[r0,#8]
        0x00001168:    f0270103    '...    BIC      r1,r7,#3
        0x0000116c:    4431        1D      ADD      r1,r1,r6
        0x0000116e:    6041        A`      STR      r1,[r0,#4]
        0x00001170:    2000        .       MOVS     r0,#0
        0x00001172:    f4046170    ..pa    AND      r1,r4,#0xf00
        0x00001176:    ea4030c1    @..0    ORR      r0,r0,r1,LSL #15
        0x0000117a:    b2e1        ..      UXTB     r1,r4
        0x0000117c:    4308        .C      ORRS     r0,r0,r1
        0x0000117e:    f44f21e0    O..!    MOV      r1,#0x70000
        0x00001182:    ea014108    ...A    AND      r1,r1,r8,LSL #16
        0x00001186:    4308        .C      ORRS     r0,r0,r1
        0x00001188:    4911        .I      LDR      r1,[pc,#68] ; [0x11d0] = 0x5c00ff00
        0x0000118a:    ea090101    ....    AND      r1,r9,r1
        0x0000118e:    4308        .C      ORRS     r0,r0,r1
        0x00001190:    0329        ).      LSLS     r1,r5,#12
        0x00001192:    f10141a0    ...A    ADD      r1,r1,#0x50000000
        0x00001196:    f5014180    ...A    ADD      r1,r1,#0x4000
        0x0000119a:    f8c10110    ....    STR      r0,[r1,#0x110]
        0x0000119e:    e8bd87f0    ....    POP      {r4-r10,pc}
    $d
        0x000011a2:    0000        ..      DCW    0
        0x000011a4:    20495053    SPI     DCD    541675603
        0x000011a8:    6e617274    tran    DCD    1851880052
        0x000011ac:    72656673    sfer    DCD    1919247987
        0x000011b0:    6f6f7420     too    DCD    1869575200
        0x000011b4:    67696220     big    DCD    1734959648
        0x000011b8:    0000002e    ....    DCD    46
        0x000011bc:    612f2e2e    ../a    DCD    1630481966
        0x000011c0:    61685f6d    m_ha    DCD    1634230125
        0x000011c4:    6f695f6c    l_io    DCD    1869176684
        0x000011c8:    00632e6d    m.c.    DCD    6499949
        0x000011cc:    10001284    ....    DCD    268440196
        0x000011d0:    5c00ff00    ...\    DCD    1543569152
    $t
    i.am_hal_ios_access_int_clear
    am_hal_ios_access_int_clear
        0x000011d4:    f04f41a0    O..A    MOV      r1,#0x50000000
        0x000011d8:    f8c10218    ....    STR      r0,[r1,#0x218]
        0x000011dc:    4770        pG      BX       lr
    i.am_hal_ios_access_int_enable
    am_hal_ios_access_int_enable
        0x000011de:    f04f41a0    O..A    MOV      r1,#0x50000000
        0x000011e2:    f8d12210    ..."    LDR      r2,[r1,#0x210]
        0x000011e6:    4310        .C      ORRS     r0,r0,r2
        0x000011e8:    f8c10210    ....    STR      r0,[r1,#0x210]
        0x000011ec:    4770        pG      BX       lr
    i.am_hal_ios_access_int_status_get
    am_hal_ios_access_int_status_get
        0x000011ee:    f04f41a0    O..A    MOV      r1,#0x50000000
        0x000011f2:    2800        .(      CMP      r0,#0
        0x000011f4:    f8d10214    ....    LDR      r0,[r1,#0x214]
        0x000011f8:    bf1c        ..      ITT      NE
        0x000011fa:    f8d11210    ....    LDRNE    r1,[r1,#0x210]
        0x000011fe:    4008        .@      ANDNE    r0,r0,r1
        0x00001200:    4770        pG      BX       lr
        0x00001202:    0000        ..      MOVS     r0,r0
    i.am_hal_ios_config
    am_hal_ios_config
        0x00001204:    b410        ..      PUSH     {r4}
        0x00001206:    6883        .h      LDR      r3,[r0,#8]
        0x00001208:    4a20         J      LDR      r2,[pc,#128] ; [0x128c] = 0x100000bc
        0x0000120a:    f10341a0    ...A    ADD      r1,r3,#0x50000000
        0x0000120e:    f04f547c    O.|T    MOV      r4,#0x3f000000
        0x00001212:    6011        .`      STR      r1,[r2,#0]
        0x00001214:    68c1        .h      LDR      r1,[r0,#0xc]
        0x00001216:    f3c303c4    ....    UBFX     r3,r3,#3,#5
        0x0000121a:    f1014ca0    ...L    ADD      r12,r1,#0x50000000
        0x0000121e:    f8c2c004    ....    STR      r12,[r2,#4]
        0x00001222:    f8b0c004    ....    LDRH     r12,[r0,#4]
        0x00001226:    08c9        ..      LSRS     r1,r1,#3
        0x00001228:    ea4f0cdc    O...    LSR      r12,r12,#3
        0x0000122c:    ea046c0c    ...l    AND      r12,r4,r12,LSL #24
        0x00001230:    ea43030c    C...    ORR      r3,r3,r12
        0x00001234:    f44f5c7c    O.|\    MOV      r12,#0x3f00
        0x00001238:    ea0c2101    ...!    AND      r1,r12,r1,LSL #8
        0x0000123c:    430b        .C      ORRS     r3,r3,r1
        0x0000123e:    f04f41a0    O..A    MOV      r1,#0x50000000
        0x00001242:    f8d1c118    ....    LDR      r12,[r1,#0x118]
        0x00001246:    f02c4c00    ,..L    BIC      r12,r12,#0x80000000
        0x0000124a:    f8c1c118    ....    STR      r12,[r1,#0x118]
        0x0000124e:    f8d0c000    ....    LDR      r12,[r0,#0]
        0x00001252:    f8c1c118    ....    STR      r12,[r1,#0x118]
        0x00001256:    f8c13104    ...1    STR      r3,[r1,#0x104]
        0x0000125a:    f8d13118    ...1    LDR      r3,[r1,#0x118]
        0x0000125e:    f0434300    C..C    ORR      r3,r3,#0x80000000
        0x00001262:    f8c13118    ...1    STR      r3,[r1,#0x118]
        0x00001266:    f04f0c01    O...    MOV      r12,#1
        0x0000126a:    6883        .h      LDR      r3,[r0,#8]
        0x0000126c:    f8c1c10c    ....    STR      r12,[r1,#0x10c]
        0x00001270:    f8c13100    ...1    STR      r3,[r1,#0x100]
        0x00001274:    f04f0c00    O...    MOV      r12,#0
        0x00001278:    f8c1c10c    ....    STR      r12,[r1,#0x10c]
        0x0000127c:    f10343a0    ...C    ADD      r3,r3,#0x50000000
        0x00001280:    6093        .`      STR      r3,[r2,#8]
        0x00001282:    6900        .i      LDR      r0,[r0,#0x10]
        0x00001284:    f8c10108    ....    STR      r0,[r1,#0x108]
        0x00001288:    bc10        ..      POP      {r4}
        0x0000128a:    4770        pG      BX       lr
    $d
        0x0000128c:    100000bc    ....    DCD    268435644
    $t
    i.am_hal_ios_fifo_service
    am_hal_ios_fifo_service
        0x00001290:    b410        ..      PUSH     {r4}
        0x00001292:    f0100f01    ....    TST      r0,#1
        0x00001296:    bf04        ..      ITT      EQ
        0x00001298:    bc10        ..      POPEQ    {r4}
        0x0000129a:    4770        pG      BXEQ     lr
        0x0000129c:    4920         I      LDR      r1,[pc,#128] ; [0x1320] = 0x100000bc
        0x0000129e:    f04f43a0    O..C    MOV      r3,#0x50000000
        0x000012a2:    e9d12000    ...     LDRD     r2,r0,[r1,#0]
        0x000012a6:    1a80        ..      SUBS     r0,r0,r2
        0x000012a8:    f8d32100    ...!    LDR      r2,[r3,#0x100]
        0x000012ac:    f3c22207    ..."    UBFX     r2,r2,#8,#8
        0x000012b0:    4290        .B      CMP      r0,r2
        0x000012b2:    bf12        ..      ITEE     NE
        0x000012b4:    481b        .H      LDRNE    r0,[pc,#108] ; [0x1324] = 0x100012d4
        0x000012b6:    bc10        ..      POPEQ    {r4}
        0x000012b8:    4770        pG      BXEQ     lr
        0x000012ba:    68c2        .h      LDR      r2,[r0,#0xc]
        0x000012bc:    2a00        .*      CMP      r2,#0
        0x000012be:    bf04        ..      ITT      EQ
        0x000012c0:    bc10        ..      POPEQ    {r4}
        0x000012c2:    4770        pG      BXEQ     lr
        0x000012c4:    688a        .h      LDR      r2,[r1,#8]
        0x000012c6:    f8d0c00c    ....    LDR      r12,[r0,#0xc]
        0x000012ca:    f1bc0f00    ....    CMP      r12,#0
        0x000012ce:    d012        ..      BEQ      0x12f6 ; am_hal_ios_fifo_service + 102
        0x000012d0:    f8d0c000    ....    LDR      r12,[r0,#0]
        0x000012d4:    6884        .h      LDR      r4,[r0,#8]
        0x000012d6:    f81cc004    ....    LDRB     r12,[r12,r4]
        0x000012da:    f882c000    ....    STRB     r12,[r2,#0]
        0x000012de:    6882        .h      LDR      r2,[r0,#8]
        0x000012e0:    f1020c01    ....    ADD      r12,r2,#1
        0x000012e4:    6902        .i      LDR      r2,[r0,#0x10]
        0x000012e6:    fbbcf4f2    ....    UDIV     r4,r12,r2
        0x000012ea:    fb02c214    ....    MLS      r2,r2,r4,r12
        0x000012ee:    6082        .`      STR      r2,[r0,#8]
        0x000012f0:    68c2        .h      LDR      r2,[r0,#0xc]
        0x000012f2:    1e52        R.      SUBS     r2,r2,#1
        0x000012f4:    60c2        .`      STR      r2,[r0,#0xc]
        0x000012f6:    688a        .h      LDR      r2,[r1,#8]
        0x000012f8:    1c52        R.      ADDS     r2,r2,#1
        0x000012fa:    608a        .`      STR      r2,[r1,#8]
        0x000012fc:    f8d1c004    ....    LDR      r12,[r1,#4]
        0x00001300:    4562        bE      CMP      r2,r12
        0x00001302:    bf04        ..      ITT      EQ
        0x00001304:    680a        .h      LDREQ    r2,[r1,#0]
        0x00001306:    608a        .`      STREQ    r2,[r1,#8]
        0x00001308:    680a        .h      LDR      r2,[r1,#0]
        0x0000130a:    ebac0202    ....    SUB      r2,r12,r2
        0x0000130e:    f8d3c100    ....    LDR      r12,[r3,#0x100]
        0x00001312:    f3cc2c07    ...,    UBFX     r12,r12,#8,#8
        0x00001316:    4562        bE      CMP      r2,r12
        0x00001318:    d1cf        ..      BNE      0x12ba ; am_hal_ios_fifo_service + 42
        0x0000131a:    bc10        ..      POP      {r4}
        0x0000131c:    4770        pG      BX       lr
    $d
        0x0000131e:    0000        ..      DCW    0
        0x00001320:    100000bc    ....    DCD    268435644
        0x00001324:    100012d4    ....    DCD    268440276
    $t
    i.am_hal_ios_int_clear
    am_hal_ios_int_clear
        0x00001328:    f04f41a0    O..A    MOV      r1,#0x50000000
        0x0000132c:    f8c10208    ....    STR      r0,[r1,#0x208]
        0x00001330:    4770        pG      BX       lr
    i.am_hal_ios_int_enable
    am_hal_ios_int_enable
        0x00001332:    f04f41a0    O..A    MOV      r1,#0x50000000
        0x00001336:    f8d12200    ..."    LDR      r2,[r1,#0x200]
        0x0000133a:    4310        .C      ORRS     r0,r0,r2
        0x0000133c:    f8c10200    ....    STR      r0,[r1,#0x200]
        0x00001340:    4770        pG      BX       lr
    i.am_hal_ios_int_status_get
    am_hal_ios_int_status_get
        0x00001342:    f04f41a0    O..A    MOV      r1,#0x50000000
        0x00001346:    2800        .(      CMP      r0,#0
        0x00001348:    f8d10204    ....    LDR      r0,[r1,#0x204]
        0x0000134c:    bf1c        ..      ITT      NE
        0x0000134e:    f8d11200    ....    LDRNE    r1,[r1,#0x200]
        0x00001352:    4008        .@      ANDNE    r0,r0,r1
        0x00001354:    4770        pG      BX       lr
        0x00001356:    0000        ..      MOVS     r0,r0
    i.am_hal_mcuctrl_bandgap_disable
    am_hal_mcuctrl_bandgap_disable
        0x00001358:    4902        .I      LDR      r1,[pc,#8] ; [0x1364] = 0x40020000
        0x0000135a:    f06f0001    o...    MVN      r0,#1
        0x0000135e:    f8c100fc    ....    STR      r0,[r1,#0xfc]
        0x00001362:    4770        pG      BX       lr
    $d
        0x00001364:    40020000    ...@    DCD    1073872896
    $t
    i.am_hal_mcuctrl_bucks_enable
    am_hal_mcuctrl_bucks_enable
        0x00001368:    4808        .H      LDR      r0,[pc,#32] ; [0x138c] = 0x40020000
        0x0000136a:    6901        .i      LDR      r1,[r0,#0x10]
        0x0000136c:    f0410102    A...    ORR      r1,r1,#2
        0x00001370:    6101        .a      STR      r1,[r0,#0x10]
        0x00001372:    6901        .i      LDR      r1,[r0,#0x10]
        0x00001374:    f0410101    A...    ORR      r1,r1,#1
        0x00001378:    6101        .a      STR      r1,[r0,#0x10]
        0x0000137a:    6941        Ai      LDR      r1,[r0,#0x14]
        0x0000137c:    f0110f02    ....    TST      r1,#2
        0x00001380:    d0fb        ..      BEQ      0x137a ; am_hal_mcuctrl_bucks_enable + 18
        0x00001382:    6941        Ai      LDR      r1,[r0,#0x14]
        0x00001384:    f0110f01    ....    TST      r1,#1
        0x00001388:    d0fb        ..      BEQ      0x1382 ; am_hal_mcuctrl_bucks_enable + 26
        0x0000138a:    4770        pG      BX       lr
    $d
        0x0000138c:    40020000    ...@    DCD    1073872896
    $t
    i.am_hal_queue_item_add
    am_hal_queue_item_add
        0x00001390:    e92d41f0    -..A    PUSH     {r4-r8,lr}
        0x00001394:    4604        .F      MOV      r4,r0
        0x00001396:    6900        .i      LDR      r0,[r0,#0x10]
        0x00001398:    2600        .&      MOVS     r6,#0
        0x0000139a:    fb00f502    ....    MUL      r5,r0,r2
        0x0000139e:    460f        .F      MOV      r7,r1
        0x000013a0:    f7fefee0    ....    BL       am_hal_interrupt_master_disable ; 0x164
        0x000013a4:    4603        .F      MOV      r3,r0
        0x000013a6:    e9d41002    ....    LDRD     r1,r0,[r4,#8]
        0x000013aa:    1a40        @.      SUBS     r0,r0,r1
        0x000013ac:    42a8        .B      CMP      r0,r5
        0x000013ae:    d338        8.      BCC      0x1422 ; am_hal_queue_item_add + 146
        0x000013b0:    b39d        ..      CBZ      r5,0x141a ; am_hal_queue_item_add + 138
        0x000013b2:    1e78        x.      SUBS     r0,r7,#1
        0x000013b4:    f0150f01    ....    TST      r5,#1
        0x000013b8:    d00e        ..      BEQ      0x13d8 ; am_hal_queue_item_add + 72
        0x000013ba:    f8d4c000    ....    LDR      r12,[r4,#0]
        0x000013be:    6962        bi      LDR      r2,[r4,#0x14]
        0x000013c0:    f8101f01    ....    LDRB     r1,[r0,#1]!
        0x000013c4:    f802100c    ....    STRB     r1,[r2,r12]
        0x000013c8:    6821        !h      LDR      r1,[r4,#0]
        0x000013ca:    68e2        .h      LDR      r2,[r4,#0xc]
        0x000013cc:    1c49        I.      ADDS     r1,r1,#1
        0x000013ce:    fbb1fcf2    ....    UDIV     r12,r1,r2
        0x000013d2:    fb02111c    ....    MLS      r1,r2,r12,r1
        0x000013d6:    6021        !`      STR      r1,[r4,#0]
        0x000013d8:    0869        i.      LSRS     r1,r5,#1
        0x000013da:    d01e        ..      BEQ      0x141a ; am_hal_queue_item_add + 138
        0x000013dc:    f8d4c014    ....    LDR      r12,[r4,#0x14]
        0x000013e0:    6826        &h      LDR      r6,[r4,#0]
        0x000013e2:    7842        Bx      LDRB     r2,[r0,#1]
        0x000013e4:    f80c2006    ...     STRB     r2,[r12,r6]
        0x000013e8:    6822        "h      LDR      r2,[r4,#0]
        0x000013ea:    f8d4c00c    ....    LDR      r12,[r4,#0xc]
        0x000013ee:    1c52        R.      ADDS     r2,r2,#1
        0x000013f0:    fbb2f6fc    ....    UDIV     r6,r2,r12
        0x000013f4:    fb0c2216    ..."    MLS      r2,r12,r6,r2
        0x000013f8:    6022        "`      STR      r2,[r4,#0]
        0x000013fa:    6966        fi      LDR      r6,[r4,#0x14]
        0x000013fc:    f810cf02    ....    LDRB     r12,[r0,#2]!
        0x00001400:    f806c002    ....    STRB     r12,[r6,r2]
        0x00001404:    6822        "h      LDR      r2,[r4,#0]
        0x00001406:    f8d4c00c    ....    LDR      r12,[r4,#0xc]
        0x0000140a:    1c52        R.      ADDS     r2,r2,#1
        0x0000140c:    fbb2f6fc    ....    UDIV     r6,r2,r12
        0x00001410:    fb0c2216    ..."    MLS      r2,r12,r6,r2
        0x00001414:    6022        "`      STR      r2,[r4,#0]
        0x00001416:    1e49        I.      SUBS     r1,r1,#1
        0x00001418:    d1e0        ..      BNE      0x13dc ; am_hal_queue_item_add + 76
        0x0000141a:    68a0        .h      LDR      r0,[r4,#8]
        0x0000141c:    2601        .&      MOVS     r6,#1
        0x0000141e:    4428        (D      ADD      r0,r0,r5
        0x00001420:    60a0        .`      STR      r0,[r4,#8]
        0x00001422:    4618        .F      MOV      r0,r3
        0x00001424:    f7fefea2    ....    BL       am_hal_interrupt_master_set ; 0x16c
        0x00001428:    4630        0F      MOV      r0,r6
        0x0000142a:    e8bd81f0    ....    POP      {r4-r8,pc}
    i.am_hal_reset_poi
    am_hal_reset_poi
        0x0000142e:    f04f4180    O..A    MOV      r1,#0x40000000
        0x00001432:    201b        .       MOVS     r0,#0x1b
        0x00001434:    6048        H`      STR      r0,[r1,#4]
        0x00001436:    4770        pG      BX       lr
    i.am_hal_rtc_osc_disable
    am_hal_rtc_osc_disable
        0x00001438:    f04f2040    O.@     MOV      r0,#0x40004000
        0x0000143c:    6d01        .m      LDR      r1,[r0,#0x50]
        0x0000143e:    f0410110    A...    ORR      r1,r1,#0x10
        0x00001442:    6501        .e      STR      r1,[r0,#0x50]
        0x00001444:    4770        pG      BX       lr
    i.am_hal_rtc_osc_select
    am_hal_rtc_osc_select
        0x00001446:    f04f2140    O.@!    MOV      r1,#0x40004000
        0x0000144a:    2800        .(      CMP      r0,#0
        0x0000144c:    68c8        .h      LDR      r0,[r1,#0xc]
        0x0000144e:    bf14        ..      ITE      NE
        0x00001450:    f0400080    @...    ORRNE    r0,r0,#0x80
        0x00001454:    f0200080     ...    BICEQ    r0,r0,#0x80
        0x00001458:    60c8        .`      STR      r0,[r1,#0xc]
        0x0000145a:    4770        pG      BX       lr
    i.am_hal_sysctrl_sleep
    am_hal_sysctrl_sleep
        0x0000145c:    490a        .I      LDR      r1,[pc,#40] ; [0x1488] = 0xe000ed10
        0x0000145e:    b160        `.      CBZ      r0,0x147a ; am_hal_sysctrl_sleep + 30
        0x00001460:    480a        .H      LDR      r0,[pc,#40] ; [0x148c] = 0x40020000
        0x00001462:    f8d00250    ..P.    LDR      r0,[r0,#0x250]
        0x00001466:    f0300001    0...    BICS     r0,r0,#1
        0x0000146a:    6808        .h      LDR      r0,[r1,#0]
        0x0000146c:    bf0c        ..      ITE      EQ
        0x0000146e:    f0400004    @...    ORREQ    r0,r0,#4
        0x00001472:    f0200004     ...    BICNE    r0,r0,#4
        0x00001476:    6008        .`      STR      r0,[r1,#0]
        0x00001478:    e003        ..      B        0x1482 ; am_hal_sysctrl_sleep + 38
        0x0000147a:    6808        .h      LDR      r0,[r1,#0]
        0x0000147c:    f0200004     ...    BIC      r0,r0,#4
        0x00001480:    6008        .`      STR      r0,[r1,#0]
        0x00001482:    bf30        0.      WFI      
        0x00001484:    4770        pG      BX       lr
    $d
        0x00001486:    0000        ..      DCW    0
        0x00001488:    e000ed10    ....    DCD    3758157072
        0x0000148c:    40020000    ...@    DCD    1073872896
    $t
    i.am_hal_systick_count
    am_hal_systick_count
        0x00001490:    f04f20e0    O..     MOV      r0,#0xe000e000
        0x00001494:    6980        .i      LDR      r0,[r0,#0x18]
        0x00001496:    4770        pG      BX       lr
    i.am_hal_systick_load
    am_hal_systick_load
        0x00001498:    f04f21e0    O..!    MOV      r1,#0xe000e000
        0x0000149c:    6148        Ha      STR      r0,[r1,#0x14]
        0x0000149e:    4770        pG      BX       lr
    i.am_hal_systick_start
    am_hal_systick_start
        0x000014a0:    f04f20e0    O..     MOV      r0,#0xe000e000
        0x000014a4:    6901        .i      LDR      r1,[r0,#0x10]
        0x000014a6:    f0410101    A...    ORR      r1,r1,#1
        0x000014aa:    6101        .a      STR      r1,[r0,#0x10]
        0x000014ac:    4770        pG      BX       lr
        0x000014ae:    0000        ..      MOVS     r0,r0
    i.am_hal_uart_char_transmit_polled
    am_hal_uart_char_transmit_polled
        0x000014b0:    4803        .H      LDR      r0,[pc,#12] ; [0x14c0] = 0x4001c000
        0x000014b2:    6982        .i      LDR      r2,[r0,#0x18]
        0x000014b4:    f0120f20    .. .    TST      r2,#0x20
        0x000014b8:    d1fb        ..      BNE      0x14b2 ; am_hal_uart_char_transmit_polled + 2
        0x000014ba:    6001        .`      STR      r1,[r0,#0]
        0x000014bc:    4770        pG      BX       lr
    $d
        0x000014be:    0000        ..      DCW    0
        0x000014c0:    4001c000    ...@    DCD    1073856512
    $t
    i.am_hal_uart_clock_enable
    am_hal_uart_clock_enable
        0x000014c4:    f04f2040    O.@     MOV      r0,#0x40004000
        0x000014c8:    6ac1        .j      LDR      r1,[r0,#0x2c]
        0x000014ca:    f0410101    A...    ORR      r1,r1,#1
        0x000014ce:    62c1        .b      STR      r1,[r0,#0x2c]
        0x000014d0:    4804        .H      LDR      r0,[pc,#16] ; [0x14e4] = 0x4001c000
        0x000014d2:    6b01        .k      LDR      r1,[r0,#0x30]
        0x000014d4:    f0410108    A...    ORR      r1,r1,#8
        0x000014d8:    6301        .c      STR      r1,[r0,#0x30]
        0x000014da:    6b01        .k      LDR      r1,[r0,#0x30]
        0x000014dc:    f0410110    A...    ORR      r1,r1,#0x10
        0x000014e0:    6301        .c      STR      r1,[r0,#0x30]
        0x000014e2:    4770        pG      BX       lr
    $d
        0x000014e4:    4001c000    ...@    DCD    1073856512
    $t
    i.am_hal_uart_config
    am_hal_uart_config
        0x000014e8:    b570        p.      PUSH     {r4-r6,lr}
        0x000014ea:    460c        .F      MOV      r4,r1
        0x000014ec:    680d        .h      LDR      r5,[r1,#0]
        0x000014ee:    f7fffa17    ....    BL       am_hal_clkgen_sysclk_get ; 0x920
        0x000014f2:    0129        ).      LSLS     r1,r5,#4
        0x000014f4:    fbb0f2f1    ....    UDIV     r2,r0,r1
        0x000014f8:    0180        ..      LSLS     r0,r0,#6
        0x000014fa:    fbb0f0f1    ....    UDIV     r0,r0,r1
        0x000014fe:    0191        ..      LSLS     r1,r2,#6
        0x00001500:    1a41        A.      SUBS     r1,r0,r1
        0x00001502:    b1ba        ..      CBZ      r2,0x1534 ; am_hal_uart_config + 76
        0x00001504:    480c        .H      LDR      r0,[pc,#48] ; [0x1538] = 0x4001c000
        0x00001506:    6242        Bb      STR      r2,[r0,#0x24]
        0x00001508:    6242        Bb      STR      r2,[r0,#0x24]
        0x0000150a:    6281        .b      STR      r1,[r0,#0x28]
        0x0000150c:    7a22        "z      LDRB     r2,[r4,#8]
        0x0000150e:    6861        ah      LDR      r1,[r4,#4]
        0x00001510:    2a00        .*      CMP      r2,#0
        0x00001512:    bf18        ..      IT       NE
        0x00001514:    2208        ."      MOVNE    r2,#8
        0x00001516:    4311        .C      ORRS     r1,r1,r2
        0x00001518:    68e2        .h      LDR      r2,[r4,#0xc]
        0x0000151a:    4311        .C      ORRS     r1,r1,r2
        0x0000151c:    6ac2        .j      LDR      r2,[r0,#0x2c]
        0x0000151e:    4311        .C      ORRS     r1,r1,r2
        0x00001520:    62c1        .b      STR      r1,[r0,#0x2c]
        0x00001522:    6b01        .k      LDR      r1,[r0,#0x30]
        0x00001524:    6922        "i      LDR      r2,[r4,#0x10]
        0x00001526:    4311        .C      ORRS     r1,r1,r2
        0x00001528:    6301        .c      STR      r1,[r0,#0x30]
        0x0000152a:    6b01        .k      LDR      r1,[r0,#0x30]
        0x0000152c:    f0410110    A...    ORR      r1,r1,#0x10
        0x00001530:    6301        .c      STR      r1,[r0,#0x30]
        0x00001532:    bd70        p.      POP      {r4-r6,pc}
        0x00001534:    e7fe        ..      B        0x1534 ; am_hal_uart_config + 76
    $d
        0x00001536:    0000        ..      DCW    0
        0x00001538:    4001c000    ...@    DCD    1073856512
    $t
    i.am_hal_uart_disable
    am_hal_uart_disable
        0x0000153c:    4803        .H      LDR      r0,[pc,#12] ; [0x154c] = 0x4001c000
        0x0000153e:    6b01        .k      LDR      r1,[r0,#0x30]
        0x00001540:    f0210101    !...    BIC      r1,r1,#1
        0x00001544:    f4217140    !.@q    BIC      r1,r1,#0x300
        0x00001548:    6301        .c      STR      r1,[r0,#0x30]
        0x0000154a:    4770        pG      BX       lr
    $d
        0x0000154c:    4001c000    ...@    DCD    1073856512
    $t
    i.am_hal_uart_enable
    am_hal_uart_enable
        0x00001550:    4803        .H      LDR      r0,[pc,#12] ; [0x1560] = 0x4001c000
        0x00001552:    6b01        .k      LDR      r1,[r0,#0x30]
        0x00001554:    f2403201    @..2    MOV      r2,#0x301
        0x00001558:    4311        .C      ORRS     r1,r1,r2
        0x0000155a:    6301        .c      STR      r1,[r0,#0x30]
        0x0000155c:    4770        pG      BX       lr
    $d
        0x0000155e:    0000        ..      DCW    0
        0x00001560:    4001c000    ...@    DCD    1073856512
    $t
    i.am_hal_uart_fifo_config
    am_hal_uart_fifo_config
        0x00001564:    4803        .H      LDR      r0,[pc,#12] ; [0x1574] = 0x4001c000
        0x00001566:    6ac2        .j      LDR      r2,[r0,#0x2c]
        0x00001568:    f0420210    B...    ORR      r2,r2,#0x10
        0x0000156c:    62c2        .b      STR      r2,[r0,#0x2c]
        0x0000156e:    6341        Ac      STR      r1,[r0,#0x34]
        0x00001570:    4770        pG      BX       lr
    $d
        0x00001572:    0000        ..      DCW    0
        0x00001574:    4001c000    ...@    DCD    1073856512
    $t
    i.am_hal_uart_int_clear
    am_hal_uart_int_clear
        0x00001578:    4801        .H      LDR      r0,[pc,#4] ; [0x1580] = 0x4001c000
        0x0000157a:    6441        Ad      STR      r1,[r0,#0x44]
        0x0000157c:    4770        pG      BX       lr
    $d
        0x0000157e:    0000        ..      DCW    0
        0x00001580:    4001c000    ...@    DCD    1073856512
    $t
    i.am_hal_uart_int_enable
    am_hal_uart_int_enable
        0x00001584:    4802        .H      LDR      r0,[pc,#8] ; [0x1590] = 0x4001c000
        0x00001586:    6b82        .k      LDR      r2,[r0,#0x38]
        0x00001588:    4311        .C      ORRS     r1,r1,r2
        0x0000158a:    6381        .c      STR      r1,[r0,#0x38]
        0x0000158c:    4770        pG      BX       lr
    $d
        0x0000158e:    0000        ..      DCW    0
        0x00001590:    4001c000    ...@    DCD    1073856512
    $t
    i.am_hal_uart_int_status_get
    am_hal_uart_int_status_get
        0x00001594:    4802        .H      LDR      r0,[pc,#8] ; [0x15a0] = 0x4001c000
        0x00001596:    2900        .)      CMP      r1,#0
        0x00001598:    bf14        ..      ITE      NE
        0x0000159a:    6c00        .l      LDRNE    r0,[r0,#0x40]
        0x0000159c:    6bc0        .k      LDREQ    r0,[r0,#0x3c]
        0x0000159e:    4770        pG      BX       lr
    $d
        0x000015a0:    4001c000    ...@    DCD    1073856512
    $t
    i.am_hal_vcomp_disable
    am_hal_vcomp_disable
        0x000015a4:    4901        .I      LDR      r1,[pc,#4] ; [0x15ac] = 0x4000c000
        0x000015a6:    2037        7       MOVS     r0,#0x37
        0x000015a8:    6088        .`      STR      r0,[r1,#8]
        0x000015aa:    4770        pG      BX       lr
    $d
        0x000015ac:    4000c000    ...@    DCD    1073790976
    $t
    i.am_ioslave_acc_isr
    am_ioslave_acc_isr
        0x000015b0:    b570        p.      PUSH     {r4-r6,lr}
        0x000015b2:    2001        .       MOVS     r0,#1
        0x000015b4:    493e        >I      LDR      r1,[pc,#248] ; [0x16b0] = 0x10000018
        0x000015b6:    7008        .p      STRB     r0,[r1,#0]
        0x000015b8:    483e        >H      LDR      r0,[pc,#248] ; [0x16b4] = 0x2608
        0x000015ba:    6804        .h      LDR      r4,[r0,#0]
        0x000015bc:    2000        .       MOVS     r0,#0
        0x000015be:    f7fffe16    ....    BL       am_hal_ios_access_int_status_get ; 0x11ee
        0x000015c2:    4605        .F      MOV      r5,r0
        0x000015c4:    4628        (F      MOV      r0,r5
        0x000015c6:    f7fffe05    ....    BL       am_hal_ios_access_int_clear ; 0x11d4
        0x000015ca:    f0055080    ...P    AND      r0,r5,#0x10000000
        0x000015ce:    2800        .(      CMP      r0,#0
        0x000015d0:    d06d        m.      BEQ      0x16ae ; am_ioslave_acc_isr + 254
        0x000015d2:    2010        .       MOVS     r0,#0x10
        0x000015d4:    4938        8I      LDR      r1,[pc,#224] ; [0x16b8] = 0x40010090
        0x000015d6:    6008        .`      STR      r0,[r1,#0]
        0x000015d8:    6820         h      LDR      r0,[r4,#0]
        0x000015da:    280a        .(      CMP      r0,#0xa
        0x000015dc:    d265        e.      BCS      0x16aa ; am_ioslave_acc_isr + 250
        0x000015de:    e8dff000    ....    TBB      [pc,r0]
    $d
        0x000015e2:    6362        bc      DCW    25442
        0x000015e4:    1b4f2705    .'O.    DCD    458172165
        0x000015e8:    55646459    YddU    DCD    1432642649
    $t
        0x000015ec:    4833        3H      LDR      r0,[pc,#204] ; [0x16bc] = 0x10001148
        0x000015ee:    f000fbe5    ....    BL       image_start_packet_read ; 0x1dbc
        0x000015f2:    4933        3I      LDR      r1,[pc,#204] ; [0x16c0] = 0x1000004c
        0x000015f4:    7008        .p      STRB     r0,[r1,#0]
        0x000015f6:    4608        .F      MOV      r0,r1
        0x000015f8:    7800        .x      LDRB     r0,[r0,#0]
        0x000015fa:    b130        0.      CBZ      r0,0x160a ; am_ioslave_acc_isr + 90
        0x000015fc:    2002        .       MOVS     r0,#2
        0x000015fe:    6020         `      STR      r0,[r4,#0]
        0x00001600:    2010        .       MOVS     r0,#0x10
        0x00001602:    492d        -I      LDR      r1,[pc,#180] ; [0x16b8] = 0x40010090
        0x00001604:    3108        .1      ADDS     r1,r1,#8
        0x00001606:    6008        .`      STR      r0,[r1,#0]
        0x00001608:    e005        ..      B        0x1616 ; am_ioslave_acc_isr + 102
        0x0000160a:    2005        .       MOVS     r0,#5
        0x0000160c:    6020         `      STR      r0,[r4,#0]
        0x0000160e:    2010        .       MOVS     r0,#0x10
        0x00001610:    4929        )I      LDR      r1,[pc,#164] ; [0x16b8] = 0x40010090
        0x00001612:    3108        .1      ADDS     r1,r1,#8
        0x00001614:    6008        .`      STR      r0,[r1,#0]
        0x00001616:    e049        I.      B        0x16ac ; am_ioslave_acc_isr + 252
        0x00001618:    4928        (I      LDR      r1,[pc,#160] ; [0x16bc] = 0x10001148
        0x0000161a:    6860        `h      LDR      r0,[r4,#4]
        0x0000161c:    60c8        .`      STR      r0,[r1,#0xc]
        0x0000161e:    68a0        .h      LDR      r0,[r4,#8]
        0x00001620:    6108        .a      STR      r0,[r1,#0x10]
        0x00001622:    2002        .       MOVS     r0,#2
        0x00001624:    6020         `      STR      r0,[r4,#0]
        0x00001626:    2010        .       MOVS     r0,#0x10
        0x00001628:    4923        #I      LDR      r1,[pc,#140] ; [0x16b8] = 0x40010090
        0x0000162a:    3108        .1      ADDS     r1,r1,#8
        0x0000162c:    6008        .`      STR      r0,[r1,#0]
        0x0000162e:    e03d        =.      B        0x16ac ; am_ioslave_acc_isr + 252
        0x00001630:    4823        #H      LDR      r0,[pc,#140] ; [0x16c0] = 0x1000004c
        0x00001632:    7800        .x      LDRB     r0,[r0,#0]
        0x00001634:    b930        0.      CBNZ     r0,0x1644 ; am_ioslave_acc_isr + 148
        0x00001636:    2005        .       MOVS     r0,#5
        0x00001638:    6020         `      STR      r0,[r4,#0]
        0x0000163a:    2010        .       MOVS     r0,#0x10
        0x0000163c:    491e        .I      LDR      r1,[pc,#120] ; [0x16b8] = 0x40010090
        0x0000163e:    3108        .1      ADDS     r1,r1,#8
        0x00001640:    6008        .`      STR      r0,[r1,#0]
        0x00001642:    e033        3.      B        0x16ac ; am_ioslave_acc_isr + 252
        0x00001644:    f000f9f2    ....    BL       image_data_packet_read ; 0x1a2c
        0x00001648:    481c        .H      LDR      r0,[pc,#112] ; [0x16bc] = 0x10001148
        0x0000164a:    6840        @h      LDR      r0,[r0,#4]
        0x0000164c:    491d        .I      LDR      r1,[pc,#116] ; [0x16c4] = 0x10000048
        0x0000164e:    6809        .h      LDR      r1,[r1,#0]
        0x00001650:    4288        .B      CMP      r0,r1
        0x00001652:    d10e        ..      BNE      0x1672 ; am_ioslave_acc_isr + 194
        0x00001654:    4819        .H      LDR      r0,[pc,#100] ; [0x16bc] = 0x10001148
        0x00001656:    6880        .h      LDR      r0,[r0,#8]
        0x00001658:    491b        .I      LDR      r1,[pc,#108] ; [0x16c8] = 0x10000050
        0x0000165a:    6809        .h      LDR      r1,[r1,#0]
        0x0000165c:    4288        .B      CMP      r0,r1
        0x0000165e:    d101        ..      BNE      0x1664 ; am_ioslave_acc_isr + 180
        0x00001660:    2003        .       MOVS     r0,#3
        0x00001662:    e000        ..      B        0x1666 ; am_ioslave_acc_isr + 182
        0x00001664:    2004        .       MOVS     r0,#4
        0x00001666:    6020         `      STR      r0,[r4,#0]
        0x00001668:    2010        .       MOVS     r0,#0x10
        0x0000166a:    4913        .I      LDR      r1,[pc,#76] ; [0x16b8] = 0x40010090
        0x0000166c:    3108        .1      ADDS     r1,r1,#8
        0x0000166e:    6008        .`      STR      r0,[r1,#0]
        0x00001670:    e005        ..      B        0x167e ; am_ioslave_acc_isr + 206
        0x00001672:    2002        .       MOVS     r0,#2
        0x00001674:    6020         `      STR      r0,[r4,#0]
        0x00001676:    2010        .       MOVS     r0,#0x10
        0x00001678:    490f        .I      LDR      r1,[pc,#60] ; [0x16b8] = 0x40010090
        0x0000167a:    3108        .1      ADDS     r1,r1,#8
        0x0000167c:    6008        .`      STR      r0,[r1,#0]
        0x0000167e:    e015        ..      B        0x16ac ; am_ioslave_acc_isr + 252
        0x00001680:    4812        .H      LDR      r0,[pc,#72] ; [0x16cc] = 0x10000000
        0x00001682:    6801        .h      LDR      r1,[r0,#0]
        0x00001684:    480d        .H      LDR      r0,[pc,#52] ; [0x16bc] = 0x10001148
        0x00001686:    f7fefe97    ....    BL       am_bootloader_flag_page_update ; 0x3b8
        0x0000168a:    bf00        ..      NOP      
        0x0000168c:    f7fffecf    ....    BL       am_hal_reset_poi ; 0x142e
        0x00001690:    bf00        ..      NOP      
        0x00001692:    e7fe        ..      B        0x1692 ; am_ioslave_acc_isr + 226
        0x00001694:    2006        .       MOVS     r0,#6
        0x00001696:    6020         `      STR      r0,[r4,#0]
        0x00001698:    480d        .H      LDR      r0,[pc,#52] ; [0x16d0] = 0x16111901
        0x0000169a:    6060        ``      STR      r0,[r4,#4]
        0x0000169c:    2010        .       MOVS     r0,#0x10
        0x0000169e:    4906        .I      LDR      r1,[pc,#24] ; [0x16b8] = 0x40010090
        0x000016a0:    3108        .1      ADDS     r1,r1,#8
        0x000016a2:    6008        .`      STR      r0,[r1,#0]
        0x000016a4:    e002        ..      B        0x16ac ; am_ioslave_acc_isr + 252
        0x000016a6:    bf00        ..      NOP      
        0x000016a8:    e000        ..      B        0x16ac ; am_ioslave_acc_isr + 252
        0x000016aa:    bf00        ..      NOP      
        0x000016ac:    bf00        ..      NOP      
        0x000016ae:    bd70        p.      POP      {r4-r6,pc}
    $d
        0x000016b0:    10000018    ....    DCD    268435480
        0x000016b4:    00002608    .&..    DCD    9736
        0x000016b8:    40010090    ...@    DCD    1073807504
        0x000016bc:    10001148    H...    DCD    268439880
        0x000016c0:    1000004c    L...    DCD    268435532
        0x000016c4:    10000048    H...    DCD    268435528
        0x000016c8:    10000050    P...    DCD    268435536
        0x000016cc:    10000000    ....    DCD    268435456
        0x000016d0:    16111901    ....    DCD    370219265
    $t
    i.am_ioslave_ios_isr
    am_ioslave_ios_isr
        0x000016d4:    b510        ..      PUSH     {r4,lr}
        0x000016d6:    2000        .       MOVS     r0,#0
        0x000016d8:    f7fffe33    ..3.    BL       am_hal_ios_int_status_get ; 0x1342
        0x000016dc:    4604        .F      MOV      r4,r0
        0x000016de:    4620         F      MOV      r0,r4
        0x000016e0:    f7fffe22    ..".    BL       am_hal_ios_int_clear ; 0x1328
        0x000016e4:    4620         F      MOV      r0,r4
        0x000016e6:    f7fffdd3    ....    BL       am_hal_ios_fifo_service ; 0x1290
        0x000016ea:    bd10        ..      POP      {r4,pc}
    i.am_uart_isr
    am_uart_isr
        0x000016ec:    e92d47f0    -..G    PUSH     {r4-r10,lr}
        0x000016f0:    f04f0800    O...    MOV      r8,#0
        0x000016f4:    2100        .!      MOVS     r1,#0
        0x000016f6:    4608        .F      MOV      r0,r1
        0x000016f8:    f7ffff4c    ..L.    BL       am_hal_uart_int_status_get ; 0x1594
        0x000016fc:    4681        .F      MOV      r9,r0
        0x000016fe:    4649        IF      MOV      r1,r9
        0x00001700:    2000        .       MOVS     r0,#0
        0x00001702:    f7ffff39    ..9.    BL       am_hal_uart_int_clear ; 0x1578
        0x00001706:    4973        sI      LDR      r1,[pc,#460] ; [0x18d4] = 0x4001c000
        0x00001708:    6809        .h      LDR      r1,[r1,#0]
        0x0000170a:    b2ca        ..      UXTB     r2,r1
        0x0000170c:    4972        rI      LDR      r1,[pc,#456] ; [0x18d8] = 0x10000070
        0x0000170e:    7808        .x      LDRB     r0,[r1,#0]
        0x00001710:    1c41        A.      ADDS     r1,r0,#1
        0x00001712:    4b71        qK      LDR      r3,[pc,#452] ; [0x18d8] = 0x10000070
        0x00001714:    7019        .p      STRB     r1,[r3,#0]
        0x00001716:    4971        qI      LDR      r1,[pc,#452] ; [0x18dc] = 0x10001184
        0x00001718:    540a        .T      STRB     r2,[r1,r0]
        0x0000171a:    4618        .F      MOV      r0,r3
        0x0000171c:    7800        .x      LDRB     r0,[r0,#0]
        0x0000171e:    f000007f    ....    AND      r0,r0,#0x7f
        0x00001722:    4619        .F      MOV      r1,r3
        0x00001724:    7008        .p      STRB     r0,[r1,#0]
        0x00001726:    2000        .       MOVS     r0,#0
        0x00001728:    496d        mI      LDR      r1,[pc,#436] ; [0x18e0] = 0x1000006e
        0x0000172a:    7008        .p      STRB     r0,[r1,#0]
        0x0000172c:    486d        mH      LDR      r0,[pc,#436] ; [0x18e4] = 0x1000006f
        0x0000172e:    7800        .x      LDRB     r0,[r0,#0]
        0x00001730:    1c40        @.      ADDS     r0,r0,#1
        0x00001732:    496c        lI      LDR      r1,[pc,#432] ; [0x18e4] = 0x1000006f
        0x00001734:    7008        .p      STRB     r0,[r1,#0]
        0x00001736:    4618        .F      MOV      r0,r3
        0x00001738:    7800        .x      LDRB     r0,[r0,#0]
        0x0000173a:    496b        kI      LDR      r1,[pc,#428] ; [0x18e8] = 0x10000071
        0x0000173c:    7809        .x      LDRB     r1,[r1,#0]
        0x0000173e:    4288        .B      CMP      r0,r1
        0x00001740:    d102        ..      BNE      0x1748 ; am_uart_isr + 92
        0x00001742:    2001        .       MOVS     r0,#1
        0x00001744:    4969        iI      LDR      r1,[pc,#420] ; [0x18ec] = 0x1000006d
        0x00001746:    7008        .p      STRB     r0,[r1,#0]
        0x00001748:    4866        fH      LDR      r0,[pc,#408] ; [0x18e4] = 0x1000006f
        0x0000174a:    7800        .x      LDRB     r0,[r0,#0]
        0x0000174c:    2804        .(      CMP      r0,#4
        0x0000174e:    d120         .      BNE      0x1792 ; am_uart_isr + 166
        0x00001750:    4862        bH      LDR      r0,[pc,#392] ; [0x18dc] = 0x10001184
        0x00001752:    7800        .x      LDRB     r0,[r0,#0]
        0x00001754:    4966        fI      LDR      r1,[pc,#408] ; [0x18f0] = 0x10000078
        0x00001756:    6008        .`      STR      r0,[r1,#0]
        0x00001758:    4608        .F      MOV      r0,r1
        0x0000175a:    6800        .h      LDR      r0,[r0,#0]
        0x0000175c:    1e80        ..      SUBS     r0,r0,#2
        0x0000175e:    2805        .(      CMP      r0,#5
        0x00001760:    d215        ..      BCS      0x178e ; am_uart_isr + 162
        0x00001762:    e8dff000    ....    TBB      [pc,r0]
    $d
        0x00001766:    0b03        ..      DCW    2819
        0x00001768:    0010070c    ....    DCD    1050380
    $t
        0x0000176c:    2010        .       MOVS     r0,#0x10
        0x0000176e:    4961        aI      LDR      r1,[pc,#388] ; [0x18f4] = 0x1000007c
        0x00001770:    7008        .p      STRB     r0,[r1,#0]
        0x00001772:    e00d        ..      B        0x1790 ; am_uart_isr + 164
        0x00001774:    200c        .       MOVS     r0,#0xc
        0x00001776:    495f        _I      LDR      r1,[pc,#380] ; [0x18f4] = 0x1000007c
        0x00001778:    7008        .p      STRB     r0,[r1,#0]
        0x0000177a:    e009        ..      B        0x1790 ; am_uart_isr + 164
        0x0000177c:    e008        ..      B        0x1790 ; am_uart_isr + 164
        0x0000177e:    2004        .       MOVS     r0,#4
        0x00001780:    495c        \I      LDR      r1,[pc,#368] ; [0x18f4] = 0x1000007c
        0x00001782:    7008        .p      STRB     r0,[r1,#0]
        0x00001784:    e004        ..      B        0x1790 ; am_uart_isr + 164
        0x00001786:    2004        .       MOVS     r0,#4
        0x00001788:    495a        ZI      LDR      r1,[pc,#360] ; [0x18f4] = 0x1000007c
        0x0000178a:    7008        .p      STRB     r0,[r1,#0]
        0x0000178c:    e000        ..      B        0x1790 ; am_uart_isr + 164
        0x0000178e:    bf00        ..      NOP      
        0x00001790:    bf00        ..      NOP      
        0x00001792:    4857        WH      LDR      r0,[pc,#348] ; [0x18f0] = 0x10000078
        0x00001794:    6800        .h      LDR      r0,[r0,#0]
        0x00001796:    2803        .(      CMP      r0,#3
        0x00001798:    d10c        ..      BNE      0x17b4 ; am_uart_isr + 200
        0x0000179a:    4852        RH      LDR      r0,[pc,#328] ; [0x18e4] = 0x1000006f
        0x0000179c:    7800        .x      LDRB     r0,[r0,#0]
        0x0000179e:    2808        .(      CMP      r0,#8
        0x000017a0:    d108        ..      BNE      0x17b4 ; am_uart_isr + 200
        0x000017a2:    484e        NH      LDR      r0,[pc,#312] ; [0x18dc] = 0x10001184
        0x000017a4:    7900        .y      LDRB     r0,[r0,#4]
        0x000017a6:    4954        TI      LDR      r1,[pc,#336] ; [0x18f8] = 0x1000007d
        0x000017a8:    7008        .p      STRB     r0,[r1,#0]
        0x000017aa:    4608        .F      MOV      r0,r1
        0x000017ac:    7800        .x      LDRB     r0,[r0,#0]
        0x000017ae:    3008        .0      ADDS     r0,r0,#8
        0x000017b0:    4950        PI      LDR      r1,[pc,#320] ; [0x18f4] = 0x1000007c
        0x000017b2:    7008        .p      STRB     r0,[r1,#0]
        0x000017b4:    484b        KH      LDR      r0,[pc,#300] ; [0x18e4] = 0x1000006f
        0x000017b6:    7800        .x      LDRB     r0,[r0,#0]
        0x000017b8:    494e        NI      LDR      r1,[pc,#312] ; [0x18f4] = 0x1000007c
        0x000017ba:    7809        .x      LDRB     r1,[r1,#0]
        0x000017bc:    4288        .B      CMP      r0,r1
        0x000017be:    d15d        ].      BNE      0x187c ; am_uart_isr + 400
        0x000017c0:    4e46        FN      LDR      r6,[pc,#280] ; [0x18dc] = 0x10001184
        0x000017c2:    4c4e        NL      LDR      r4,[pc,#312] ; [0x18fc] = 0x10001204
        0x000017c4:    6830        0h      LDR      r0,[r6,#0]
        0x000017c6:    2807        .(      CMP      r0,#7
        0x000017c8:    d256        V.      BCS      0x1878 ; am_uart_isr + 396
        0x000017ca:    e8dff000    ....    TBB      [pc,r0]
    $d
        0x000017ce:    5453        ST      DCW    21587
        0x000017d0:    15422004    . B.    DCD    356655108
        0x000017d4:    004b        K.      DCW    75
    $t
        0x000017d6:    484a        JH      LDR      r0,[pc,#296] ; [0x1900] = 0x10001148
        0x000017d8:    f000fb1a    ....    BL       image_start_packet_read ; 0x1e10
        0x000017dc:    4949        II      LDR      r1,[pc,#292] ; [0x1904] = 0x1000004c
        0x000017de:    7008        .p      STRB     r0,[r1,#0]
        0x000017e0:    4608        .F      MOV      r0,r1
        0x000017e2:    7800        .x      LDRB     r0,[r0,#0]
        0x000017e4:    b110        ..      CBZ      r0,0x17ec ; am_uart_isr + 256
        0x000017e6:    2002        .       MOVS     r0,#2
        0x000017e8:    6020         `      STR      r0,[r4,#0]
        0x000017ea:    e001        ..      B        0x17f0 ; am_uart_isr + 260
        0x000017ec:    2005        .       MOVS     r0,#5
        0x000017ee:    6020         `      STR      r0,[r4,#0]
        0x000017f0:    f04f0801    O...    MOV      r8,#1
        0x000017f4:    2504        .%      MOVS     r5,#4
        0x000017f6:    e040        @.      B        0x187a ; am_uart_isr + 398
        0x000017f8:    4941        AI      LDR      r1,[pc,#260] ; [0x1900] = 0x10001148
        0x000017fa:    6870        ph      LDR      r0,[r6,#4]
        0x000017fc:    60c8        .`      STR      r0,[r1,#0xc]
        0x000017fe:    68b0        .h      LDR      r0,[r6,#8]
        0x00001800:    6108        .a      STR      r0,[r1,#0x10]
        0x00001802:    2002        .       MOVS     r0,#2
        0x00001804:    6020         `      STR      r0,[r4,#0]
        0x00001806:    f04f0801    O...    MOV      r8,#1
        0x0000180a:    2504        .%      MOVS     r5,#4
        0x0000180c:    e035        5.      B        0x187a ; am_uart_isr + 398
        0x0000180e:    483d        =H      LDR      r0,[pc,#244] ; [0x1904] = 0x1000004c
        0x00001810:    7800        .x      LDRB     r0,[r0,#0]
        0x00001812:    b910        ..      CBNZ     r0,0x181a ; am_uart_isr + 302
        0x00001814:    2005        .       MOVS     r0,#5
        0x00001816:    6020         `      STR      r0,[r4,#0]
        0x00001818:    e02f        /.      B        0x187a ; am_uart_isr + 398
        0x0000181a:    f000f97b    ..{.    BL       image_data_packet_read ; 0x1b14
        0x0000181e:    4838        8H      LDR      r0,[pc,#224] ; [0x1900] = 0x10001148
        0x00001820:    6840        @h      LDR      r0,[r0,#4]
        0x00001822:    4939        9I      LDR      r1,[pc,#228] ; [0x1908] = 0x10000048
        0x00001824:    6809        .h      LDR      r1,[r1,#0]
        0x00001826:    4288        .B      CMP      r0,r1
        0x00001828:    d10d        ..      BNE      0x1846 ; am_uart_isr + 346
        0x0000182a:    4835        5H      LDR      r0,[pc,#212] ; [0x1900] = 0x10001148
        0x0000182c:    6880        .h      LDR      r0,[r0,#8]
        0x0000182e:    4937        7I      LDR      r1,[pc,#220] ; [0x190c] = 0x10000050
        0x00001830:    6809        .h      LDR      r1,[r1,#0]
        0x00001832:    4288        .B      CMP      r0,r1
        0x00001834:    d101        ..      BNE      0x183a ; am_uart_isr + 334
        0x00001836:    2003        .       MOVS     r0,#3
        0x00001838:    e000        ..      B        0x183c ; am_uart_isr + 336
        0x0000183a:    2004        .       MOVS     r0,#4
        0x0000183c:    6020         `      STR      r0,[r4,#0]
        0x0000183e:    2010        .       MOVS     r0,#0x10
        0x00001840:    4933        3I      LDR      r1,[pc,#204] ; [0x1910] = 0x40010098
        0x00001842:    6008        .`      STR      r0,[r1,#0]
        0x00001844:    e001        ..      B        0x184a ; am_uart_isr + 350
        0x00001846:    2002        .       MOVS     r0,#2
        0x00001848:    6020         `      STR      r0,[r4,#0]
        0x0000184a:    f04f0801    O...    MOV      r8,#1
        0x0000184e:    2504        .%      MOVS     r5,#4
        0x00001850:    e013        ..      B        0x187a ; am_uart_isr + 398
        0x00001852:    4830        0H      LDR      r0,[pc,#192] ; [0x1914] = 0x10000000
        0x00001854:    6801        .h      LDR      r1,[r0,#0]
        0x00001856:    482a        *H      LDR      r0,[pc,#168] ; [0x1900] = 0x10001148
        0x00001858:    f7fefdae    ....    BL       am_bootloader_flag_page_update ; 0x3b8
        0x0000185c:    f7fffde7    ....    BL       am_hal_reset_poi ; 0x142e
        0x00001860:    bf00        ..      NOP      
        0x00001862:    e7fe        ..      B        0x1862 ; am_uart_isr + 374
        0x00001864:    2006        .       MOVS     r0,#6
        0x00001866:    6020         `      STR      r0,[r4,#0]
        0x00001868:    482b        +H      LDR      r0,[pc,#172] ; [0x1918] = 0x16111901
        0x0000186a:    6060        ``      STR      r0,[r4,#4]
        0x0000186c:    f04f0801    O...    MOV      r8,#1
        0x00001870:    2508        .%      MOVS     r5,#8
        0x00001872:    e002        ..      B        0x187a ; am_uart_isr + 398
        0x00001874:    bf00        ..      NOP      
        0x00001876:    e000        ..      B        0x187a ; am_uart_isr + 398
        0x00001878:    bf00        ..      NOP      
        0x0000187a:    bf00        ..      NOP      
        0x0000187c:    f1b80f00    ....    CMP      r8,#0
        0x00001880:    d026        &.      BEQ      0x18d0 ; am_uart_isr + 484
        0x00001882:    2000        .       MOVS     r0,#0
        0x00001884:    4925        %I      LDR      r1,[pc,#148] ; [0x191c] = 0x10000077
        0x00001886:    7008        .p      STRB     r0,[r1,#0]
        0x00001888:    2700        .'      MOVS     r7,#0
        0x0000188a:    e00b        ..      B        0x18a4 ; am_uart_isr + 440
        0x0000188c:    4923        #I      LDR      r1,[pc,#140] ; [0x191c] = 0x10000077
        0x0000188e:    780a        .x      LDRB     r2,[r1,#0]
        0x00001890:    7809        .x      LDRB     r1,[r1,#0]
        0x00001892:    1c49        I.      ADDS     r1,r1,#1
        0x00001894:    4b21        !K      LDR      r3,[pc,#132] ; [0x191c] = 0x10000077
        0x00001896:    7019        .p      STRB     r1,[r3,#0]
        0x00001898:    4918        .I      LDR      r1,[pc,#96] ; [0x18fc] = 0x10001204
        0x0000189a:    5c88        .\      LDRB     r0,[r1,r2]
        0x0000189c:    f000fb68    ..h.    BL       ser_out ; 0x1f70
        0x000018a0:    1c78        x.      ADDS     r0,r7,#1
        0x000018a2:    b2c7        ..      UXTB     r7,r0
        0x000018a4:    42af        .B      CMP      r7,r5
        0x000018a6:    dbf1        ..      BLT      0x188c ; am_uart_isr + 416
        0x000018a8:    2000        .       MOVS     r0,#0
        0x000018aa:    4911        .I      LDR      r1,[pc,#68] ; [0x18f0] = 0x10000078
        0x000018ac:    6008        .`      STR      r0,[r1,#0]
        0x000018ae:    490d        .I      LDR      r1,[pc,#52] ; [0x18e4] = 0x1000006f
        0x000018b0:    7008        .p      STRB     r0,[r1,#0]
        0x000018b2:    490d        .I      LDR      r1,[pc,#52] ; [0x18e8] = 0x10000071
        0x000018b4:    7008        .p      STRB     r0,[r1,#0]
        0x000018b6:    4908        .I      LDR      r1,[pc,#32] ; [0x18d8] = 0x10000070
        0x000018b8:    7008        .p      STRB     r0,[r1,#0]
        0x000018ba:    490c        .I      LDR      r1,[pc,#48] ; [0x18ec] = 0x1000006d
        0x000018bc:    7008        .p      STRB     r0,[r1,#0]
        0x000018be:    2001        .       MOVS     r0,#1
        0x000018c0:    4907        .I      LDR      r1,[pc,#28] ; [0x18e0] = 0x1000006e
        0x000018c2:    7008        .p      STRB     r0,[r1,#0]
        0x000018c4:    f04f0800    O...    MOV      r8,#0
        0x000018c8:    2500        .%      MOVS     r5,#0
        0x000018ca:    20ff        .       MOVS     r0,#0xff
        0x000018cc:    4909        .I      LDR      r1,[pc,#36] ; [0x18f4] = 0x1000007c
        0x000018ce:    7008        .p      STRB     r0,[r1,#0]
        0x000018d0:    e8bd87f0    ....    POP      {r4-r10,pc}
    $d
        0x000018d4:    4001c000    ...@    DCD    1073856512
        0x000018d8:    10000070    p...    DCD    268435568
        0x000018dc:    10001184    ....    DCD    268439940
        0x000018e0:    1000006e    n...    DCD    268435566
        0x000018e4:    1000006f    o...    DCD    268435567
        0x000018e8:    10000071    q...    DCD    268435569
        0x000018ec:    1000006d    m...    DCD    268435565
        0x000018f0:    10000078    x...    DCD    268435576
        0x000018f4:    1000007c    |...    DCD    268435580
        0x000018f8:    1000007d    }...    DCD    268435581
        0x000018fc:    10001204    ....    DCD    268440068
        0x00001900:    10001148    H...    DCD    268439880
        0x00001904:    1000004c    L...    DCD    268435532
        0x00001908:    10000048    H...    DCD    268435528
        0x0000190c:    10000050    P...    DCD    268435536
        0x00001910:    40010098    ...@    DCD    1073807512
        0x00001914:    10000000    ....    DCD    268435456
        0x00001918:    16111901    ....    DCD    370219265
        0x0000191c:    10000077    w...    DCD    268435575
    $t
    i.am_util_delay_ms
    am_util_delay_ms
        0x00001920:    b570        p.      PUSH     {r4-r6,lr}
        0x00001922:    4604        .F      MOV      r4,r0
        0x00001924:    f7fefffc    ....    BL       am_hal_clkgen_sysclk_get ; 0x920
        0x00001928:    f64031b8    @..1    MOV      r1,#0xbb8
        0x0000192c:    fbb0f0f1    ....    UDIV     r0,r0,r1
        0x00001930:    fb00f504    ....    MUL      r5,r0,r4
        0x00001934:    4628        (F      MOV      r0,r5
        0x00001936:    f7fefc03    ....    BL       am_util_delay_cycles ; 0x140
        0x0000193a:    bd70        p.      POP      {r4-r6,pc}
    i.cleanup_ios_interface
    cleanup_ios_interface
        0x0000193c:    bf00        ..      NOP      
        0x0000193e:    2073        s       MOVS     r0,#0x73
        0x00001940:    492c        ,I      LDR      r1,[pc,#176] ; [0x19f4] = 0x40010000
        0x00001942:    6608        .f      STR      r0,[r1,#0x60]
        0x00001944:    4608        .F      MOV      r0,r1
        0x00001946:    6c00        .l      LDR      r0,[r0,#0x40]
        0x00001948:    f0200007     ...    BIC      r0,r0,#7
        0x0000194c:    6408        .d      STR      r0,[r1,#0x40]
        0x0000194e:    4608        .F      MOV      r0,r1
        0x00001950:    6800        .h      LDR      r0,[r0,#0]
        0x00001952:    f02000ff     ...    BIC      r0,r0,#0xff
        0x00001956:    f0400018    @...    ORR      r0,r0,#0x18
        0x0000195a:    6008        .`      STR      r0,[r1,#0]
        0x0000195c:    2000        .       MOVS     r0,#0
        0x0000195e:    6608        .f      STR      r0,[r1,#0x60]
        0x00001960:    bf00        ..      NOP      
        0x00001962:    bf00        ..      NOP      
        0x00001964:    2073        s       MOVS     r0,#0x73
        0x00001966:    6608        .f      STR      r0,[r1,#0x60]
        0x00001968:    4608        .F      MOV      r0,r1
        0x0000196a:    6c00        .l      LDR      r0,[r0,#0x40]
        0x0000196c:    f0200070     .p.    BIC      r0,r0,#0x70
        0x00001970:    6408        .d      STR      r0,[r1,#0x40]
        0x00001972:    4608        .F      MOV      r0,r1
        0x00001974:    6800        .h      LDR      r0,[r0,#0]
        0x00001976:    f420407f     ..@    BIC      r0,r0,#0xff00
        0x0000197a:    f44050c0    @..P    ORR      r0,r0,#0x1800
        0x0000197e:    6008        .`      STR      r0,[r1,#0]
        0x00001980:    2000        .       MOVS     r0,#0
        0x00001982:    6608        .f      STR      r0,[r1,#0x60]
        0x00001984:    bf00        ..      NOP      
        0x00001986:    bf00        ..      NOP      
        0x00001988:    2073        s       MOVS     r0,#0x73
        0x0000198a:    6608        .f      STR      r0,[r1,#0x60]
        0x0000198c:    4608        .F      MOV      r0,r1
        0x0000198e:    6c00        .l      LDR      r0,[r0,#0x40]
        0x00001990:    f42060e0     ..`    BIC      r0,r0,#0x700
        0x00001994:    6408        .d      STR      r0,[r1,#0x40]
        0x00001996:    4608        .F      MOV      r0,r1
        0x00001998:    6800        .h      LDR      r0,[r0,#0]
        0x0000199a:    f420007f     ...    BIC      r0,r0,#0xff0000
        0x0000199e:    f44010c0    @...    ORR      r0,r0,#0x180000
        0x000019a2:    6008        .`      STR      r0,[r1,#0]
        0x000019a4:    2000        .       MOVS     r0,#0
        0x000019a6:    6608        .f      STR      r0,[r1,#0x60]
        0x000019a8:    bf00        ..      NOP      
        0x000019aa:    bf00        ..      NOP      
        0x000019ac:    2073        s       MOVS     r0,#0x73
        0x000019ae:    6608        .f      STR      r0,[r1,#0x60]
        0x000019b0:    4608        .F      MOV      r0,r1
        0x000019b2:    6c00        .l      LDR      r0,[r0,#0x40]
        0x000019b4:    f42040e0     ..@    BIC      r0,r0,#0x7000
        0x000019b8:    6408        .d      STR      r0,[r1,#0x40]
        0x000019ba:    4608        .F      MOV      r0,r1
        0x000019bc:    6800        .h      LDR      r0,[r0,#0]
        0x000019be:    f020407f     ..@    BIC      r0,r0,#0xff000000
        0x000019c2:    f04050c0    @..P    ORR      r0,r0,#0x18000000
        0x000019c6:    6008        .`      STR      r0,[r1,#0]
        0x000019c8:    2000        .       MOVS     r0,#0
        0x000019ca:    6608        .f      STR      r0,[r1,#0x60]
        0x000019cc:    bf00        ..      NOP      
        0x000019ce:    bf00        ..      NOP      
        0x000019d0:    2073        s       MOVS     r0,#0x73
        0x000019d2:    6608        .f      STR      r0,[r1,#0x60]
        0x000019d4:    4608        .F      MOV      r0,r1
        0x000019d6:    6c00        .l      LDR      r0,[r0,#0x40]
        0x000019d8:    f42020e0     ..     BIC      r0,r0,#0x70000
        0x000019dc:    6408        .d      STR      r0,[r1,#0x40]
        0x000019de:    4608        .F      MOV      r0,r1
        0x000019e0:    6840        @h      LDR      r0,[r0,#4]
        0x000019e2:    f02000ff     ...    BIC      r0,r0,#0xff
        0x000019e6:    f0400018    @...    ORR      r0,r0,#0x18
        0x000019ea:    6048        H`      STR      r0,[r1,#4]
        0x000019ec:    2000        .       MOVS     r0,#0
        0x000019ee:    6608        .f      STR      r0,[r1,#0x60]
        0x000019f0:    bf00        ..      NOP      
        0x000019f2:    4770        pG      BX       lr
    $d
        0x000019f4:    40010000    ...@    DCD    1073807360
    $t
    i.configure_spiflash_pins
    configure_spiflash_pins
        0x000019f8:    b510        ..      PUSH     {r4,lr}
        0x000019fa:    2001        .       MOVS     r0,#1
        0x000019fc:    f7fefe92    ....    BL       am_bsp_iom_spi_pins_enable ; 0x724
        0x00001a00:    bf00        ..      NOP      
        0x00001a02:    2073        s       MOVS     r0,#0x73
        0x00001a04:    4908        .I      LDR      r1,[pc,#32] ; [0x1a28] = 0x40010000
        0x00001a06:    6608        .f      STR      r0,[r1,#0x60]
        0x00001a08:    4608        .F      MOV      r0,r1
        0x00001a0a:    6cc0        .l      LDR      r0,[r0,#0x4c]
        0x00001a0c:    f42000e0     ...    BIC      r0,r0,#0x700000
        0x00001a10:    64c8        .d      STR      r0,[r1,#0x4c]
        0x00001a12:    4608        .F      MOV      r0,r1
        0x00001a14:    69c0        .i      LDR      r0,[r0,#0x1c]
        0x00001a16:    f420407f     ..@    BIC      r0,r0,#0xff00
        0x00001a1a:    f4406000    @..`    ORR      r0,r0,#0x800
        0x00001a1e:    61c8        .a      STR      r0,[r1,#0x1c]
        0x00001a20:    2000        .       MOVS     r0,#0
        0x00001a22:    6608        .f      STR      r0,[r1,#0x60]
        0x00001a24:    bf00        ..      NOP      
        0x00001a26:    bd10        ..      POP      {r4,pc}
    $d
        0x00001a28:    40010000    ...@    DCD    1073807360
    $t
    i.image_data_packet_read
    image_data_packet_read
        0x00001a2c:    e92d41f0    -..A    PUSH     {r4-r8,lr}
        0x00001a30:    482f        /H      LDR      r0,[pc,#188] ; [0x1af0] = 0x2608
        0x00001a32:    6800        .h      LDR      r0,[r0,#0]
        0x00001a34:    f8d08004    ....    LDR      r8,[r0,#4]
        0x00001a38:    482d        -H      LDR      r0,[pc,#180] ; [0x1af0] = 0x2608
        0x00001a3a:    6800        .h      LDR      r0,[r0,#0]
        0x00001a3c:    f1000508    ....    ADD      r5,r0,#8
        0x00001a40:    2400        .$      MOVS     r4,#0
        0x00001a42:    e050        P.      B        0x1ae6 ; image_data_packet_read + 186
        0x00001a44:    f8150b01    ....    LDRB     r0,[r5],#1
        0x00001a48:    492a        *I      LDR      r1,[pc,#168] ; [0x1af4] = 0x1000003c
        0x00001a4a:    6809        .h      LDR      r1,[r1,#0]
        0x00001a4c:    4a2a        *J      LDR      r2,[pc,#168] ; [0x1af8] = 0x10000040
        0x00001a4e:    6812        .h      LDR      r2,[r2,#0]
        0x00001a50:    5488        .T      STRB     r0,[r1,r2]
        0x00001a52:    4829        )H      LDR      r0,[pc,#164] ; [0x1af8] = 0x10000040
        0x00001a54:    6800        .h      LDR      r0,[r0,#0]
        0x00001a56:    1c40        @.      ADDS     r0,r0,#1
        0x00001a58:    4927        'I      LDR      r1,[pc,#156] ; [0x1af8] = 0x10000040
        0x00001a5a:    6008        .`      STR      r0,[r1,#0]
        0x00001a5c:    4827        'H      LDR      r0,[pc,#156] ; [0x1afc] = 0x10000048
        0x00001a5e:    6800        .h      LDR      r0,[r0,#0]
        0x00001a60:    1c40        @.      ADDS     r0,r0,#1
        0x00001a62:    4926        &I      LDR      r1,[pc,#152] ; [0x1afc] = 0x10000048
        0x00001a64:    6008        .`      STR      r0,[r1,#0]
        0x00001a66:    4824        $H      LDR      r0,[pc,#144] ; [0x1af8] = 0x10000040
        0x00001a68:    6800        .h      LDR      r0,[r0,#0]
        0x00001a6a:    f5b06f00    ...o    CMP      r0,#0x800
        0x00001a6e:    d004        ..      BEQ      0x1a7a ; image_data_packet_read + 78
        0x00001a70:    4823        #H      LDR      r0,[pc,#140] ; [0x1b00] = 0x10001148
        0x00001a72:    6840        @h      LDR      r0,[r0,#4]
        0x00001a74:    6809        .h      LDR      r1,[r1,#0]
        0x00001a76:    4288        .B      CMP      r0,r1
        0x00001a78:    d134        4.      BNE      0x1ae4 ; image_data_packet_read + 184
        0x00001a7a:    4a22        "J      LDR      r2,[pc,#136] ; [0x1b04] = 0x10000050
        0x00001a7c:    481e        .H      LDR      r0,[pc,#120] ; [0x1af8] = 0x10000040
        0x00001a7e:    6801        .h      LDR      r1,[r0,#0]
        0x00001a80:    481c        .H      LDR      r0,[pc,#112] ; [0x1af4] = 0x1000003c
        0x00001a82:    6800        .h      LDR      r0,[r0,#0]
        0x00001a84:    f7fefe0a    ....    BL       am_bootloader_partial_crc32 ; 0x69c
        0x00001a88:    481c        .H      LDR      r0,[pc,#112] ; [0x1afc] = 0x10000048
        0x00001a8a:    6800        .h      LDR      r0,[r0,#0]
        0x00001a8c:    f5b06f00    ...o    CMP      r0,#0x800
        0x00001a90:    d806        ..      BHI      0x1aa0 ; image_data_packet_read + 116
        0x00001a92:    481d        .H      LDR      r0,[pc,#116] ; [0x1b08] = 0x100008c8
        0x00001a94:    6800        .h      LDR      r0,[r0,#0]
        0x00001a96:    491a        .I      LDR      r1,[pc,#104] ; [0x1b00] = 0x10001148
        0x00001a98:    6148        Ha      STR      r0,[r1,#0x14]
        0x00001a9a:    481b        .H      LDR      r0,[pc,#108] ; [0x1b08] = 0x100008c8
        0x00001a9c:    6840        @h      LDR      r0,[r0,#4]
        0x00001a9e:    6188        .a      STR      r0,[r1,#0x18]
        0x00001aa0:    481a        .H      LDR      r0,[pc,#104] ; [0x1b0c] = 0x10000044
        0x00001aa2:    6800        .h      LDR      r0,[r0,#0]
        0x00001aa4:    f3c026c6    ...&    UBFX     r6,r0,#11,#7
        0x00001aa8:    4818        .H      LDR      r0,[pc,#96] ; [0x1b0c] = 0x10000044
        0x00001aaa:    6800        .h      LDR      r0,[r0,#0]
        0x00001aac:    f3c04780    ...G    UBFX     r7,r0,#18,#1
        0x00001ab0:    4632        2F      MOV      r2,r6
        0x00001ab2:    4639        9F      MOV      r1,r7
        0x00001ab4:    4816        .H      LDR      r0,[pc,#88] ; [0x1b10] = 0x12344321
        0x00001ab6:    f7feff6d    ..m.    BL       am_hal_flash_page_erase ; 0x994
        0x00001aba:    480f        .H      LDR      r0,[pc,#60] ; [0x1af8] = 0x10000040
        0x00001abc:    6800        .h      LDR      r0,[r0,#0]
        0x00001abe:    0883        ..      LSRS     r3,r0,#2
        0x00001ac0:    4812        .H      LDR      r0,[pc,#72] ; [0x1b0c] = 0x10000044
        0x00001ac2:    4911        .I      LDR      r1,[pc,#68] ; [0x1b08] = 0x100008c8
        0x00001ac4:    6802        .h      LDR      r2,[r0,#0]
        0x00001ac6:    4812        .H      LDR      r0,[pc,#72] ; [0x1b10] = 0x12344321
        0x00001ac8:    f7feff6a    ..j.    BL       am_hal_flash_program_main ; 0x9a0
        0x00001acc:    480a        .H      LDR      r0,[pc,#40] ; [0x1af8] = 0x10000040
        0x00001ace:    6800        .h      LDR      r0,[r0,#0]
        0x00001ad0:    0880        ..      LSRS     r0,r0,#2
        0x00001ad2:    490e        .I      LDR      r1,[pc,#56] ; [0x1b0c] = 0x10000044
        0x00001ad4:    6809        .h      LDR      r1,[r1,#0]
        0x00001ad6:    eb010080    ....    ADD      r0,r1,r0,LSL #2
        0x00001ada:    490c        .I      LDR      r1,[pc,#48] ; [0x1b0c] = 0x10000044
        0x00001adc:    6008        .`      STR      r0,[r1,#0]
        0x00001ade:    2000        .       MOVS     r0,#0
        0x00001ae0:    4905        .I      LDR      r1,[pc,#20] ; [0x1af8] = 0x10000040
        0x00001ae2:    6008        .`      STR      r0,[r1,#0]
        0x00001ae4:    1c64        d.      ADDS     r4,r4,#1
        0x00001ae6:    4544        DE      CMP      r4,r8
        0x00001ae8:    d3ac        ..      BCC      0x1a44 ; image_data_packet_read + 24
        0x00001aea:    e8bd81f0    ....    POP      {r4-r8,pc}
    $d
        0x00001aee:    0000        ..      DCW    0
        0x00001af0:    00002608    .&..    DCD    9736
        0x00001af4:    1000003c    <...    DCD    268435516
        0x00001af8:    10000040    @...    DCD    268435520
        0x00001afc:    10000048    H...    DCD    268435528
        0x00001b00:    10001148    H...    DCD    268439880
        0x00001b04:    10000050    P...    DCD    268435536
        0x00001b08:    100008c8    ....    DCD    268437704
        0x00001b0c:    10000044    D...    DCD    268435524
        0x00001b10:    12344321    !C4.    DCD    305414945
    $t
    i.image_data_packet_read
    image_data_packet_read
        0x00001b14:    e92d47f0    -..G    PUSH     {r4-r10,lr}
        0x00001b18:    4834        4H      LDR      r0,[pc,#208] ; [0x1bec] = 0x10001184
        0x00001b1a:    6846        Fh      LDR      r6,[r0,#4]
        0x00001b1c:    f1000408    ....    ADD      r4,r0,#8
        0x00001b20:    4a33        3J      LDR      r2,[pc,#204] ; [0x1bf0] = 0x10000050
        0x00001b22:    4631        1F      MOV      r1,r6
        0x00001b24:    4620         F      MOV      r0,r4
        0x00001b26:    f7fefdb9    ....    BL       am_bootloader_partial_crc32 ; 0x69c
        0x00001b2a:    2500        .%      MOVS     r5,#0
        0x00001b2c:    e05a        Z.      B        0x1be4 ; image_data_packet_read + 208
        0x00001b2e:    f8140b01    ....    LDRB     r0,[r4],#1
        0x00001b32:    4930        0I      LDR      r1,[pc,#192] ; [0x1bf4] = 0x1000003c
        0x00001b34:    6809        .h      LDR      r1,[r1,#0]
        0x00001b36:    4a30        0J      LDR      r2,[pc,#192] ; [0x1bf8] = 0x10000040
        0x00001b38:    6812        .h      LDR      r2,[r2,#0]
        0x00001b3a:    5488        .T      STRB     r0,[r1,r2]
        0x00001b3c:    482e        .H      LDR      r0,[pc,#184] ; [0x1bf8] = 0x10000040
        0x00001b3e:    6800        .h      LDR      r0,[r0,#0]
        0x00001b40:    1c40        @.      ADDS     r0,r0,#1
        0x00001b42:    492d        -I      LDR      r1,[pc,#180] ; [0x1bf8] = 0x10000040
        0x00001b44:    6008        .`      STR      r0,[r1,#0]
        0x00001b46:    482d        -H      LDR      r0,[pc,#180] ; [0x1bfc] = 0x10000048
        0x00001b48:    6800        .h      LDR      r0,[r0,#0]
        0x00001b4a:    1c40        @.      ADDS     r0,r0,#1
        0x00001b4c:    492b        +I      LDR      r1,[pc,#172] ; [0x1bfc] = 0x10000048
        0x00001b4e:    6008        .`      STR      r0,[r1,#0]
        0x00001b50:    4829        )H      LDR      r0,[pc,#164] ; [0x1bf8] = 0x10000040
        0x00001b52:    6800        .h      LDR      r0,[r0,#0]
        0x00001b54:    f5b06f00    ...o    CMP      r0,#0x800
        0x00001b58:    d004        ..      BEQ      0x1b64 ; image_data_packet_read + 80
        0x00001b5a:    4829        )H      LDR      r0,[pc,#164] ; [0x1c00] = 0x10001148
        0x00001b5c:    6840        @h      LDR      r0,[r0,#4]
        0x00001b5e:    6809        .h      LDR      r1,[r1,#0]
        0x00001b60:    4288        .B      CMP      r0,r1
        0x00001b62:    d13e        >.      BNE      0x1be2 ; image_data_packet_read + 206
        0x00001b64:    4825        %H      LDR      r0,[pc,#148] ; [0x1bfc] = 0x10000048
        0x00001b66:    6800        .h      LDR      r0,[r0,#0]
        0x00001b68:    f5b06f00    ...o    CMP      r0,#0x800
        0x00001b6c:    d806        ..      BHI      0x1b7c ; image_data_packet_read + 104
        0x00001b6e:    4825        %H      LDR      r0,[pc,#148] ; [0x1c04] = 0x100008c8
        0x00001b70:    6800        .h      LDR      r0,[r0,#0]
        0x00001b72:    4923        #I      LDR      r1,[pc,#140] ; [0x1c00] = 0x10001148
        0x00001b74:    6148        Ha      STR      r0,[r1,#0x14]
        0x00001b76:    4823        #H      LDR      r0,[pc,#140] ; [0x1c04] = 0x100008c8
        0x00001b78:    6840        @h      LDR      r0,[r0,#4]
        0x00001b7a:    6188        .a      STR      r0,[r1,#0x18]
        0x00001b7c:    4822        "H      LDR      r0,[pc,#136] ; [0x1c08] = 0x10000044
        0x00001b7e:    6800        .h      LDR      r0,[r0,#0]
        0x00001b80:    f3c027c6    ...'    UBFX     r7,r0,#11,#7
        0x00001b84:    4820         H      LDR      r0,[pc,#128] ; [0x1c08] = 0x10000044
        0x00001b86:    6800        .h      LDR      r0,[r0,#0]
        0x00001b88:    f3c04880    ...H    UBFX     r8,r0,#18,#1
        0x00001b8c:    481e        .H      LDR      r0,[pc,#120] ; [0x1c08] = 0x10000044
        0x00001b8e:    8800        ..      LDRH     r0,[r0,#0]
        0x00001b90:    f3c0000a    ....    UBFX     r0,r0,#0,#11
        0x00001b94:    b920         .      CBNZ     r0,0x1ba0 ; image_data_packet_read + 140
        0x00001b96:    463a        :F      MOV      r2,r7
        0x00001b98:    4641        AF      MOV      r1,r8
        0x00001b9a:    481c        .H      LDR      r0,[pc,#112] ; [0x1c0c] = 0x12344321
        0x00001b9c:    f7fefefa    ....    BL       am_hal_flash_page_erase ; 0x994
        0x00001ba0:    4815        .H      LDR      r0,[pc,#84] ; [0x1bf8] = 0x10000040
        0x00001ba2:    6800        .h      LDR      r0,[r0,#0]
        0x00001ba4:    ea4f0990    O...    LSR      r9,r0,#2
        0x00001ba8:    464b        KF      MOV      r3,r9
        0x00001baa:    4817        .H      LDR      r0,[pc,#92] ; [0x1c08] = 0x10000044
        0x00001bac:    4915        .I      LDR      r1,[pc,#84] ; [0x1c04] = 0x100008c8
        0x00001bae:    6802        .h      LDR      r2,[r0,#0]
        0x00001bb0:    4816        .H      LDR      r0,[pc,#88] ; [0x1c0c] = 0x12344321
        0x00001bb2:    f7fefef5    ....    BL       am_hal_flash_program_main ; 0x9a0
        0x00001bb6:    4810        .H      LDR      r0,[pc,#64] ; [0x1bf8] = 0x10000040
        0x00001bb8:    6800        .h      LDR      r0,[r0,#0]
        0x00001bba:    0880        ..      LSRS     r0,r0,#2
        0x00001bbc:    4912        .I      LDR      r1,[pc,#72] ; [0x1c08] = 0x10000044
        0x00001bbe:    6809        .h      LDR      r1,[r1,#0]
        0x00001bc0:    eb010080    ....    ADD      r0,r1,r0,LSL #2
        0x00001bc4:    4910        .I      LDR      r1,[pc,#64] ; [0x1c08] = 0x10000044
        0x00001bc6:    6008        .`      STR      r0,[r1,#0]
        0x00001bc8:    2000        .       MOVS     r0,#0
        0x00001bca:    490b        .I      LDR      r1,[pc,#44] ; [0x1bf8] = 0x10000040
        0x00001bcc:    6008        .`      STR      r0,[r1,#0]
        0x00001bce:    bf00        ..      NOP      
        0x00001bd0:    e004        ..      B        0x1bdc ; image_data_packet_read + 200
        0x00001bd2:    21aa        .!      MOVS     r1,#0xaa
        0x00001bd4:    4a07        .J      LDR      r2,[pc,#28] ; [0x1bf4] = 0x1000003c
        0x00001bd6:    6812        .h      LDR      r2,[r2,#0]
        0x00001bd8:    5411        .T      STRB     r1,[r2,r0]
        0x00001bda:    1c40        @.      ADDS     r0,r0,#1
        0x00001bdc:    f5b06f00    ...o    CMP      r0,#0x800
        0x00001be0:    d3f7        ..      BCC      0x1bd2 ; image_data_packet_read + 190
        0x00001be2:    1c6d        m.      ADDS     r5,r5,#1
        0x00001be4:    42b5        .B      CMP      r5,r6
        0x00001be6:    d3a2        ..      BCC      0x1b2e ; image_data_packet_read + 26
        0x00001be8:    e8bd87f0    ....    POP      {r4-r10,pc}
    $d
        0x00001bec:    10001184    ....    DCD    268439940
        0x00001bf0:    10000050    P...    DCD    268435536
        0x00001bf4:    1000003c    <...    DCD    268435516
        0x00001bf8:    10000040    @...    DCD    268435520
        0x00001bfc:    10000048    H...    DCD    268435528
        0x00001c00:    10001148    H...    DCD    268439880
        0x00001c04:    100008c8    ....    DCD    268437704
        0x00001c08:    10000044    D...    DCD    268435524
        0x00001c0c:    12344321    !C4.    DCD    305414945
    $t
    i.image_load_from_external_flash
    image_load_from_external_flash
        0x00001c10:    e92d5ff0    -.._    PUSH     {r4-r12,lr}
        0x00001c14:    4605        .F      MOV      r5,r0
        0x00001c16:    4688        .F      MOV      r8,r1
        0x00001c18:    4616        .F      MOV      r6,r2
        0x00001c1a:    2001        .       MOVS     r0,#1
        0x00001c1c:    f7fefd82    ....    BL       am_bsp_iom_spi_pins_enable ; 0x724
        0x00001c20:    2001        .       MOVS     r0,#1
        0x00001c22:    f7feff7d    ..}.    BL       am_hal_iom_enable ; 0xb20
        0x00001c26:    2700        .'      MOVS     r7,#0
        0x00001c28:    e028        (.      B        0x1c7c ; image_load_from_external_flash + 108
        0x00001c2a:    eb0821c7    ...!    ADD      r1,r8,r7,LSL #11
        0x00001c2e:    f44f6200    O..b    MOV      r2,#0x800
        0x00001c32:    482d        -H      LDR      r0,[pc,#180] ; [0x1ce8] = 0x100000c8
        0x00001c34:    f7fefdbe    ....    BL       am_devices_spiflash_read ; 0x7b4
        0x00001c38:    02f8        ..      LSLS     r0,r7,#11
        0x00001c3a:    0880        ..      LSRS     r0,r0,#2
        0x00001c3c:    eb050080    ....    ADD      r0,r5,r0,LSL #2
        0x00001c40:    f3c029c6    ...)    UBFX     r9,r0,#11,#7
        0x00001c44:    02f8        ..      LSLS     r0,r7,#11
        0x00001c46:    0880        ..      LSRS     r0,r0,#2
        0x00001c48:    eb050080    ....    ADD      r0,r5,r0,LSL #2
        0x00001c4c:    f3c04a80    ...J    UBFX     r10,r0,#18,#1
        0x00001c50:    f7fefa88    ....    BL       am_hal_interrupt_master_disable ; 0x164
        0x00001c54:    4683        .F      MOV      r11,r0
        0x00001c56:    464a        JF      MOV      r2,r9
        0x00001c58:    4651        QF      MOV      r1,r10
        0x00001c5a:    4824        $H      LDR      r0,[pc,#144] ; [0x1cec] = 0x12344321
        0x00001c5c:    f7fefe9a    ....    BL       am_hal_flash_page_erase ; 0x994
        0x00001c60:    02f8        ..      LSLS     r0,r7,#11
        0x00001c62:    0880        ..      LSRS     r0,r0,#2
        0x00001c64:    eb050280    ....    ADD      r2,r5,r0,LSL #2
        0x00001c68:    f44f7300    O..s    MOV      r3,#0x200
        0x00001c6c:    491e        .I      LDR      r1,[pc,#120] ; [0x1ce8] = 0x100000c8
        0x00001c6e:    481f        .H      LDR      r0,[pc,#124] ; [0x1cec] = 0x12344321
        0x00001c70:    f7fefe96    ....    BL       am_hal_flash_program_main ; 0x9a0
        0x00001c74:    4658        XF      MOV      r0,r11
        0x00001c76:    f7fefa79    ..y.    BL       am_hal_interrupt_master_set ; 0x16c
        0x00001c7a:    1c7f        ..      ADDS     r7,r7,#1
        0x00001c7c:    ebb72fd6    .../    CMP      r7,r6,LSR #11
        0x00001c80:    d3d3        ..      BCC      0x1c2a ; image_load_from_external_flash + 26
        0x00001c82:    f3c6040a    ....    UBFX     r4,r6,#0,#11
        0x00001c86:    b334        4.      CBZ      r4,0x1cd6 ; image_load_from_external_flash + 198
        0x00001c88:    1b30        0.      SUBS     r0,r6,r4
        0x00001c8a:    eb000108    ....    ADD      r1,r0,r8
        0x00001c8e:    4622        "F      MOV      r2,r4
        0x00001c90:    4815        .H      LDR      r0,[pc,#84] ; [0x1ce8] = 0x100000c8
        0x00001c92:    f7fefd8f    ....    BL       am_devices_spiflash_read ; 0x7b4
        0x00001c96:    1b30        0.      SUBS     r0,r6,r4
        0x00001c98:    0880        ..      LSRS     r0,r0,#2
        0x00001c9a:    eb050080    ....    ADD      r0,r5,r0,LSL #2
        0x00001c9e:    f3c029c6    ...)    UBFX     r9,r0,#11,#7
        0x00001ca2:    1b30        0.      SUBS     r0,r6,r4
        0x00001ca4:    0880        ..      LSRS     r0,r0,#2
        0x00001ca6:    eb050080    ....    ADD      r0,r5,r0,LSL #2
        0x00001caa:    f3c04a80    ...J    UBFX     r10,r0,#18,#1
        0x00001cae:    f7fefa59    ..Y.    BL       am_hal_interrupt_master_disable ; 0x164
        0x00001cb2:    4683        .F      MOV      r11,r0
        0x00001cb4:    464a        JF      MOV      r2,r9
        0x00001cb6:    4651        QF      MOV      r1,r10
        0x00001cb8:    480c        .H      LDR      r0,[pc,#48] ; [0x1cec] = 0x12344321
        0x00001cba:    f7fefe6b    ..k.    BL       am_hal_flash_page_erase ; 0x994
        0x00001cbe:    08a3        ..      LSRS     r3,r4,#2
        0x00001cc0:    1b30        0.      SUBS     r0,r6,r4
        0x00001cc2:    0880        ..      LSRS     r0,r0,#2
        0x00001cc4:    eb050280    ....    ADD      r2,r5,r0,LSL #2
        0x00001cc8:    4907        .I      LDR      r1,[pc,#28] ; [0x1ce8] = 0x100000c8
        0x00001cca:    4808        .H      LDR      r0,[pc,#32] ; [0x1cec] = 0x12344321
        0x00001ccc:    f7fefe68    ..h.    BL       am_hal_flash_program_main ; 0x9a0
        0x00001cd0:    4658        XF      MOV      r0,r11
        0x00001cd2:    f7fefa4b    ..K.    BL       am_hal_interrupt_master_set ; 0x16c
        0x00001cd6:    2001        .       MOVS     r0,#1
        0x00001cd8:    f7fefcf6    ....    BL       am_bsp_iom_spi_pins_disable ; 0x6c8
        0x00001cdc:    2001        .       MOVS     r0,#1
        0x00001cde:    f7fefedf    ....    BL       am_hal_iom_disable ; 0xaa0
        0x00001ce2:    e8bd9ff0    ....    POP      {r4-r12,pc}
    $d
        0x00001ce6:    0000        ..      DCW    0
        0x00001ce8:    100000c8    ....    DCD    268435656
        0x00001cec:    12344321    !C4.    DCD    305414945
    $t
    i.image_load_from_internal_flash
    image_load_from_internal_flash
        0x00001cf0:    e92d5ff0    -.._    PUSH     {r4-r12,lr}
        0x00001cf4:    4605        .F      MOV      r5,r0
        0x00001cf6:    4688        .F      MOV      r8,r1
        0x00001cf8:    4616        .F      MOV      r6,r2
        0x00001cfa:    2700        .'      MOVS     r7,#0
        0x00001cfc:    e02a        *.      B        0x1d54 ; image_load_from_internal_flash + 100
        0x00001cfe:    02f8        ..      LSLS     r0,r7,#11
        0x00001d00:    0880        ..      LSRS     r0,r0,#2
        0x00001d02:    eb080180    ....    ADD      r1,r8,r0,LSL #2
        0x00001d06:    f44f6200    O..b    MOV      r2,#0x800
        0x00001d0a:    482a        *H      LDR      r0,[pc,#168] ; [0x1db4] = 0x100000c8
        0x00001d0c:    f7fefa3e    ..>.    BL       __aeabi_memcpy4 ; 0x18c
        0x00001d10:    02f8        ..      LSLS     r0,r7,#11
        0x00001d12:    0880        ..      LSRS     r0,r0,#2
        0x00001d14:    eb050080    ....    ADD      r0,r5,r0,LSL #2
        0x00001d18:    f3c029c6    ...)    UBFX     r9,r0,#11,#7
        0x00001d1c:    02f8        ..      LSLS     r0,r7,#11
        0x00001d1e:    0880        ..      LSRS     r0,r0,#2
        0x00001d20:    eb050080    ....    ADD      r0,r5,r0,LSL #2
        0x00001d24:    f3c04a80    ...J    UBFX     r10,r0,#18,#1
        0x00001d28:    f7fefa1c    ....    BL       am_hal_interrupt_master_disable ; 0x164
        0x00001d2c:    4683        .F      MOV      r11,r0
        0x00001d2e:    464a        JF      MOV      r2,r9
        0x00001d30:    4651        QF      MOV      r1,r10
        0x00001d32:    4821        !H      LDR      r0,[pc,#132] ; [0x1db8] = 0x12344321
        0x00001d34:    f7fefe2e    ....    BL       am_hal_flash_page_erase ; 0x994
        0x00001d38:    02f8        ..      LSLS     r0,r7,#11
        0x00001d3a:    0880        ..      LSRS     r0,r0,#2
        0x00001d3c:    eb050280    ....    ADD      r2,r5,r0,LSL #2
        0x00001d40:    f44f7300    O..s    MOV      r3,#0x200
        0x00001d44:    491b        .I      LDR      r1,[pc,#108] ; [0x1db4] = 0x100000c8
        0x00001d46:    481c        .H      LDR      r0,[pc,#112] ; [0x1db8] = 0x12344321
        0x00001d48:    f7fefe2a    ..*.    BL       am_hal_flash_program_main ; 0x9a0
        0x00001d4c:    4658        XF      MOV      r0,r11
        0x00001d4e:    f7fefa0d    ....    BL       am_hal_interrupt_master_set ; 0x16c
        0x00001d52:    1c7f        ..      ADDS     r7,r7,#1
        0x00001d54:    ebb72fd6    .../    CMP      r7,r6,LSR #11
        0x00001d58:    d3d1        ..      BCC      0x1cfe ; image_load_from_internal_flash + 14
        0x00001d5a:    f3c6040a    ....    UBFX     r4,r6,#0,#11
        0x00001d5e:    b33c        <.      CBZ      r4,0x1db0 ; image_load_from_internal_flash + 192
        0x00001d60:    1b30        0.      SUBS     r0,r6,r4
        0x00001d62:    0880        ..      LSRS     r0,r0,#2
        0x00001d64:    eb080180    ....    ADD      r1,r8,r0,LSL #2
        0x00001d68:    4622        "F      MOV      r2,r4
        0x00001d6a:    4812        .H      LDR      r0,[pc,#72] ; [0x1db4] = 0x100000c8
        0x00001d6c:    f7fefa0e    ....    BL       __aeabi_memcpy4 ; 0x18c
        0x00001d70:    1b30        0.      SUBS     r0,r6,r4
        0x00001d72:    0880        ..      LSRS     r0,r0,#2
        0x00001d74:    eb050080    ....    ADD      r0,r5,r0,LSL #2
        0x00001d78:    f3c029c6    ...)    UBFX     r9,r0,#11,#7
        0x00001d7c:    1b30        0.      SUBS     r0,r6,r4
        0x00001d7e:    0880        ..      LSRS     r0,r0,#2
        0x00001d80:    eb050080    ....    ADD      r0,r5,r0,LSL #2
        0x00001d84:    f3c04a80    ...J    UBFX     r10,r0,#18,#1
        0x00001d88:    f7fef9ec    ....    BL       am_hal_interrupt_master_disable ; 0x164
        0x00001d8c:    4683        .F      MOV      r11,r0
        0x00001d8e:    464a        JF      MOV      r2,r9
        0x00001d90:    4651        QF      MOV      r1,r10
        0x00001d92:    4809        .H      LDR      r0,[pc,#36] ; [0x1db8] = 0x12344321
        0x00001d94:    f7fefdfe    ....    BL       am_hal_flash_page_erase ; 0x994
        0x00001d98:    08a3        ..      LSRS     r3,r4,#2
        0x00001d9a:    1b30        0.      SUBS     r0,r6,r4
        0x00001d9c:    0880        ..      LSRS     r0,r0,#2
        0x00001d9e:    eb050280    ....    ADD      r2,r5,r0,LSL #2
        0x00001da2:    4904        .I      LDR      r1,[pc,#16] ; [0x1db4] = 0x100000c8
        0x00001da4:    4804        .H      LDR      r0,[pc,#16] ; [0x1db8] = 0x12344321
        0x00001da6:    f7fefdfb    ....    BL       am_hal_flash_program_main ; 0x9a0
        0x00001daa:    4658        XF      MOV      r0,r11
        0x00001dac:    f7fef9de    ....    BL       am_hal_interrupt_master_set ; 0x16c
        0x00001db0:    e8bd9ff0    ....    POP      {r4-r12,pc}
    $d
        0x00001db4:    100000c8    ....    DCD    268435656
        0x00001db8:    12344321    !C4.    DCD    305414945
    $t
    i.image_start_packet_read
    image_start_packet_read
        0x00001dbc:    4601        .F      MOV      r1,r0
        0x00001dbe:    4810        .H      LDR      r0,[pc,#64] ; [0x1e00] = 0x2608
        0x00001dc0:    6802        .h      LDR      r2,[r0,#0]
        0x00001dc2:    6850        Ph      LDR      r0,[r2,#4]
        0x00001dc4:    6008        .`      STR      r0,[r1,#0]
        0x00001dc6:    6890        .h      LDR      r0,[r2,#8]
        0x00001dc8:    6048        H`      STR      r0,[r1,#4]
        0x00001dca:    68d0        .h      LDR      r0,[r2,#0xc]
        0x00001dcc:    6088        .`      STR      r0,[r1,#8]
        0x00001dce:    2000        .       MOVS     r0,#0
        0x00001dd0:    60c8        .`      STR      r0,[r1,#0xc]
        0x00001dd2:    2001        .       MOVS     r0,#1
        0x00001dd4:    6108        .a      STR      r0,[r1,#0x10]
        0x00001dd6:    2000        .       MOVS     r0,#0
        0x00001dd8:    f8810038    ..8.    STRB     r0,[r1,#0x38]
        0x00001ddc:    6148        Ha      STR      r0,[r1,#0x14]
        0x00001dde:    6188        .a      STR      r0,[r1,#0x18]
        0x00001de0:    6808        .h      LDR      r0,[r1,#0]
        0x00001de2:    f5b04f80    ...O    CMP      r0,#0x4000
        0x00001de6:    d201        ..      BCS      0x1dec ; image_start_packet_read + 48
        0x00001de8:    2000        .       MOVS     r0,#0
        0x00001dea:    4770        pG      BX       lr
        0x00001dec:    4b05        .K      LDR      r3,[pc,#20] ; [0x1e04] = 0x10000044
        0x00001dee:    6808        .h      LDR      r0,[r1,#0]
        0x00001df0:    6018        .`      STR      r0,[r3,#0]
        0x00001df2:    2000        .       MOVS     r0,#0
        0x00001df4:    4b04        .K      LDR      r3,[pc,#16] ; [0x1e08] = 0x10000048
        0x00001df6:    6018        .`      STR      r0,[r3,#0]
        0x00001df8:    4b04        .K      LDR      r3,[pc,#16] ; [0x1e0c] = 0x10000040
        0x00001dfa:    6018        .`      STR      r0,[r3,#0]
        0x00001dfc:    2001        .       MOVS     r0,#1
        0x00001dfe:    e7f4        ..      B        0x1dea ; image_start_packet_read + 46
    $d
        0x00001e00:    00002608    .&..    DCD    9736
        0x00001e04:    10000044    D...    DCD    268435524
        0x00001e08:    10000048    H...    DCD    268435528
        0x00001e0c:    10000040    @...    DCD    268435520
    $t
    i.image_start_packet_read
    image_start_packet_read
        0x00001e10:    4601        .F      MOV      r1,r0
        0x00001e12:    4a0e        .J      LDR      r2,[pc,#56] ; [0x1e4c] = 0x10001184
        0x00001e14:    6850        Ph      LDR      r0,[r2,#4]
        0x00001e16:    6008        .`      STR      r0,[r1,#0]
        0x00001e18:    6890        .h      LDR      r0,[r2,#8]
        0x00001e1a:    6048        H`      STR      r0,[r1,#4]
        0x00001e1c:    68d0        .h      LDR      r0,[r2,#0xc]
        0x00001e1e:    6088        .`      STR      r0,[r1,#8]
        0x00001e20:    2000        .       MOVS     r0,#0
        0x00001e22:    60c8        .`      STR      r0,[r1,#0xc]
        0x00001e24:    2001        .       MOVS     r0,#1
        0x00001e26:    6108        .a      STR      r0,[r1,#0x10]
        0x00001e28:    6910        .i      LDR      r0,[r2,#0x10]
        0x00001e2a:    6148        Ha      STR      r0,[r1,#0x14]
        0x00001e2c:    6950        Pi      LDR      r0,[r2,#0x14]
        0x00001e2e:    6188        .a      STR      r0,[r1,#0x18]
        0x00001e30:    6808        .h      LDR      r0,[r1,#0]
        0x00001e32:    f5b04f80    ...O    CMP      r0,#0x4000
        0x00001e36:    d201        ..      BCS      0x1e3c ; image_start_packet_read + 44
        0x00001e38:    2000        .       MOVS     r0,#0
        0x00001e3a:    4770        pG      BX       lr
        0x00001e3c:    4b04        .K      LDR      r3,[pc,#16] ; [0x1e50] = 0x10000044
        0x00001e3e:    6808        .h      LDR      r0,[r1,#0]
        0x00001e40:    6018        .`      STR      r0,[r3,#0]
        0x00001e42:    2000        .       MOVS     r0,#0
        0x00001e44:    4b03        .K      LDR      r3,[pc,#12] ; [0x1e54] = 0x10000048
        0x00001e46:    6018        .`      STR      r0,[r3,#0]
        0x00001e48:    2001        .       MOVS     r0,#1
        0x00001e4a:    e7f6        ..      B        0x1e3a ; image_start_packet_read + 42
    $d
        0x00001e4c:    10001184    ....    DCD    268439940
        0x00001e50:    10000044    D...    DCD    268435524
        0x00001e54:    10000048    H...    DCD    268435528
    $t
    i.main
    main
        0x00001e58:    2010        .       MOVS     r0,#0x10
        0x00001e5a:    4941        AI      LDR      r1,[pc,#260] ; [0x1f60] = 0x40010090
        0x00001e5c:    6008        .`      STR      r0,[r1,#0]
        0x00001e5e:    bf00        ..      NOP      
        0x00001e60:    2073        s       MOVS     r0,#0x73
        0x00001e62:    493f        ?I      LDR      r1,[pc,#252] ; [0x1f60] = 0x40010090
        0x00001e64:    3990        .9      SUBS     r1,r1,#0x90
        0x00001e66:    6608        .f      STR      r0,[r1,#0x60]
        0x00001e68:    4608        .F      MOV      r0,r1
        0x00001e6a:    6c00        .l      LDR      r0,[r0,#0x40]
        0x00001e6c:    f42020e0     ..     BIC      r0,r0,#0x70000
        0x00001e70:    f4403000    @..0    ORR      r0,r0,#0x20000
        0x00001e74:    6408        .d      STR      r0,[r1,#0x40]
        0x00001e76:    4608        .F      MOV      r0,r1
        0x00001e78:    6840        @h      LDR      r0,[r0,#4]
        0x00001e7a:    f02000ff     ...    BIC      r0,r0,#0xff
        0x00001e7e:    f0400018    @...    ORR      r0,r0,#0x18
        0x00001e82:    6048        H`      STR      r0,[r1,#4]
        0x00001e84:    2000        .       MOVS     r0,#0
        0x00001e86:    6608        .f      STR      r0,[r1,#0x60]
        0x00001e88:    bf00        ..      NOP      
        0x00001e8a:    4836        6H      LDR      r0,[pc,#216] ; [0x1f64] = 0x10000000
        0x00001e8c:    6800        .h      LDR      r0,[r0,#0]
        0x00001e8e:    f7fefae3    ....    BL       am_bootloader_image_check ; 0x458
        0x00001e92:    b1b8        ..      CBZ      r0,0x1ec4 ; main + 108
        0x00001e94:    bf00        ..      NOP      
        0x00001e96:    2073        s       MOVS     r0,#0x73
        0x00001e98:    4931        1I      LDR      r1,[pc,#196] ; [0x1f60] = 0x40010090
        0x00001e9a:    3990        .9      SUBS     r1,r1,#0x90
        0x00001e9c:    6608        .f      STR      r0,[r1,#0x60]
        0x00001e9e:    4608        .F      MOV      r0,r1
        0x00001ea0:    6c00        .l      LDR      r0,[r0,#0x40]
        0x00001ea2:    f42020e0     ..     BIC      r0,r0,#0x70000
        0x00001ea6:    6408        .d      STR      r0,[r1,#0x40]
        0x00001ea8:    4608        .F      MOV      r0,r1
        0x00001eaa:    6840        @h      LDR      r0,[r0,#4]
        0x00001eac:    f02000ff     ...    BIC      r0,r0,#0xff
        0x00001eb0:    f0400018    @...    ORR      r0,r0,#0x18
        0x00001eb4:    6048        H`      STR      r0,[r1,#4]
        0x00001eb6:    2000        .       MOVS     r0,#0
        0x00001eb8:    6608        .f      STR      r0,[r1,#0x60]
        0x00001eba:    bf00        ..      NOP      
        0x00001ebc:    4829        )H      LDR      r0,[pc,#164] ; [0x1f64] = 0x10000000
        0x00001ebe:    6800        .h      LDR      r0,[r0,#0]
        0x00001ec0:    f7fef942    ..B.    BL       am_bootloader_image_run ; 0x148
        0x00001ec4:    2000        .       MOVS     r0,#0
        0x00001ec6:    f7fefd5b    ..[.    BL       am_hal_clkgen_sysclk_select ; 0x980
        0x00001eca:    f7fefc59    ..Y.    BL       am_bsp_low_power_init ; 0x780
        0x00001ece:    f06f407f    o..@    MVN      r0,#0xff000000
        0x00001ed2:    f7fffae1    ....    BL       am_hal_systick_load ; 0x1498
        0x00001ed6:    f7fffae3    ....    BL       am_hal_systick_start ; 0x14a0
        0x00001eda:    f000f855    ..U.    BL       setup_ios_interface ; 0x1f88
        0x00001ede:    f7fef93d    ..=.    BL       am_hal_interrupt_master_enable ; 0x15c
        0x00001ee2:    e002        ..      B        0x1eea ; main + 146
        0x00001ee4:    2001        .       MOVS     r0,#1
        0x00001ee6:    f7fffd1b    ....    BL       am_util_delay_ms ; 0x1920
        0x00001eea:    481f        .H      LDR      r0,[pc,#124] ; [0x1f68] = 0x10000018
        0x00001eec:    7800        .x      LDRB     r0,[r0,#0]
        0x00001eee:    2800        .(      CMP      r0,#0
        0x00001ef0:    d1f8        ..      BNE      0x1ee4 ; main + 140
        0x00001ef2:    f7fffacd    ....    BL       am_hal_systick_count ; 0x1490
        0x00001ef6:    491d        .I      LDR      r1,[pc,#116] ; [0x1f6c] = 0xb6c1ff
        0x00001ef8:    4288        .B      CMP      r0,r1
        0x00001efa:    d8f3        ..      BHI      0x1ee4 ; main + 140
        0x00001efc:    f7fef932    ..2.    BL       am_hal_interrupt_master_disable ; 0x164
        0x00001f00:    f7fffd1c    ....    BL       cleanup_ios_interface ; 0x193c
        0x00001f04:    bf00        ..      NOP      
        0x00001f06:    2073        s       MOVS     r0,#0x73
        0x00001f08:    4915        .I      LDR      r1,[pc,#84] ; [0x1f60] = 0x40010090
        0x00001f0a:    3990        .9      SUBS     r1,r1,#0x90
        0x00001f0c:    6608        .f      STR      r0,[r1,#0x60]
        0x00001f0e:    4608        .F      MOV      r0,r1
        0x00001f10:    6c00        .l      LDR      r0,[r0,#0x40]
        0x00001f12:    f0200070     .p.    BIC      r0,r0,#0x70
        0x00001f16:    6408        .d      STR      r0,[r1,#0x40]
        0x00001f18:    4608        .F      MOV      r0,r1
        0x00001f1a:    6800        .h      LDR      r0,[r0,#0]
        0x00001f1c:    f420407f     ..@    BIC      r0,r0,#0xff00
        0x00001f20:    f44050d0    @..P    ORR      r0,r0,#0x1a00
        0x00001f24:    6008        .`      STR      r0,[r1,#0]
        0x00001f26:    2000        .       MOVS     r0,#0
        0x00001f28:    6608        .f      STR      r0,[r1,#0x60]
        0x00001f2a:    bf00        ..      NOP      
        0x00001f2c:    bf00        ..      NOP      
        0x00001f2e:    2073        s       MOVS     r0,#0x73
        0x00001f30:    6608        .f      STR      r0,[r1,#0x60]
        0x00001f32:    4608        .F      MOV      r0,r1
        0x00001f34:    6c00        .l      LDR      r0,[r0,#0x40]
        0x00001f36:    f0400080    @...    ORR      r0,r0,#0x80
        0x00001f3a:    6408        .d      STR      r0,[r1,#0x40]
        0x00001f3c:    2000        .       MOVS     r0,#0
        0x00001f3e:    6608        .f      STR      r0,[r1,#0x60]
        0x00001f40:    bf00        ..      NOP      
        0x00001f42:    2002        .       MOVS     r0,#2
        0x00001f44:    2100        .!      MOVS     r1,#0
        0x00001f46:    f7fefd33    ..3.    BL       am_hal_gpio_int_clear ; 0x9b0
        0x00001f4a:    2002        .       MOVS     r0,#2
        0x00001f4c:    2100        .!      MOVS     r1,#0
        0x00001f4e:    f7fefd47    ..G.    BL       am_hal_gpio_int_enable ; 0x9e0
        0x00001f52:    2019        .       MOVS     r0,#0x19
        0x00001f54:    f7fefd52    ..R.    BL       am_hal_interrupt_enable ; 0x9fc
        0x00001f58:    f7fef900    ....    BL       am_hal_interrupt_master_enable ; 0x15c
        0x00001f5c:    bf00        ..      NOP      
        0x00001f5e:    e7fe        ..      B        0x1f5e ; main + 262
    $d
        0x00001f60:    40010090    ...@    DCD    1073807504
        0x00001f64:    10000000    ....    DCD    268435456
        0x00001f68:    10000018    ....    DCD    268435480
        0x00001f6c:    00b6c1ff    ....    DCD    11977215
    $t
    i.ser_out
    ser_out
        0x00001f70:    4904        .I      LDR      r1,[pc,#16] ; [0x1f84] = 0x4001c000
        0x00001f72:    6008        .`      STR      r0,[r1,#0]
        0x00001f74:    bf00        ..      NOP      
        0x00001f76:    4903        .I      LDR      r1,[pc,#12] ; [0x1f84] = 0x4001c000
        0x00001f78:    6989        .i      LDR      r1,[r1,#0x18]
        0x00001f7a:    f3c11140    ..@.    UBFX     r1,r1,#5,#1
        0x00001f7e:    2900        .)      CMP      r1,#0
        0x00001f80:    d1f9        ..      BNE      0x1f76 ; ser_out + 6
        0x00001f82:    4770        pG      BX       lr
    $d
        0x00001f84:    4001c000    ...@    DCD    1073856512
    $t
    i.setup_ios_interface
    setup_ios_interface
        0x00001f88:    b510        ..      PUSH     {r4,lr}
        0x00001f8a:    bf00        ..      NOP      
        0x00001f8c:    2073        s       MOVS     r0,#0x73
        0x00001f8e:    4963        cI      LDR      r1,[pc,#396] ; [0x211c] = 0x40010000
        0x00001f90:    6608        .f      STR      r0,[r1,#0x60]
        0x00001f92:    4608        .F      MOV      r0,r1
        0x00001f94:    6c00        .l      LDR      r0,[r0,#0x40]
        0x00001f96:    f0200007     ...    BIC      r0,r0,#7
        0x00001f9a:    6408        .d      STR      r0,[r1,#0x40]
        0x00001f9c:    4608        .F      MOV      r0,r1
        0x00001f9e:    6800        .h      LDR      r0,[r0,#0]
        0x00001fa0:    f02000ff     ...    BIC      r0,r0,#0xff
        0x00001fa4:    f040001a    @...    ORR      r0,r0,#0x1a
        0x00001fa8:    6008        .`      STR      r0,[r1,#0]
        0x00001faa:    2000        .       MOVS     r0,#0
        0x00001fac:    6608        .f      STR      r0,[r1,#0x60]
        0x00001fae:    bf00        ..      NOP      
        0x00001fb0:    485a        ZH      LDR      r0,[pc,#360] ; [0x211c] = 0x40010000
        0x00001fb2:    3080        .0      ADDS     r0,r0,#0x80
        0x00001fb4:    6800        .h      LDR      r0,[r0,#0]
        0x00001fb6:    f0000001    ....    AND      r0,r0,#1
        0x00001fba:    b348        H.      CBZ      r0,0x2010 ; setup_ios_interface + 136
        0x00001fbc:    bf00        ..      NOP      
        0x00001fbe:    2073        s       MOVS     r0,#0x73
        0x00001fc0:    6608        .f      STR      r0,[r1,#0x60]
        0x00001fc2:    4608        .F      MOV      r0,r1
        0x00001fc4:    6c00        .l      LDR      r0,[r0,#0x40]
        0x00001fc6:    f0200007     ...    BIC      r0,r0,#7
        0x00001fca:    6408        .d      STR      r0,[r1,#0x40]
        0x00001fcc:    4608        .F      MOV      r0,r1
        0x00001fce:    6800        .h      LDR      r0,[r0,#0]
        0x00001fd0:    f02000ff     ...    BIC      r0,r0,#0xff
        0x00001fd4:    f0400002    @...    ORR      r0,r0,#2
        0x00001fd8:    6008        .`      STR      r0,[r1,#0]
        0x00001fda:    2000        .       MOVS     r0,#0
        0x00001fdc:    6608        .f      STR      r0,[r1,#0x60]
        0x00001fde:    bf00        ..      NOP      
        0x00001fe0:    bf00        ..      NOP      
        0x00001fe2:    2073        s       MOVS     r0,#0x73
        0x00001fe4:    6608        .f      STR      r0,[r1,#0x60]
        0x00001fe6:    4608        .F      MOV      r0,r1
        0x00001fe8:    6c00        .l      LDR      r0,[r0,#0x40]
        0x00001fea:    f0200070     .p.    BIC      r0,r0,#0x70
        0x00001fee:    f0400040    @.@.    ORR      r0,r0,#0x40
        0x00001ff2:    6408        .d      STR      r0,[r1,#0x40]
        0x00001ff4:    4608        .F      MOV      r0,r1
        0x00001ff6:    6800        .h      LDR      r0,[r0,#0]
        0x00001ff8:    f420407f     ..@    BIC      r0,r0,#0xff00
        0x00001ffc:    f4407000    @..p    ORR      r0,r0,#0x200
        0x00002000:    6008        .`      STR      r0,[r1,#0]
        0x00002002:    2000        .       MOVS     r0,#0
        0x00002004:    6608        .f      STR      r0,[r1,#0x60]
        0x00002006:    bf00        ..      NOP      
        0x00002008:    1448        H.      ASRS     r0,r1,#17
        0x0000200a:    4945        EI      LDR      r1,[pc,#276] ; [0x2120] = 0x1000001c
        0x0000200c:    6008        .`      STR      r0,[r1,#0]
        0x0000200e:    e04b        K.      B        0x20a8 ; setup_ios_interface + 288
        0x00002010:    bf00        ..      NOP      
        0x00002012:    2073        s       MOVS     r0,#0x73
        0x00002014:    4941        AI      LDR      r1,[pc,#260] ; [0x211c] = 0x40010000
        0x00002016:    6608        .f      STR      r0,[r1,#0x60]
        0x00002018:    4608        .F      MOV      r0,r1
        0x0000201a:    6c00        .l      LDR      r0,[r0,#0x40]
        0x0000201c:    f0200007     ...    BIC      r0,r0,#7
        0x00002020:    6408        .d      STR      r0,[r1,#0x40]
        0x00002022:    4608        .F      MOV      r0,r1
        0x00002024:    6800        .h      LDR      r0,[r0,#0]
        0x00002026:    f02000ff     ...    BIC      r0,r0,#0xff
        0x0000202a:    f040000a    @...    ORR      r0,r0,#0xa
        0x0000202e:    6008        .`      STR      r0,[r1,#0]
        0x00002030:    2000        .       MOVS     r0,#0
        0x00002032:    6608        .f      STR      r0,[r1,#0x60]
        0x00002034:    bf00        ..      NOP      
        0x00002036:    bf00        ..      NOP      
        0x00002038:    2073        s       MOVS     r0,#0x73
        0x0000203a:    6608        .f      STR      r0,[r1,#0x60]
        0x0000203c:    4608        .F      MOV      r0,r1
        0x0000203e:    6c00        .l      LDR      r0,[r0,#0x40]
        0x00002040:    f0200070     .p.    BIC      r0,r0,#0x70
        0x00002044:    6408        .d      STR      r0,[r1,#0x40]
        0x00002046:    4608        .F      MOV      r0,r1
        0x00002048:    6800        .h      LDR      r0,[r0,#0]
        0x0000204a:    f420407f     ..@    BIC      r0,r0,#0xff00
        0x0000204e:    f4406000    @..`    ORR      r0,r0,#0x800
        0x00002052:    6008        .`      STR      r0,[r1,#0]
        0x00002054:    2000        .       MOVS     r0,#0
        0x00002056:    6608        .f      STR      r0,[r1,#0x60]
        0x00002058:    bf00        ..      NOP      
        0x0000205a:    bf00        ..      NOP      
        0x0000205c:    2073        s       MOVS     r0,#0x73
        0x0000205e:    6608        .f      STR      r0,[r1,#0x60]
        0x00002060:    4608        .F      MOV      r0,r1
        0x00002062:    6c00        .l      LDR      r0,[r0,#0x40]
        0x00002064:    f42060e0     ..`    BIC      r0,r0,#0x700
        0x00002068:    6408        .d      STR      r0,[r1,#0x40]
        0x0000206a:    4608        .F      MOV      r0,r1
        0x0000206c:    6800        .h      LDR      r0,[r0,#0]
        0x0000206e:    f420007f     ...    BIC      r0,r0,#0xff0000
        0x00002072:    f4402020    @.      ORR      r0,r0,#0xa0000
        0x00002076:    6008        .`      STR      r0,[r1,#0]
        0x00002078:    2000        .       MOVS     r0,#0
        0x0000207a:    6608        .f      STR      r0,[r1,#0x60]
        0x0000207c:    bf00        ..      NOP      
        0x0000207e:    bf00        ..      NOP      
        0x00002080:    2073        s       MOVS     r0,#0x73
        0x00002082:    6608        .f      STR      r0,[r1,#0x60]
        0x00002084:    4608        .F      MOV      r0,r1
        0x00002086:    6c00        .l      LDR      r0,[r0,#0x40]
        0x00002088:    f42040e0     ..@    BIC      r0,r0,#0x7000
        0x0000208c:    6408        .d      STR      r0,[r1,#0x40]
        0x0000208e:    4608        .F      MOV      r0,r1
        0x00002090:    6800        .h      LDR      r0,[r0,#0]
        0x00002092:    f020407f     ..@    BIC      r0,r0,#0xff000000
        0x00002096:    f0406020    @. `    ORR      r0,r0,#0xa000000
        0x0000209a:    6008        .`      STR      r0,[r1,#0]
        0x0000209c:    2000        .       MOVS     r0,#0
        0x0000209e:    6608        .f      STR      r0,[r1,#0x60]
        0x000020a0:    bf00        ..      NOP      
        0x000020a2:    2001        .       MOVS     r0,#1
        0x000020a4:    491e        .I      LDR      r1,[pc,#120] ; [0x2120] = 0x1000001c
        0x000020a6:    6008        .`      STR      r0,[r1,#0]
        0x000020a8:    2010        .       MOVS     r0,#0x10
        0x000020aa:    491c        .I      LDR      r1,[pc,#112] ; [0x211c] = 0x40010000
        0x000020ac:    3190        .1      ADDS     r1,r1,#0x90
        0x000020ae:    6008        .`      STR      r0,[r1,#0]
        0x000020b0:    bf00        ..      NOP      
        0x000020b2:    2073        s       MOVS     r0,#0x73
        0x000020b4:    4919        .I      LDR      r1,[pc,#100] ; [0x211c] = 0x40010000
        0x000020b6:    6608        .f      STR      r0,[r1,#0x60]
        0x000020b8:    4608        .F      MOV      r0,r1
        0x000020ba:    6c00        .l      LDR      r0,[r0,#0x40]
        0x000020bc:    f42020e0     ..     BIC      r0,r0,#0x70000
        0x000020c0:    f4403000    @..0    ORR      r0,r0,#0x20000
        0x000020c4:    6408        .d      STR      r0,[r1,#0x40]
        0x000020c6:    4608        .F      MOV      r0,r1
        0x000020c8:    6840        @h      LDR      r0,[r0,#4]
        0x000020ca:    f02000ff     ...    BIC      r0,r0,#0xff
        0x000020ce:    f0400018    @...    ORR      r0,r0,#0x18
        0x000020d2:    6048        H`      STR      r0,[r1,#4]
        0x000020d4:    2000        .       MOVS     r0,#0
        0x000020d6:    6608        .f      STR      r0,[r1,#0x60]
        0x000020d8:    bf00        ..      NOP      
        0x000020da:    4811        .H      LDR      r0,[pc,#68] ; [0x2120] = 0x1000001c
        0x000020dc:    f7fff892    ....    BL       am_hal_ios_config ; 0x1204
        0x000020e0:    f04f30ff    O..0    MOV      r0,#0xffffffff
        0x000020e4:    f7fff876    ..v.    BL       am_hal_ios_access_int_clear ; 0x11d4
        0x000020e8:    f04f5080    O..P    MOV      r0,#0x10000000
        0x000020ec:    f7fff877    ..w.    BL       am_hal_ios_access_int_enable ; 0x11de
        0x000020f0:    f04f30ff    O..0    MOV      r0,#0xffffffff
        0x000020f4:    f7fff918    ....    BL       am_hal_ios_int_clear ; 0x1328
        0x000020f8:    2001        .       MOVS     r0,#1
        0x000020fa:    f7fff91a    ....    BL       am_hal_ios_int_enable ; 0x1332
        0x000020fe:    2015        .       MOVS     r0,#0x15
        0x00002100:    f7fefc7c    ..|.    BL       am_hal_interrupt_enable ; 0x9fc
        0x00002104:    2014        .       MOVS     r0,#0x14
        0x00002106:    f7fefc79    ..y.    BL       am_hal_interrupt_enable ; 0x9fc
        0x0000210a:    2002        .       MOVS     r0,#2
        0x0000210c:    4905        .I      LDR      r1,[pc,#20] ; [0x2124] = 0x2608
        0x0000210e:    6809        .h      LDR      r1,[r1,#0]
        0x00002110:    6008        .`      STR      r0,[r1,#0]
        0x00002112:    2010        .       MOVS     r0,#0x10
        0x00002114:    4901        .I      LDR      r1,[pc,#4] ; [0x211c] = 0x40010000
        0x00002116:    3198        .1      ADDS     r1,r1,#0x98
        0x00002118:    6008        .`      STR      r0,[r1,#0]
        0x0000211a:    bd10        ..      POP      {r4,pc}
    $d
        0x0000211c:    40010000    ...@    DCD    1073807360
        0x00002120:    1000001c    ....    DCD    268435484
        0x00002124:    00002608    .&..    DCD    9736
    $t
    i.setup_serial
    setup_serial
        0x00002128:    b570        p.      PUSH     {r4-r6,lr}
        0x0000212a:    4605        .F      MOV      r5,r0
        0x0000212c:    460c        .F      MOV      r4,r1
        0x0000212e:    2000        .       MOVS     r0,#0
        0x00002130:    4929        )I      LDR      r1,[pc,#164] ; [0x21d8] = 0x10000078
        0x00002132:    6008        .`      STR      r0,[r1,#0]
        0x00002134:    4929        )I      LDR      r1,[pc,#164] ; [0x21dc] = 0x1000006f
        0x00002136:    7008        .p      STRB     r0,[r1,#0]
        0x00002138:    4929        )I      LDR      r1,[pc,#164] ; [0x21e0] = 0x10000071
        0x0000213a:    7008        .p      STRB     r0,[r1,#0]
        0x0000213c:    4929        )I      LDR      r1,[pc,#164] ; [0x21e4] = 0x10000070
        0x0000213e:    7008        .p      STRB     r0,[r1,#0]
        0x00002140:    4929        )I      LDR      r1,[pc,#164] ; [0x21e8] = 0x1000006d
        0x00002142:    7008        .p      STRB     r0,[r1,#0]
        0x00002144:    2001        .       MOVS     r0,#1
        0x00002146:    4929        )I      LDR      r1,[pc,#164] ; [0x21ec] = 0x1000006e
        0x00002148:    7008        .p      STRB     r0,[r1,#0]
        0x0000214a:    20ff        .       MOVS     r0,#0xff
        0x0000214c:    4928        (I      LDR      r1,[pc,#160] ; [0x21f0] = 0x1000007c
        0x0000214e:    7008        .p      STRB     r0,[r1,#0]
        0x00002150:    bf00        ..      NOP      
        0x00002152:    2073        s       MOVS     r0,#0x73
        0x00002154:    4927        'I      LDR      r1,[pc,#156] ; [0x21f4] = 0x40010000
        0x00002156:    6608        .f      STR      r0,[r1,#0x60]
        0x00002158:    4608        .F      MOV      r0,r1
        0x0000215a:    6d00        .m      LDR      r0,[r0,#0x50]
        0x0000215c:    f42040e0     ..@    BIC      r0,r0,#0x7000
        0x00002160:    6508        .e      STR      r0,[r1,#0x50]
        0x00002162:    4608        .F      MOV      r0,r1
        0x00002164:    6a00        .j      LDR      r0,[r0,#0x20]
        0x00002166:    f020407f     ..@    BIC      r0,r0,#0xff000000
        0x0000216a:    f0405080    @..P    ORR      r0,r0,#0x10000000
        0x0000216e:    6208        .b      STR      r0,[r1,#0x20]
        0x00002170:    2000        .       MOVS     r0,#0
        0x00002172:    6608        .f      STR      r0,[r1,#0x60]
        0x00002174:    bf00        ..      NOP      
        0x00002176:    bf00        ..      NOP      
        0x00002178:    2073        s       MOVS     r0,#0x73
        0x0000217a:    6608        .f      STR      r0,[r1,#0x60]
        0x0000217c:    4608        .F      MOV      r0,r1
        0x0000217e:    6d00        .m      LDR      r0,[r0,#0x50]
        0x00002180:    f42020e0     ..     BIC      r0,r0,#0x70000
        0x00002184:    6508        .e      STR      r0,[r1,#0x50]
        0x00002186:    4608        .F      MOV      r0,r1
        0x00002188:    6a40        @j      LDR      r0,[r0,#0x24]
        0x0000218a:    f02000ff     ...    BIC      r0,r0,#0xff
        0x0000218e:    f0400012    @...    ORR      r0,r0,#0x12
        0x00002192:    6248        Hb      STR      r0,[r1,#0x24]
        0x00002194:    2000        .       MOVS     r0,#0
        0x00002196:    6608        .f      STR      r0,[r1,#0x60]
        0x00002198:    bf00        ..      NOP      
        0x0000219a:    4628        (F      MOV      r0,r5
        0x0000219c:    f7fff992    ....    BL       am_hal_uart_clock_enable ; 0x14c4
        0x000021a0:    4628        (F      MOV      r0,r5
        0x000021a2:    f7fff9cb    ....    BL       am_hal_uart_disable ; 0x153c
        0x000021a6:    4814        .H      LDR      r0,[pc,#80] ; [0x21f8] = 0x10000054
        0x000021a8:    6004        .`      STR      r4,[r0,#0]
        0x000021aa:    4601        .F      MOV      r1,r0
        0x000021ac:    4628        (F      MOV      r0,r5
        0x000021ae:    f7fff99b    ....    BL       am_hal_uart_config ; 0x14e8
        0x000021b2:    2112        .!      MOVS     r1,#0x12
        0x000021b4:    4628        (F      MOV      r0,r5
        0x000021b6:    f7fff9d5    ....    BL       am_hal_uart_fifo_config ; 0x1564
        0x000021ba:    4628        (F      MOV      r0,r5
        0x000021bc:    f7fff9c8    ....    BL       am_hal_uart_enable ; 0x1550
        0x000021c0:    2150        P!      MOVS     r1,#0x50
        0x000021c2:    2000        .       MOVS     r0,#0
        0x000021c4:    f7fff9d8    ....    BL       am_hal_uart_int_clear ; 0x1578
        0x000021c8:    2150        P!      MOVS     r1,#0x50
        0x000021ca:    2000        .       MOVS     r0,#0
        0x000021cc:    f7fff9da    ....    BL       am_hal_uart_int_enable ; 0x1584
        0x000021d0:    201b        .       MOVS     r0,#0x1b
        0x000021d2:    f7fefc13    ....    BL       am_hal_interrupt_enable ; 0x9fc
        0x000021d6:    bd70        p.      POP      {r4-r6,pc}
    $d
        0x000021d8:    10000078    x...    DCD    268435576
        0x000021dc:    1000006f    o...    DCD    268435567
        0x000021e0:    10000071    q...    DCD    268435569
        0x000021e4:    10000070    p...    DCD    268435568
        0x000021e8:    1000006d    m...    DCD    268435565
        0x000021ec:    1000006e    n...    DCD    268435566
        0x000021f0:    1000007c    |...    DCD    268435580
        0x000021f4:    40010000    ...@    DCD    1073807360
        0x000021f8:    10000054    T...    DCD    268435540
    $t
    x$fpl$fpinit
    $v0
    _fp_init
        0x000021fc:    f04f7040    O.@p    MOV      r0,#0x3000000
        0x00002200:    eee10a10    ....    VMSR     FPSCR,r0
    __fplib_config_fpu_vfp
    __fplib_config_pureend_doubles
        0x00002204:    4770        pG      BX       lr
        0x00002206:    0000        ..      MOVS     r0,r0
    $d.realdata
    .constdata
    g_pui32CRC32Table
        0x00002208:    00000000    ....    DCD    0
        0x0000220c:    1edc6f41    Ao..    DCD    517762881
        0x00002210:    3db8de82    ...=    DCD    1035525762
        0x00002214:    2364b1c3    ..d#    DCD    593801667
        0x00002218:    7b71bd04    ..q{    DCD    2071051524
        0x0000221c:    65add245    E..e    DCD    1705890373
        0x00002220:    46c96386    .c.F    DCD    1187603334
        0x00002224:    58150cc7    ...X    DCD    1477774535
        0x00002228:    f6e37a08    .z..    DCD    4142103048
        0x0000222c:    e83f1549    I.?.    DCD    3896448329
        0x00002230:    cb5ba48a    ..[.    DCD    3411780746
        0x00002234:    d587cbcb    ....    DCD    3582446539
        0x00002238:    8d92c70c    ....    DCD    2375206668
        0x0000223c:    934ea84d    M.N.    DCD    2471405645
        0x00002240:    b02a198e    ..*.    DCD    2955549070
        0x00002244:    aef676cf    .v..    DCD    2935387855
        0x00002248:    f31a9b51    Q...    DCD    4078607185
        0x0000224c:    edc6f410    ....    DCD    3989238800
        0x00002250:    cea245d3    .E..    DCD    3466741203
        0x00002254:    d07e2a92    .*~.    DCD    3497929362
        0x00002258:    886b2655    U&k.    DCD    2288723541
        0x0000225c:    96b74914    .I..    DCD    2528594196
        0x00002260:    b5d3f8d7    ....    DCD    3050567895
        0x00002264:    ab0f9796    ....    DCD    2869925782
        0x00002268:    05f9e159    Y...    DCD    100262233
        0x0000226c:    1b258e18    ..%.    DCD    455446040
        0x00002270:    38413fdb    .?A8    DCD    943800283
        0x00002274:    269d509a    .P.&    DCD    647843994
        0x00002278:    7e885c5d    ]\.~    DCD    2122865757
        0x0000227c:    6054331c    .3T`    DCD    1616130844
        0x00002280:    433082df    ..0C    DCD    1127252703
        0x00002284:    5deced9e    ...]    DCD    1575808414
        0x00002288:    f8e959e3    .Y..    DCD    4176042467
        0x0000228c:    e63536a2    .65.    DCD    3862247074
        0x00002290:    c5518761    a.Q.    DCD    3310454625
        0x00002294:    db8de820     ...    DCD    3683510304
        0x00002298:    8398e4e7    ....    DCD    2207835367
        0x0000229c:    9d448ba6    ..D.    DCD    2638515110
        0x000022a0:    be203a65    e: .    DCD    3189783141
        0x000022a4:    a0fc5524    $U..    DCD    2700891428
        0x000022a8:    0e0a23eb    .#..    DCD    235545579
        0x000022ac:    10d64caa    .L..    DCD    282479786
        0x000022b0:    33b2fd69    i..3    DCD    867368297
        0x000022b4:    2d6e9228    (.n-    DCD    762221096
        0x000022b8:    757b9eef    ..{u    DCD    1971035887
        0x000022bc:    6ba7f1ae    ...k    DCD    1806168494
        0x000022c0:    48c3406d    m@.H    DCD    1220755565
        0x000022c4:    561f2f2c    ,/.V    DCD    1444884268
        0x000022c8:    0bf3c2b2    ....    DCD    200524466
        0x000022cc:    152fadf3    ../.    DCD    355446259
        0x000022d0:    364b1c30    0.K6    DCD    910892080
        0x000022d4:    28977371    qs.(    DCD    681014129
        0x000022d8:    70827fb6    ...p    DCD    1887600566
        0x000022dc:    6e5e10f7    ..^n    DCD    1851658487
        0x000022e0:    4d3aa134    4.:M    DCD    1295687988
        0x000022e4:    53e6ce75    u..S    DCD    1407635061
        0x000022e8:    fd10b8ba    ....    DCD    4245731514
        0x000022ec:    e3ccd7fb    ....    DCD    3821852667
        0x000022f0:    c0a86638    8f..    DCD    3232261688
        0x000022f4:    de740979    y.t.    DCD    3732146553
        0x000022f8:    866105be    ..a.    DCD    2254505406
        0x000022fc:    98bd6aff    .j..    DCD    2562550527
        0x00002300:    bbd9db3c    <...    DCD    3151616828
        0x00002304:    a505b47d    }...    DCD    2768614525
        0x00002308:    ef0edc87    ....    DCD    4010728583
        0x0000230c:    f1d2b3c6    ....    DCD    4057117638
        0x00002310:    d2b60205    ....    DCD    3535143429
        0x00002314:    cc6a6d44    Dmj.    DCD    3429526852
        0x00002318:    947f6183    .a..    DCD    2491376003
        0x0000231c:    8aa30ec2    ....    DCD    2325941954
        0x00002320:    a9c7bf01    ....    DCD    2848440065
        0x00002324:    b71bd040    @...    DCD    3072053312
        0x00002328:    19eda68f    ....    DCD    435005071
        0x0000232c:    0731c9ce    ..1.    DCD    120703438
        0x00002330:    2455780d    .xU$    DCD    609581069
        0x00002334:    3a89174c    L..:    DCD    982062924
        0x00002338:    629c1b8b    ...b    DCD    1654397835
        0x0000233c:    7c4074ca    .t@|    DCD    2084598986
        0x00002340:    5f24c509    ..$_    DCD    1596245257
        0x00002344:    41f8aa48    H..A    DCD    1106815560
        0x00002348:    1c1447d6    .G..    DCD    471091158
        0x0000234c:    02c82897    .(..    DCD    46672023
        0x00002350:    21ac9954    T..!    DCD    564959572
        0x00002354:    3f70f615    ..p?    DCD    1064367637
        0x00002358:    6765fad2    ..eg    DCD    1734736594
        0x0000235c:    79b99593    ...y    DCD    2042205587
        0x00002360:    5add2450    P$.Z    DCD    1524442192
        0x00002364:    44014b11    .K.D    DCD    1140935441
        0x00002368:    eaf73dde    .=..    DCD    3942071774
        0x0000236c:    f42b529f    .R+.    DCD    4096479903
        0x00002370:    d74fe35c    \.O.    DCD    3612336988
        0x00002374:    c9938c1d    ....    DCD    3381890077
        0x00002378:    918680da    ....    DCD    2441511130
        0x0000237c:    8f5aef9b    ..Z.    DCD    2405101467
        0x00002380:    ac3e5e58    X^>.    DCD    2889768536
        0x00002384:    b2e23119    .1..    DCD    3001168153
        0x00002388:    17e78564    d...    DCD    401048932
        0x0000238c:    093bea25    %.;.    DCD    154921509
        0x00002390:    2a5f5be6    .[_*    DCD    710892518
        0x00002394:    348334a7    .4.4    DCD    881013927
        0x00002398:    6c963860    `8.l    DCD    1821784160
        0x0000239c:    724a5721    !WJr    DCD    1917474593
        0x000023a0:    512ee6e2    ...Q    DCD    1362028258
        0x000023a4:    4ff289a3    ...O    DCD    1341295011
        0x000023a8:    e104ff6c    l...    DCD    3775201132
        0x000023ac:    ffd8902d    -...    DCD    4292382765
        0x000023b0:    dcbc21ee    .!..    DCD    3703316974
        0x000023b4:    c2604eaf    .N`.    DCD    3261091503
        0x000023b8:    9a754268    hBu.    DCD    2591375976
        0x000023bc:    84a92d29    )-..    DCD    2225679657
        0x000023c0:    a7cd9cea    ....    DCD    2815270122
        0x000023c4:    b911f3ab    ....    DCD    3104961451
        0x000023c8:    e4fd1e35    5...    DCD    3841793589
        0x000023cc:    fa217174    tq!.    DCD    4196495732
        0x000023d0:    d945c0b7    ..E.    DCD    3645227191
        0x000023d4:    c799aff6    ....    DCD    3348738038
        0x000023d8:    9f8ca331    1...    DCD    2676794161
        0x000023dc:    8150cc70    p.P.    DCD    2169556080
        0x000023e0:    a2347db3    .}4.    DCD    2721349043
        0x000023e4:    bce812f2    ....    DCD    3169325810
        0x000023e8:    121e643d    =d..    DCD    303981629
        0x000023ec:    0cc20b7c    |...    DCD    214043516
        0x000023f0:    2fa6babf    .../    DCD    799455935
        0x000023f4:    317ad5fe    ..z1    DCD    830133758
        0x000023f8:    696fd939    9.oi    DCD    1768937785
        0x000023fc:    77b3b678    x..w    DCD    2008266360
        0x00002400:    54d707bb    ...T    DCD    1423378363
        0x00002404:    4a0b68fa    .h.J    DCD    1242261754
        0x00002408:    c0c1d64f    O...    DCD    3233928783
        0x0000240c:    de1db90e    ....    DCD    3726489870
        0x00002410:    fd7908cd    ..y.    DCD    4252567757
        0x00002414:    e3a5678c    .g..    DCD    3819267980
        0x00002418:    bbb06b4b    Kk..    DCD    3148901195
        0x0000241c:    a56c040a    ..l.    DCD    2775319562
        0x00002420:    8608b5c9    ....    DCD    2248717769
        0x00002424:    98d4da88    ....    DCD    2564086408
        0x00002428:    3622ac47    G."6    DCD    908241991
        0x0000242c:    28fec306    ...(    DCD    687784710
        0x00002430:    0b9a72c5    .r..    DCD    194671301
        0x00002434:    15461d84    ..F.    DCD    356916612
        0x00002438:    4d531143    C.SM    DCD    1297289539
        0x0000243c:    538f7e02    .~.S    DCD    1401912834
        0x00002440:    70ebcfc1    ...p    DCD    1894502337
        0x00002444:    6e37a080    ..7n    DCD    1849139328
        0x00002448:    33db4d1e    .M.3    DCD    870010142
        0x0000244c:    2d07225f    _".-    DCD    755442271
        0x00002450:    0e63939c    ..c.    DCD    241406876
        0x00002454:    10bffcdd    ....    DCD    281017565
        0x00002458:    48aaf01a    ...H    DCD    1219162138
        0x0000245c:    56769f5b    [.vV    DCD    1450614619
        0x00002460:    75122e98    ...u    DCD    1964125848
        0x00002464:    6bce41d9    .A.k    DCD    1808679385
        0x00002468:    c5383716    .78.    DCD    3308795670
        0x0000246c:    dbe45857    WX..    DCD    3689175127
        0x00002470:    f880e994    ....    DCD    4169197972
        0x00002474:    e65c86d5    ..\.    DCD    3864823509
        0x00002478:    be498a12    ..I.    DCD    3192490514
        0x0000247c:    a095e553    S...    DCD    2694178131
        0x00002480:    83f15490    .T..    DCD    2213631120
        0x00002484:    9d2d3bd1    .;-.    DCD    2636987345
        0x00002488:    38288fac    ..(8    DCD    942182316
        0x0000248c:    26f4e0ed    ...&    DCD    653582573
        0x00002490:    0590512e    .Q..    DCD    93344046
        0x00002494:    1b4c3e6f    o>L.    DCD    457981551
        0x00002498:    435932a8    .2YC    DCD    1129919144
        0x0000249c:    5d855de9    .].]    DCD    1569021417
        0x000024a0:    7ee1ec2a    *..~    DCD    2128735274
        0x000024a4:    603d836b    k.=`    DCD    1614644075
        0x000024a8:    cecbf5a4    ....    DCD    3469473188
        0x000024ac:    d0179ae5    ....    DCD    3491207909
        0x000024b0:    f3732b26    &+s.    DCD    4084411174
        0x000024b4:    edaf4467    gD..    DCD    3987686503
        0x000024b8:    b5ba48a0    .H..    DCD    3048884384
        0x000024bc:    ab6627e1    .'f.    DCD    2875598817
        0x000024c0:    88029622    "...    DCD    2281870882
        0x000024c4:    96def963    c...    DCD    2531195235
        0x000024c8:    cb3214fd    ..2.    DCD    3409057021
        0x000024cc:    d5ee7bbc    .{..    DCD    3589176252
        0x000024d0:    f68aca7f    ....    DCD    4136290943
        0x000024d4:    e856a53e    >.V.    DCD    3897992510
        0x000024d8:    b043a9f9    ..C.    DCD    2957224441
        0x000024dc:    ae9fc6b8    ....    DCD    2929706680
        0x000024e0:    8dfb777b    {w..    DCD    2382067579
        0x000024e4:    9327183a    :.'.    DCD    2468812858
        0x000024e8:    3dd16ef5    .n.=    DCD    1037135605
        0x000024ec:    230d01b4    ...#    DCD    588054964
        0x000024f0:    0069b077    w.i.    DCD    6926455
        0x000024f4:    1eb5df36    6...    DCD    515235638
        0x000024f8:    46a0d3f1    ...F    DCD    1184945137
        0x000024fc:    587cbcb0    ..|X    DCD    1484569776
        0x00002500:    7b180d73    s..{    DCD    2065173875
        0x00002504:    65c46232    2b.e    DCD    1707369010
        0x00002508:    2fcf0ac8    .../    DCD    802097864
        0x0000250c:    31136589    .e.1    DCD    823354761
        0x00002510:    1277d44a    J.w.    DCD    309843018
        0x00002514:    0cabbb0b    ....    DCD    212581131
        0x00002518:    54beb7cc    ...T    DCD    1421785036
        0x0000251c:    4a62d88d    ..bJ    DCD    1247991949
        0x00002520:    6906694e    Ni.i    DCD    1762027854
        0x00002524:    77da060f    ...w    DCD    2010777103
        0x00002528:    d92c70c0    .p,.    DCD    3643568320
        0x0000252c:    c7f01f81    ....    DCD    3354402689
        0x00002530:    e494ae42    B...    DCD    3834949186
        0x00002534:    fa48c103    ..H.    DCD    4199072003
        0x00002538:    a25dcdc4    ..].    DCD    2724056516
        0x0000253c:    bc81a285    ....    DCD    3162612357
        0x00002540:    9fe51346    F...    DCD    2682590022
        0x00002544:    81397c07    .|9.    DCD    2168028167
        0x00002548:    dcd59199    ....    DCD    3704983961
        0x0000254c:    c209fed8    ....    DCD    3255434968
        0x00002550:    e16d4f1b    .Om.    DCD    3782037275
        0x00002554:    ffb1205a    Z ..    DCD    4289798234
        0x00002558:    a7a42c9d    .,..    DCD    2812554397
        0x0000255c:    b97843dc    .Cx.    DCD    3111666652
        0x00002560:    9a1cf21f    ....    DCD    2585588255
        0x00002564:    84c09d5e    ^...    DCD    2227215710
        0x00002568:    2a36eb91    ..6*    DCD    708242321
        0x0000256c:    34ea84d0    ...4    DCD    887784656
        0x00002570:    178e3513    .5..    DCD    395195667
        0x00002574:    09525a52    RZR.    DCD    156392018
        0x00002578:    51475695    .VGQ    DCD    1363629717
        0x0000257c:    4f9b39d4    .9.O    DCD    1335572948
        0x00002580:    6cff8817    ...l    DCD    1828685847
        0x00002584:    7223e756    V.#r    DCD    1914955606
        0x00002588:    d726532b    +S&.    DCD    3609613099
        0x0000258c:    c9fa3c6a    j<..    DCD    3388619882
        0x00002590:    ea9e8da9    ....    DCD    3936259497
        0x00002594:    f442e2e8    ..B.    DCD    4098024168
        0x00002598:    ac57ee2f    /.W.    DCD    2891443759
        0x0000259c:    b28b816e    n...    DCD    2995487086
        0x000025a0:    91ef30ad    .0..    DCD    2448371885
        0x000025a4:    8f335fec    ._3.    DCD    2402508780
        0x000025a8:    21c52923    #).!    DCD    566569251
        0x000025ac:    3f194662    bF.?    DCD    1058621026
        0x000025b0:    1c7df7a1    ..}.    DCD    478017441
        0x000025b4:    02a198e0    ....    DCD    44144864
        0x000025b8:    5ab49427    '..Z    DCD    1521783847
        0x000025bc:    4468fb66    f.hD    DCD    1147730790
        0x000025c0:    670c4aa5    .J.g    DCD    1728858789
        0x000025c4:    79d025e4    .%.y    DCD    2043684324
        0x000025c8:    243cc87a    z.<$    DCD    607963258
        0x000025cc:    3ae0a73b    ;..:    DCD    987801403
        0x000025d0:    198416f8    ....    DCD    428087032
        0x000025d4:    075879b9    .yX.    DCD    123238841
        0x000025d8:    5f4d757e    ~uM_    DCD    1598911870
        0x000025dc:    41911a3f    ?..A    DCD    1100028479
        0x000025e0:    62f5abfc    ...b    DCD    1660267516
        0x000025e4:    7c29c4bd    ..)|    DCD    2083112125
        0x000025e8:    d2dfb272    r...    DCD    3537875570
        0x000025ec:    cc03dd33    3...    DCD    3422805299
        0x000025f0:    ef676cf0    .lg.    DCD    4016532720
        0x000025f4:    f1bb03b1    ....    DCD    4055565233
        0x000025f8:    a9ae0f76    v...    DCD    2846756726
        0x000025fc:    b7726037    7`r.    DCD    3077726263
        0x00002600:    9416d1f4    ....    DCD    2484523508
        0x00002604:    8acabeb5    ....    DCD    2328542901
    .constdata
    am_hal_ios_pui8LRAM
        0x00002608:    50000000    ...P    DCD    1342177280
    .conststring
        0x0000260c:    20656854    The     DCD    543516756
        0x00002610:    204d4f49    IOM     DCD    541937481
        0x00002614:    75657571    queu    DCD    1969583473
        0x00002618:    73692065    e is    DCD    1936269413
        0x0000261c:    6c756620     ful    DCD    1819633184
        0x00002620:    41202e6c    l. A    DCD    1092628076
        0x00002624:    636f6c6c    lloc    DCD    1668246636
        0x00002628:    20657461    ate     DCD    543519841
        0x0000262c:    65726f6d    more    DCD    1701998445
        0x00002630:    6f6d656d    memo    DCD    1869440365
        0x00002634:    74207972    ry t    DCD    1948285298
        0x00002638:    6874206f    o th    DCD    1752440943
        0x0000263c:    4f492065    e IO    DCD    1330192485
        0x00002640:    7571204d    M qu    DCD    1970348109
        0x00002644:    2c657565    eue,    DCD    744846693
        0x00002648:    20726f20     or     DCD    544370464
        0x0000264c:    6f6c6c61    allo    DCD    1869376609
        0x00002650:    74692077    w it    DCD    1953046647
        0x00002654:    726f6d20     mor    DCD    1919905056
        0x00002658:    6d697465    etim    DCD    1835627621
        0x0000265c:    6f742065    e to    DCD    1869881445
        0x00002660:    706d6520     emp    DCD    1886217504
        0x00002664:    62207974    ty b    DCD    1646295412
        0x00002668:    65777465    etwe    DCD    1702327397
        0x0000266c:    74206e65    en t    DCD    1948282469
        0x00002670:    736e6172    rans    DCD    1936613746
        0x00002674:    69746361    acti    DCD    1769235297
        0x00002678:    2e736e6f    ons.    DCD    779316847
        0x0000267c:    00000000    ....    DCD    0
    Region$$Table$$Base
        0x00002680:    000026a0    .&..    DCD    9888
        0x00002684:    10000000    ....    DCD    268435456
        0x00002688:    000000c8    ....    DCD    200
        0x0000268c:    000000dc    ....    DCD    220
        0x00002690:    00002768    h'..    DCD    10088
        0x00002694:    100000c8    ....    DCD    268435656
        0x00002698:    00001480    ....    DCD    5248
        0x0000269c:    000000f8    ....    DCD    248
    Region$$Table$$Limit

** Section #2 'SRAM' (SHT_PROGBITS) [SHF_ALLOC + SHF_WRITE]
    Size   : 200 bytes (alignment 4)
    Address: 0x10000000

    0x10000000:   00 3c 00 00 01 00 00 00 06 00 00 00 01 00 00 00    .<..............
    0x10000010:   00 09 00 00 00 00 00 3c 00 00 00 00 01 00 00 00    .......<........
    0x10000020:   78 00 00 00 78 00 00 00 00 01 00 00 00 00 00 00    x...x...........
    0x10000030:   00 00 00 00 00 00 00 00 00 00 00 00 c8 08 00 10    ................
    0x10000040:   00 00 00 00 00 00 00 00 00 00 00 00 00 00 00 00    ................
    0x10000050:   00 00 00 00 00 c2 01 00 60 00 00 00 00 00 00 00    ........`.......
    0x10000060:   00 00 00 00 00 00 00 00 00 00 00 00 00 00 00 00    ................
    0x10000070:   00 00 00 00 00 00 00 00 00 00 00 00 00 00 00 00    ................
    0x10000080:   00 00 00 00 00 00 00 00 00 68 00 bf 70 47 00 bf    .........h..pG..
    0x10000090:   4d 00 00 08 51 00 00 08 55 00 00 08 59 00 00 08    M...Q...U...Y...
    0x100000a0:   5d 00 00 08 61 00 00 08 65 00 00 08 69 00 00 08    ]...a...e...i...
    0x100000b0:   00 00 00 00 00 00 00 00 1d 0e 00 00 00 00 00 50    ...............P
    0x100000c0:   00 00 00 50 00 00 00 50                            ...P...P


** Section #3 'SRAM' (SHT_NOBITS) [SHF_ALLOC + SHF_WRITE]
    Size   : 5248 bytes (alignment 8)
    Address: 0x100000c8


** Section #4 '.debug_abbrev' (SHT_PROGBITS)
    Size   : 1476 bytes


** Section #5 '.debug_frame' (SHT_PROGBITS)
    Size   : 3440 bytes


** Section #6 '.debug_info' (SHT_PROGBITS)
    Size   : 21144 bytes


** Section #7 '.debug_line' (SHT_PROGBITS)
    Size   : 7936 bytes


** Section #8 '.debug_loc' (SHT_PROGBITS)
    Size   : 2412 bytes


** Section #9 '.debug_macinfo' (SHT_PROGBITS)
    Size   : 13980 bytes


** Section #10 '.debug_pubnames' (SHT_PROGBITS)
    Size   : 1871 bytes


** Section #11 '.symtab' (SHT_SYMTAB)
    Size   : 9792 bytes (alignment 4)
    String table #12 '.strtab'
    Last local symbol no. 391

    Symbol table .symtab (611 symbols, 391 local)

      #  Symbol Name                Value      Bind  Sec  Type  Vis  Size
    ========================================================================

      1  $d                         0x00000000   Lc    1   --   De 
      2  $t                         0x00000070   Lc    1   --   De 
      3  $d                         0x0000009a   Lc    1   --   De 
      4  $t                         0x000000a0   Lc    1   --   De 
      5  $d                         0x000000d4   Lc    1   --   De 
      6  $t                         0x000000dc   Lc    1   --   De 
      7  $d                         0x0000017e   Lc    1   --   De 
      8  $t                         0x0000018c   Lc    1   --   De 
      9  $d                         0x00000258   Lc    1   --   De 
     10  $t                         0x0000025c   Lc    1   --   De 
     11  $d                         0x00000264   Lc    1   --   De 
     12  $t                         0x00000268   Lc    1   --   De 
     13  $d                         0x00000380   Lc    1   --   De 
     14  $t                         0x0000038c   Lc    1   --   De 
     15  $d                         0x000003b2   Lc    1   --   De 
     16  $t                         0x000003b8   Lc    1   --   De 
     17  $d                         0x000003f4   Lc    1   --   De 
     18  $t                         0x000003f8   Lc    1   --   De 
     19  $d                         0x00000626   Lc    1   --   De 
     20  $t                         0x0000062c   Lc    1   --   De 
     21  $d                         0x000006c4   Lc    1   --   De 
     22  $t                         0x000006c8   Lc    1   --   De 
     23  $d                         0x0000071e   Lc    1   --   De 
     24  $t                         0x00000724   Lc    1   --   De 
     25  $d                         0x0000077a   Lc    1   --   De 
     26  $t                         0x00000780   Lc    1   --   De 
     27  $d                         0x000007ae   Lc    1   --   De 
     28  $t                         0x000007b4   Lc    1   --   De 
     29  $d                         0x0000084a   Lc    1   --   De 
     30  $t                         0x00000850   Lc    1   --   De 
     31  $d                         0x0000090a   Lc    1   --   De 
     32  $t                         0x00000914   Lc    1   --   De 
     33  $d                         0x00000932   Lc    1   --   De 
     34  $t                         0x0000093a   Lc    1   --   De 
     35  $d                         0x00000960   Lc    1   --   De 
     36  $t                         0x00000980   Lc    1   --   De 
     37  $d                         0x0000099a   Lc    1   --   De 
     38  $t                         0x000009a0   Lc    1   --   De 
     39  $d                         0x000009aa   Lc    1   --   De 
     40  $t                         0x000009b0   Lc    1   --   De 
     41  $d                         0x000009bc   Lc    1   --   De 
     42  $t                         0x000009c0   Lc    1   --   De 
     43  $d                         0x000009dc   Lc    1   --   De 
     44  $t                         0x000009e0   Lc    1   --   De 
     45  $d                         0x000009f8   Lc    1   --   De 
     46  $t                         0x000009fc   Lc    1   --   De 
     47  $d                         0x00000a42   Lc    1   --   De 
     48  $t                         0x00000a48   Lc    1   --   De 
     49  $d                         0x00000a9a   Lc    1   --   De 
     50  $t                         0x00000aa0   Lc    1   --   De 
     51  $d                         0x00000b16   Lc    1   --   De 
     52  $t                         0x00000b20   Lc    1   --   De 
     53  $d                         0x00000b80   Lc    1   --   De 
     54  $t                         0x00000b88   Lc    1   --   De 
     55  $d                         0x00000c10   Lc    1   --   De 
     56  $t                         0x00000c58   Lc    1   --   De 
     57  $d                         0x00000ce4   Lc    1   --   De 
     58  $t                         0x00000d28   Lc    1   --   De 
     59  $d                         0x00000e04   Lc    1   --   De 
     60  $t                         0x00000e1c   Lc    1   --   De 
     61  $d                         0x00000e6a   Lc    1   --   De 
     62  $t                         0x00000e70   Lc    1   --   De 
     63  $d                         0x00000f5a   Lc    1   --   De 
     64  $t                         0x00000f90   Lc    1   --   De 
     65  $d                         0x000010d2   Lc    1   --   De 
     66  $t                         0x00001110   Lc    1   --   De 
     67  $d                         0x000011a2   Lc    1   --   De 
     68  $t                         0x000011d4   Lc    1   --   De 
     69  $d                         0x0000128c   Lc    1   --   De 
     70  $t                         0x00001290   Lc    1   --   De 
     71  $d                         0x0000131e   Lc    1   --   De 
     72  $t                         0x00001328   Lc    1   --   De 
     73  $d                         0x00001364   Lc    1   --   De 
     74  $t                         0x00001368   Lc    1   --   De 
     75  $d                         0x0000138c   Lc    1   --   De 
     76  $t                         0x00001390   Lc    1   --   De 
     77  $d                         0x00001486   Lc    1   --   De 
     78  $t                         0x00001490   Lc    1   --   De 
     79  $d                         0x000014be   Lc    1   --   De 
     80  $t                         0x000014c4   Lc    1   --   De 
     81  $d                         0x000014e4   Lc    1   --   De 
     82  $t                         0x000014e8   Lc    1   --   De 
     83  $d                         0x00001536   Lc    1   --   De 
     84  $t                         0x0000153c   Lc    1   --   De 
     85  $d                         0x0000154c   Lc    1   --   De 
     86  $t                         0x00001550   Lc    1   --   De 
     87  $d                         0x0000155e   Lc    1   --   De 
     88  $t                         0x00001564   Lc    1   --   De 
     89  $d                         0x00001572   Lc    1   --   De 
     90  $t                         0x00001578   Lc    1   --   De 
     91  $d                         0x0000157e   Lc    1   --   De 
     92  $t                         0x00001584   Lc    1   --   De 
     93  $d                         0x0000158e   Lc    1   --   De 
     94  $t                         0x00001594   Lc    1   --   De 
     95  $d                         0x000015a0   Lc    1   --   De 
     96  $t                         0x000015a4   Lc    1   --   De 
     97  $d                         0x000015ac   Lc    1   --   De 
     98  $t                         0x000015b0   Lc    1   --   De 
     99  $d                         0x000015e2   Lc    1   --   De 
    100  $t                         0x000015ec   Lc    1   --   De 
    101  $d                         0x000016b0   Lc    1   --   De 
    102  $t                         0x000016d4   Lc    1   --   De 
    103  $d                         0x00001766   Lc    1   --   De 
    104  $t                         0x0000176c   Lc    1   --   De 
    105  $d                         0x000017ce   Lc    1   --   De 
    106  $t                         0x000017d6   Lc    1   --   De 
    107  $d                         0x000018d4   Lc    1   --   De 
    108  $t                         0x00001920   Lc    1   --   De 
    109  $d                         0x000019f4   Lc    1   --   De 
    110  $t                         0x000019f8   Lc    1   --   De 
    111  $d                         0x00001a28   Lc    1   --   De 
    112  $t                         0x00001a2c   Lc    1   --   De 
    113  $d                         0x00001aee   Lc    1   --   De 
    114  $t                         0x00001b14   Lc    1   --   De 
    115  $d                         0x00001bec   Lc    1   --   De 
    116  $t                         0x00001c10   Lc    1   --   De 
    117  $d                         0x00001ce6   Lc    1   --   De 
    118  $t                         0x00001cf0   Lc    1   --   De 
    119  $d                         0x00001db4   Lc    1   --   De 
    120  $t                         0x00001dbc   Lc    1   --   De 
    121  $d                         0x00001e00   Lc    1   --   De 
    122  $t                         0x00001e10   Lc    1   --   De 
    123  $d                         0x00001e4c   Lc    1   --   De 
    124  $t                         0x00001e58   Lc    1   --   De 
    125  $d                         0x00001f60   Lc    1   --   De 
    126  $t                         0x00001f70   Lc    1   --   De 
    127  $d                         0x00001f84   Lc    1   --   De 
    128  $t                         0x00001f88   Lc    1   --   De 
    129  $d                         0x0000211c   Lc    1   --   De 
    130  $t                         0x00002128   Lc    1   --   De 
    131  $d                         0x000021d8   Lc    1   --   De 
    132  $t                         0x000021fc   Lc    1   --   De 
    133  $d.realdata                0x00002208   Lc    1   --   De 
    134  $d.realdata                0x10000000   Lc    2   --   De 
    135  ../src/image_boot_handlers.c
                                    0x00000000   Lc  Abs  File  De 
    136  i.configure_spiflash_pins  0x000019f8   Lc    1  Sect  De 
    137  i.image_load_from_external_flash
                                    0x00001c10   Lc    1  Sect  De 
    138  i.image_load_from_internal_flash
                                    0x00001cf0   Lc    1  Sect  De 
    139  .bss                       0x100000c8   Lc    3  Sect  De   0x800
    140  .data                      0x10000000   Lc    2  Sect  De   0x18
    141  ../src/ios_boot_handlers.c 0x00000000   Lc  Abs  File  De 
    142  i.am_ioslave_acc_isr       0x000015b0   Lc    1  Sect  De 
    143  i.am_ioslave_ios_isr       0x000016d4   Lc    1  Sect  De 
    144  i.cleanup_ios_interface    0x0000193c   Lc    1  Sect  De 
    145  i.image_data_packet_read   0x00001a2c   Lc    1  Sect  De 
    146  image_data_packet_read     0x00001a2d   Lc    1  Code  De   0xc2
    147  i.image_start_packet_read  0x00001dbc   Lc    1  Sect  De 
    148  image_start_packet_read    0x00001dbd   Lc    1  Code  De   0x44
    149  i.setup_ios_interface      0x00001f88   Lc    1  Sect  De 
    150  .data                      0x10000018   Lc    2  Sect  De   0x1c
    151  g_sIOSConfig               0x1000001c   Lc    2  Data  De   0x18
    152  ../src/multi_boot.c        0x00000000   Lc  Abs  File  De 
    153  i.am_gpio_isr              0x00000850   Lc    1  Sect  De 
    154  i.main                     0x00001e58   Lc    1  Sect  De 
    155  .bss                       0x100008c8   Lc    3  Sect  De   0x8bc
    156  .data                      0x10000034   Lc    2  Sect  De   0x20
    157  ../src/uart_boot_handlers.c
                                    0x00000000   Lc  Abs  File  De 
    158  i.am_uart_isr              0x000016ec   Lc    1  Sect  De 
    159  i.image_data_packet_read   0x00001b14   Lc    1  Sect  De 
    160  image_data_packet_read     0x00001b15   Lc    1  Code  De   0xd8
    161  i.image_start_packet_read  0x00001e10   Lc    1  Sect  De 
    162  image_start_packet_read    0x00001e11   Lc    1  Code  De   0x3c
    163  i.ser_out                  0x00001f70   Lc    1  Sect  De 
    164  i.setup_serial             0x00002128   Lc    1  Sect  De 
    165  .bss                       0x10001184   Lc    3  Sect  De   0x100
    166  .data                      0x10000054   Lc    2  Sect  De   0x2a
    167  ..\..\..\..\..\utils\am_util_delay.c
                                    0x00000000   Lc  Abs  File  De 
    168  .emb_text                  0x00000140   Lc    1  Sect  De   0x6
    169  $v0                        0x00000140   Lc    1   --   De 
    170  ../../../../../utils/am_util_delay.c
                                    0x00000000   Lc  Abs  File  De 
    171  i.am_util_delay_ms         0x00001920   Lc    1  Sect  De 
    172  ../../../../../utils/am_util_stdio.c
                                    0x00000000   Lc  Abs  File  De 
    173  ..\..\..\..\..\devices\am_devices_spiflash.c
                                    0x00000000   Lc  Abs  File  De 
    174  i.am_devices_spiflash_init 0x000007a8   Lc    1  Sect  De 
    175  i.am_devices_spiflash_read 0x000007b4   Lc    1  Sect  De 
    176  .data                      0x10000080   Lc    2  Sect  De   0x4
    177  ..\..\..\..\..\bootloader\am_bootloader.c
                                    0x00000000   Lc  Abs  File  De 
    178  .emb_text                  0x00000148   Lc    1  Sect  De   0x14
    179  $v0                        0x00000148   Lc    1   --   De 
    180  ../../../../../bootloader/am_bootloader.c
                                    0x00000000   Lc  Abs  File  De 
    181  i.am_bootloader_boot_from_storage
                                    0x0000026c   Lc    1  Sect  De 
    182  i.am_bootloader_fast_crc32 0x0000038c   Lc    1  Sect  De 
    183  i.am_bootloader_flag_page_update
                                    0x000003b8   Lc    1  Sect  De 
    184  i.am_bootloader_flash_check
                                    0x000003f8   Lc    1  Sect  De 
    185  i.am_bootloader_image_check
                                    0x00000458   Lc    1  Sect  De 
    186  i.am_bootloader_new_image_check
                                    0x0000062c   Lc    1  Sect  De 
    187  i.am_bootloader_partial_crc32
                                    0x0000069c   Lc    1  Sect  De 
    188  .constdata                 0x00002208   Lc    1  Sect  De   0x400
    189  g_pui32CRC32Table          0x00002208   Lc    1  Data  De   0x400
    190  ../keil/startup_keil.s     0x00000000   Lc  Abs  File  De 
    191  STACK                      0x10001348   Lc    3  Sect  De   0x200
    192  StackMem                   0x10001348   Lc    3  Data  De 
    193  HEAP                       0x10001348   Lc    3  Sect  De 
    194  HeapMem                    0x10001348   Lc    3  Data  De 
    195  RESET                      0x00000000   Lc    1  Sect  De   0xa0
    196  $v0                        0x00000070   Lc    1   --   De 
    197  .text                      0x00000174   Lc    1  Sect  De   0x18
    198  $v0                        0x00000174   Lc    1   --   De 
    199  ../am_hal_global.c         0x00000000   Lc  Abs  File  De 
    200  .data                      0x10000084   Lc    2  Sect  De   0x4
    201  ../am_hal_clkgen.c         0x00000000   Lc  Abs  File  De 
    202  i.am_hal_clkgen_osc_stop   0x00000914   Lc    1  Sect  De 
    203  i.am_hal_clkgen_sysclk_get 0x00000920   Lc    1  Sect  De 
    204  i.am_hal_clkgen_sysclk_select
                                    0x00000980   Lc    1  Sect  De 
    205  ../am_hal_flash.c          0x00000000   Lc  Abs  File  De 
    206  i.am_hal_flash_page_erase  0x00000994   Lc    1  Sect  De 
    207  i.am_hal_flash_program_main
                                    0x000009a0   Lc    1  Sect  De 
    208  .data                      0x10000088   Lc    2  Sect  De   0x28
    209  ../am_hal_gpio.c           0x00000000   Lc  Abs  File  De 
    210  i.am_hal_gpio_int_clear    0x000009b0   Lc    1  Sect  De 
    211  i.am_hal_gpio_int_disable  0x000009c0   Lc    1  Sect  De 
    212  i.am_hal_gpio_int_enable   0x000009e0   Lc    1  Sect  De 
    213  ..\am_hal_interrupt.c      0x00000000   Lc  Abs  File  De 
    214  .emb_text                  0x0000015c   Lc    1  Sect  De   0x16
    215  $v0                        0x0000015c   Lc    1   --   De 
    216  ../am_hal_interrupt.c      0x00000000   Lc  Abs  File  De 
    217  i.am_hal_interrupt_enable  0x000009fc   Lc    1  Sect  De 
    218  ../am_hal_iom.c            0x00000000   Lc  Abs  File  De 
    219  i.am_hal_iom_config        0x00000a48   Lc    1  Sect  De 
    220  i.am_hal_iom_disable       0x00000aa0   Lc    1  Sect  De 
    221  i.am_hal_iom_enable        0x00000b20   Lc    1  Sect  De 
    222  i.am_hal_iom_fifo_read     0x00000b88   Lc    1  Sect  De 
    223  i.am_hal_iom_fifo_write    0x00000c58   Lc    1  Sect  De 
    224  i.am_hal_iom_queue_spi_read
                                    0x00000d28   Lc    1  Sect  De 
    225  i.am_hal_iom_sleeping_queue_flush
                                    0x00000e1c   Lc    1  Sect  De 
    226  i.am_hal_iom_spi_read      0x00000e70   Lc    1  Sect  De 
    227  i.am_hal_iom_spi_write     0x00000f90   Lc    1  Sect  De 
    228  i.am_hal_iom_spi_write_nb  0x00001110   Lc    1  Sect  De 
    229  .bss                       0x10001284   Lc    3  Sect  De   0x50
    230  .conststring               0x0000260c   Lc    1  Sect  De   0x71
    231  .data                      0x100000b0   Lc    2  Sect  De   0xc
    232  ../am_hal_ios.c            0x00000000   Lc  Abs  File  De 
    233  i.am_hal_ios_access_int_clear
                                    0x000011d4   Lc    1  Sect  De 
    234  i.am_hal_ios_access_int_enable
                                    0x000011de   Lc    1  Sect  De 
    235  i.am_hal_ios_access_int_status_get
                                    0x000011ee   Lc    1  Sect  De 
    236  i.am_hal_ios_config        0x00001204   Lc    1  Sect  De 
    237  i.am_hal_ios_fifo_service  0x00001290   Lc    1  Sect  De 
    238  i.am_hal_ios_int_clear     0x00001328   Lc    1  Sect  De 
    239  i.am_hal_ios_int_enable    0x00001332   Lc    1  Sect  De 
    240  i.am_hal_ios_int_status_get
                                    0x00001342   Lc    1  Sect  De 
    241  .bss                       0x100012d4   Lc    3  Sect  De   0x14
    242  .constdata                 0x00002608   Lc    1  Sect  De   0x4
    243  .data                      0x100000bc   Lc    2  Sect  De   0xc
    244  ../am_hal_mcuctrl.c        0x00000000   Lc  Abs  File  De 
    245  i.am_hal_mcuctrl_bandgap_disable
                                    0x00001358   Lc    1  Sect  De 
    246  i.am_hal_mcuctrl_bucks_enable
                                    0x00001368   Lc    1  Sect  De 
    247  ../am_hal_reset.c          0x00000000   Lc  Abs  File  De 
    248  i.am_hal_reset_poi         0x0000142e   Lc    1  Sect  De 
    249  ../am_hal_systick.c        0x00000000   Lc  Abs  File  De 
    250  i.am_hal_systick_count     0x00001490   Lc    1  Sect  De 
    251  i.am_hal_systick_load      0x00001498   Lc    1  Sect  De 
    252  i.am_hal_systick_start     0x000014a0   Lc    1  Sect  De 
    253  ../am_hal_uart.c           0x00000000   Lc  Abs  File  De 
    254  i.am_hal_uart_char_transmit_polled
                                    0x000014b0   Lc    1  Sect  De 
    255  i.am_hal_uart_clock_enable 0x000014c4   Lc    1  Sect  De 
    256  i.am_hal_uart_config       0x000014e8   Lc    1  Sect  De 
    257  i.am_hal_uart_disable      0x0000153c   Lc    1  Sect  De 
    258  i.am_hal_uart_enable       0x00001550   Lc    1  Sect  De 
    259  i.am_hal_uart_fifo_config  0x00001564   Lc    1  Sect  De 
    260  i.am_hal_uart_int_clear    0x00001578   Lc    1  Sect  De 
    261  i.am_hal_uart_int_enable   0x00001584   Lc    1  Sect  De 
    262  i.am_hal_uart_int_status_get
                                    0x00001594   Lc    1  Sect  De 
    263  ../am_bsp.c                0x00000000   Lc  Abs  File  De 
    264  i.am_bsp_iom_spi_pins_disable
                                    0x000006c8   Lc    1  Sect  De 
    265  i.am_bsp_iom_spi_pins_enable
                                    0x00000724   Lc    1  Sect  De 
    266  i.am_bsp_low_power_init    0x00000780   Lc    1  Sect  De 
    267  ../am_hal_debug.c          0x00000000   Lc  Abs  File  De 
    268  i.am_hal_debug_error       0x00000990   Lc    1  Sect  De 
    269  ../am_hal_i2c_bit_bang.c   0x00000000   Lc  Abs  File  De 
    270  ..\am_hal_itm.c            0x00000000   Lc  Abs  File  De 
    271  ../am_hal_itm.c            0x00000000   Lc  Abs  File  De 
    272  ../am_hal_queue.c          0x00000000   Lc  Abs  File  De 
    273  i.am_hal_queue_item_add    0x00001390   Lc    1  Sect  De 
    274  ../am_hal_rtc.c            0x00000000   Lc  Abs  File  De 
    275  i.am_hal_rtc_osc_disable   0x00001438   Lc    1  Sect  De 
    276  i.am_hal_rtc_osc_select    0x00001446   Lc    1  Sect  De 
    277  ../am_hal_sysctrl.c        0x00000000   Lc  Abs  File  De 
    278  i.am_hal_sysctrl_sleep     0x0000145c   Lc    1  Sect  De 
    279  ../am_hal_tpiu.c           0x00000000   Lc  Abs  File  De 
    280  ../am_hal_vcomp.c          0x00000000   Lc  Abs  File  De 
    281  i.am_hal_vcomp_disable     0x000015a4   Lc    1  Sect  De 
    282  dc.s                       0x00000000   Lc  Abs  File  De 
    283  ../clib/memcpset.s         0x00000000   Lc  Abs  File  De 
    284  .text                      0x0000018c   Lc    1  Sect  De   0x64
    285  ../clib/heapaux.c          0x00000000   Lc  Abs  File  De 
    286  .text                      0x000001f0   Lc    1  Sect  De 
    287  ../clib/angel/startup.s    0x00000000   Lc  Abs  File  De 
    288  !!!main                    0x000000a0   Lc    1  Sect  De   0x8
    289  ../fplib/d2f.s             0x00000000   Lc  Abs  File  De 
    290  ../clib/angel/kernel.s     0x00000000   Lc  Abs  File  De 
    291  .ARM.Collect$$rtentry$$00000000
                                    0x00000120   Lc    1  Sect  De 
    292  ../fplib/dnaninf.s         0x00000000   Lc  Abs  File  De 
    293  ../fplib/fretinf.s         0x00000000   Lc  Abs  File  De 
    294  ../fplib/usenofp.s         0x00000000   Lc  Abs  File  De 
    295  ../clib/angel/kernel.s     0x00000000   Lc  Abs  File  De 
    296  .ARM.Collect$$rtentry$$00000002
                                    0x00000120   Lc    1  Sect  De 
    297  .ARM.Collect$$rtentry$$00000009
                                    0x00000126   Lc    1  Sect  De 
    298  .ARM.Collect$$rtentry$$0000000A
                                    0x00000126   Lc    1  Sect  De   0x4
    299  .ARM.Collect$$rtentry$$0000000C
                                    0x0000012a   Lc    1  Sect  De 
    300  .ARM.Collect$$rtentry$$0000000D
                                    0x0000012a   Lc    1  Sect  De   0x8
    301  ../clib/angel/kernel.s     0x00000000   Lc  Abs  File  De 
    302  .ARM.Collect$$rtentry$$00000004
                                    0x00000120   Lc    1  Sect  De   0x6
    303  ../clib/angel/sys.s        0x00000000   Lc  Abs  File  De 
    304  .text                      0x000001f6   Lc    1  Sect  De   0x4a
    305  ../clib/stdlib.c           0x00000000   Lc  Abs  File  De 
    306  .text                      0x00000240   Lc    1  Sect  De 
    307  ../clib/angel/boardlib.s   0x00000000   Lc  Abs  File  De 
    308  ../clib/angel/boardlib.s   0x00000000   Lc  Abs  File  De 
    309  ../clib/angel/boardlib.s   0x00000000   Lc  Abs  File  De 
    310  ../clib/libinit.s          0x00000000   Lc  Abs  File  De 
    311  .ARM.Collect$$libinit$$00000000
                                    0x00000114   Lc    1  Sect  De   0x2
    312  ../clib/angel/sys.s        0x00000000   Lc  Abs  File  De 
    313  .text                      0x00000254   Lc    1  Sect  De   0x8
    314  .bss                       0x100012e8   Lc    3  Sect  De   0x60
    315  ../clib/angel/kernel.s     0x00000000   Lc  Abs  File  De 
    316  .ARM.Collect$$rtexit$$00000000
                                    0x00000132   Lc    1  Sect  De   0x2
    317  ../clib/libinit.s          0x00000000   Lc  Abs  File  De 
    318  .ARM.Collect$$libinit$$00000001
                                    0x00000116   Lc    1  Sect  De   0x4
    319  .ARM.Collect$$libinit$$00000004
                                    0x0000011a   Lc    1  Sect  De 
    320  .ARM.Collect$$libinit$$0000000A
                                    0x0000011a   Lc    1  Sect  De 
    321  .ARM.Collect$$libinit$$0000000C
                                    0x0000011a   Lc    1  Sect  De 
    322  .ARM.Collect$$libinit$$0000000E
                                    0x0000011a   Lc    1  Sect  De 
    323  .ARM.Collect$$libinit$$00000011
                                    0x0000011a   Lc    1  Sect  De 
    324  .ARM.Collect$$libinit$$00000013
                                    0x0000011a   Lc    1  Sect  De 
    325  .ARM.Collect$$libinit$$00000015
                                    0x0000011a   Lc    1  Sect  De 
    326  .ARM.Collect$$libinit$$00000017
                                    0x0000011a   Lc    1  Sect  De 
    327  .ARM.Collect$$libinit$$00000019
                                    0x0000011a   Lc    1  Sect  De 
    328  .ARM.Collect$$libinit$$0000001B
                                    0x0000011a   Lc    1  Sect  De 
    329  .ARM.Collect$$libinit$$0000001D
                                    0x0000011a   Lc    1  Sect  De 
    330  .ARM.Collect$$libinit$$0000001F
                                    0x0000011a   Lc    1  Sect  De 
    331  .ARM.Collect$$libinit$$00000021
                                    0x0000011a   Lc    1  Sect  De 
    332  .ARM.Collect$$libinit$$00000023
                                    0x0000011a   Lc    1  Sect  De 
    333  .ARM.Collect$$libinit$$00000025
                                    0x0000011a   Lc    1  Sect  De 
    334  .ARM.Collect$$libinit$$0000002C
                                    0x0000011a   Lc    1  Sect  De 
    335  .ARM.Collect$$libinit$$0000002E
                                    0x0000011a   Lc    1  Sect  De 
    336  .ARM.Collect$$libinit$$00000030
                                    0x0000011a   Lc    1  Sect  De 
    337  .ARM.Collect$$libinit$$00000032
                                    0x0000011a   Lc    1  Sect  De 
    338  .ARM.Collect$$libinit$$00000033
                                    0x0000011a   Lc    1  Sect  De   0x2
    339  ../clib/angel/kernel.s     0x00000000   Lc  Abs  File  De 
    340  .ARM.Collect$$rtexit$$00000002
                                    0x00000134   Lc    1  Sect  De 
    341  .ARM.Collect$$rtexit$$00000003
                                    0x00000134   Lc    1  Sect  De   0x4
    342  .ARM.Collect$$rtexit$$00000004
                                    0x00000138   Lc    1  Sect  De   0x6
    343  ../clib/armsys.c           0x00000000   Lc  Abs  File  De 
    344  ../clib/armsys.c           0x00000000   Lc  Abs  File  De 
    345  ../fplib/fpinit.s          0x00000000   Lc  Abs  File  De 
    346  x$fpl$fpinit               0x000021fc   Lc    1  Sect  De   0xa
    347  $v0                        0x000021fc   Lc    1   --   De 
    348  ../clib/angel/sysapp.c     0x00000000   Lc  Abs  File  De 
    349  .text                      0x0000025c   Lc    1  Sect  De 
    350  ../clib/angel/boardlib.s   0x00000000   Lc  Abs  File  De 
    351  ../clib/armsys.c           0x00000000   Lc  Abs  File  De 
    352  ../clib/armsys.c           0x00000000   Lc  Abs  File  De 
    353  ../clib/libinit.s          0x00000000   Lc  Abs  File  De 
    354  .ARM.Collect$$libshutdown$$00000000
                                    0x0000011c   Lc    1  Sect  De   0x2
    355  ../clib/angel/sysapp.c     0x00000000   Lc  Abs  File  De 
    356  ../clib/angel/sys.s        0x00000000   Lc  Abs  File  De 
    357  .text                      0x00000268   Lc    1  Sect  De   0x2
    358  ../clib/angel/sys.s        0x00000000   Lc  Abs  File  De 
    359  .text                      0x0000026a   Lc    1  Sect  De 
    360  ../clib/heapalloc.c        0x00000000   Lc  Abs  File  De 
    361  ../clib/signal.c           0x00000000   Lc  Abs  File  De 
    362  ../clib/signal.c           0x00000000   Lc  Abs  File  De 
    363  ../clib/libinit.s          0x00000000   Lc  Abs  File  De 
    364  .ARM.Collect$$libshutdown$$00000002
                                    0x0000011e   Lc    1  Sect  De 
    365  .ARM.Collect$$libshutdown$$00000004
                                    0x0000011e   Lc    1  Sect  De 
    366  .ARM.Collect$$libshutdown$$00000007
                                    0x0000011e   Lc    1  Sect  De 
    367  .ARM.Collect$$libshutdown$$0000000A
                                    0x0000011e   Lc    1  Sect  De 
    368  .ARM.Collect$$libshutdown$$0000000C
                                    0x0000011e   Lc    1  Sect  De 
    369  .ARM.Collect$$libshutdown$$0000000F
                                    0x0000011e   Lc    1  Sect  De 
    370  .ARM.Collect$$libshutdown$$00000010
                                    0x0000011e   Lc    1  Sect  De   0x2
    371  ../clib/angel/rt.s         0x00000000   Lc  Abs  File  De 
    372  ../clib/signal.c           0x00000000   Lc  Abs  File  De 
    373  ../clib/signal.c           0x00000000   Lc  Abs  File  De 
    374  ../clib/signal.c           0x00000000   Lc  Abs  File  De 
    375  ../clib/signal.c           0x00000000   Lc  Abs  File  De 
    376  ../clib/angel/sysapp.c     0x00000000   Lc  Abs  File  De 
    377  ../clib/signal.s           0x00000000   Lc  Abs  File  De 
    378  ../clib/signal.c           0x00000000   Lc  Abs  File  De 
    379  ../clib/signal.c           0x00000000   Lc  Abs  File  De 
    380  ../clib/signal.c           0x00000000   Lc  Abs  File  De 
    381  ../clib/signal.c           0x00000000   Lc  Abs  File  De 
    382  ../clib/signal.c           0x00000000   Lc  Abs  File  De 
    383  ../clib/signal.c           0x00000000   Lc  Abs  File  De 
    384  ../clib/signal.c           0x00000000   Lc  Abs  File  De 
    385  ../clib/signal.c           0x00000000   Lc  Abs  File  De 
    386  ../clib/angel/scatter.s    0x00000000   Lc  Abs  File  De 
    387  !!!scatter                 0x000000a8   Lc    1  Sect  De   0x34
    388  ../clib/angel/handlers.s   0x00000000   Lc  Abs  File  De 
    389  !!handler_copy             0x000000dc   Lc    1  Sect  De   0x1a
    390  ../clib/angel/handlers.s   0x00000000   Lc  Abs  File  De 
    391  !!handler_zi               0x000000f8   Lc    1  Sect  De   0x1c
    392  BuildAttributes$$THM_ISAv4$E$P$D$K$B$S$7EM$VFPi3$EXTD16$VFPS$VFMA$PE$A:L22UL41UL21$X:L11$S22US41US21$IEEE1$IW$USESV6$~STKCKD$USESV7$~SHL$OTIME$ROPI$EBA8$UX$STANDARDLIB$REQ8$EABIv2
                                    0x00000000   Gb  Abs   --   Hi 
    393  __ARM_use_no_argv          0x00000000   Gb  Abs   --   Hi 
    394  __Vectors                  0x00000000   Gb    1  Data  Hi 
    395  Reset_Handler              0x00000071   Wk    1  Code  Hi   0x1c
    396  am_nmi_isr                 0x0000008d   Wk    1  Code  Hi   0x2
    397  am_fault_isr               0x0000008f   Wk    1  Code  Hi   0x2
    398  am_memmanage_isr           0x00000091   Wk    1  Code  Hi   0x2
    399  am_mpufault_isr            0x00000093   Wk    1  Code  Hi   0x2
    400  am_busfault_isr            0x00000095   Wk    1  Code  Hi   0x2
    401  am_usagefault_isr          0x00000097   Wk    1  Code  Hi   0x2
    402  am_adc_isr                 0x00000099   Wk    1  Code  Hi 
    403  am_brownout_isr            0x00000099   Wk    1  Code  Hi 
    404  am_clkgen_isr              0x00000099   Wk    1  Code  Hi 
    405  am_ctimer_isr              0x00000099   Wk    1  Code  Hi 
    406  am_debugmon_isr            0x00000099   Wk    1  Code  Hi 
    407  am_iomaster0_isr           0x00000099   Wk    1  Code  Hi 
    408  am_iomaster1_isr           0x00000099   Wk    1  Code  Hi 
    409  am_pendsv_isr              0x00000099   Wk    1  Code  Hi 
    410  am_svcall_isr              0x00000099   Wk    1  Code  Hi 
    411  am_systick_isr             0x00000099   Wk    1  Code  Hi 
    412  am_vcomp_isr               0x00000099   Wk    1  Code  Hi 
    413  am_watchdog_isr            0x00000099   Wk    1  Code  Hi 
    414  __main                     0x000000a1   Gb    1  Code  Hi   0x8
    415  __scatterload              0x000000a9   Gb    1  Code  Hi 
    416  __scatterload_rt2          0x000000a9   Gb    1  Code  Hi   0x2c
    417  __scatterload_rt2_thumb_only
                                    0x000000a9   Gb    1  Code  Hi 
    418  __scatterload_null         0x000000b7   Gb    1  Code  Hi 
    419  __scatterload_copy         0x000000dd   Gb    1  Code  Hi   0x1a
    420  __scatterload_zeroinit     0x000000f9   Gb    1  Code  Hi   0x1c
    421  __rt_lib_init              0x00000115   Gb    1  Code  De 
    422  __rt_lib_init_fp_1         0x00000117   Gb    1  Code  Hi 
    423  __rt_lib_init_alloca_1     0x0000011b   Gb    1  Code  Hi 
    424  __rt_lib_init_argv_1       0x0000011b   Gb    1  Code  Hi 
    425  __rt_lib_init_atexit_1     0x0000011b   Gb    1  Code  Hi 
    426  __rt_lib_init_clock_1      0x0000011b   Gb    1  Code  Hi 
    427  __rt_lib_init_cpp_1        0x0000011b   Gb    1  Code  Hi 
    428  __rt_lib_init_exceptions_1 0x0000011b   Gb    1  Code  Hi 
    429  __rt_lib_init_fp_trap_1    0x0000011b   Gb    1  Code  Hi 
    430  __rt_lib_init_getenv_1     0x0000011b   Gb    1  Code  Hi 
    431  __rt_lib_init_heap_1       0x0000011b   Gb    1  Code  Hi 
    432  __rt_lib_init_lc_collate_1 0x0000011b   Gb    1  Code  Hi 
    433  __rt_lib_init_lc_ctype_1   0x0000011b   Gb    1  Code  Hi 
    434  __rt_lib_init_lc_monetary_1
                                    0x0000011b   Gb    1  Code  Hi 
    435  __rt_lib_init_lc_numeric_1 0x0000011b   Gb    1  Code  Hi 
    436  __rt_lib_init_lc_time_1    0x0000011b   Gb    1  Code  Hi 
    437  __rt_lib_init_preinit_1    0x0000011b   Gb    1  Code  Hi 
    438  __rt_lib_init_rand_1       0x0000011b   Gb    1  Code  Hi 
    439  __rt_lib_init_return       0x0000011b   Gb    1  Code  Hi 
    440  __rt_lib_init_signal_1     0x0000011b   Gb    1  Code  Hi 
    441  __rt_lib_init_stdio_1      0x0000011b   Gb    1  Code  Hi 
    442  __rt_lib_init_user_alloc_1 0x0000011b   Gb    1  Code  Hi 
    443  __rt_lib_shutdown          0x0000011d   Gb    1  Code  De 
    444  __rt_lib_shutdown_cpp_1    0x0000011f   Gb    1  Code  Hi 
    445  __rt_lib_shutdown_fp_trap_1
                                    0x0000011f   Gb    1  Code  Hi 
    446  __rt_lib_shutdown_heap_1   0x0000011f   Gb    1  Code  Hi 
    447  __rt_lib_shutdown_return   0x0000011f   Gb    1  Code  Hi 
    448  __rt_lib_shutdown_signal_1 0x0000011f   Gb    1  Code  Hi 
    449  __rt_lib_shutdown_stdio_1  0x0000011f   Gb    1  Code  Hi 
    450  __rt_lib_shutdown_user_alloc_1
                                    0x0000011f   Gb    1  Code  Hi 
    451  __rt_entry                 0x00000121   Gb    1  Code  Hi 
    452  __rt_entry_presh_1         0x00000121   Gb    1  Code  Hi 
    453  __rt_entry_sh              0x00000121   Gb    1  Code  Hi 
    454  __rt_entry_li              0x00000127   Gb    1  Code  Hi 
    455  __rt_entry_postsh_1        0x00000127   Gb    1  Code  Hi 
    456  __rt_entry_main            0x0000012b   Gb    1  Code  Hi 
    457  __rt_entry_postli_1        0x0000012b   Gb    1  Code  Hi 
    458  __rt_exit                  0x00000133   Gb    1  Code  De 
    459  __rt_exit_ls               0x00000135   Gb    1  Code  Hi 
    460  __rt_exit_prels_1          0x00000135   Gb    1  Code  Hi 
    461  __rt_exit_exit             0x00000139   Gb    1  Code  Hi 
    462  am_util_delay_cycles       0x00000141   Gb    1  Code  Hi   0x6
    463  am_bootloader_image_run    0x00000149   Gb    1  Code  Hi   0x14
    464  am_hal_interrupt_master_enable
                                    0x0000015d   Gb    1  Code  Hi   0x8
    465  am_hal_interrupt_master_disable
                                    0x00000165   Gb    1  Code  Hi   0x8
    466  am_hal_interrupt_master_set
                                    0x0000016d   Gb    1  Code  Hi   0x6
    467  __user_initial_stackheap   0x00000175   Gb    1  Code  Hi   0xa
    468  __aeabi_memcpy4            0x0000018d   Gb    1  Code  Hi 
    469  __aeabi_memcpy8            0x0000018d   Gb    1  Code  De 
    470  __rt_memcpy_w              0x0000018d   Gb    1  Code  De   0x64
    471  _memcpy_lastbytes_aligned  0x000001d5   Gb    1  Code  De 
    472  __use_two_region_memory    0x000001f1   Gb    1  Code  Hi   0x2
    473  __rt_heap_escrow$2region   0x000001f3   Gb    1  Code  De   0x2
    474  __rt_heap_expand$2region   0x000001f5   Gb    1  Code  De   0x2
    475  __user_setup_stackheap     0x000001f7   Gb    1  Code  De   0x4a
    476  exit                       0x00000241   Gb    1  Code  De   0x12
    477  __user_libspace            0x00000255   Wk    1  Code  De   0x8
    478  __user_perproc_libspace    0x00000255   Wk    1  Code  De 
    479  __user_perthread_libspace  0x00000255   Wk    1  Code  De 
    480  _sys_exit                  0x0000025d   Gb    1  Code  De   0x8
    481  __I$use$semihosting        0x00000269   Gb    1  Code  Hi 
    482  __use_no_semihosting_swi   0x00000269   Gb    1  Code  Hi   0x2
    483  __semihosting_library_function
                                    0x0000026b   Gb    1  Code  Hi 
    484  am_bootloader_boot_from_storage
                                    0x0000026d   Gb    1  Code  Hi   0x114
    485  am_bootloader_fast_crc32   0x0000038d   Gb    1  Code  Hi   0x26
    486  am_bootloader_flag_page_update
                                    0x000003b9   Gb    1  Code  Hi   0x3c
    487  am_bootloader_flash_check  0x000003f9   Gb    1  Code  Hi   0x60
    488  am_bootloader_image_check  0x00000459   Gb    1  Code  Hi   0x1ce
    489  am_bootloader_new_image_check
                                    0x0000062d   Gb    1  Code  Hi   0x6e
    490  am_bootloader_partial_crc32
                                    0x0000069d   Gb    1  Code  Hi   0x28
    491  am_bsp_iom_spi_pins_disable
                                    0x000006c9   Gb    1  Code  Hi   0x56
    492  am_bsp_iom_spi_pins_enable 0x00000725   Gb    1  Code  Hi   0x56
    493  am_bsp_low_power_init      0x00000781   Gb    1  Code  Hi   0x28
    494  am_devices_spiflash_init   0x000007a9   Gb    1  Code  Hi   0x6
    495  am_devices_spiflash_read   0x000007b5   Gb    1  Code  Hi   0x96
    496  am_gpio_isr                0x00000851   Gb    1  Code  Hi   0xba
    497  am_hal_clkgen_osc_stop     0x00000915   Gb    1  Code  Hi   0xc
    498  am_hal_clkgen_sysclk_get   0x00000921   Gb    1  Code  Hi   0x40
    499  am_hal_clkgen_sysclk_select
                                    0x00000981   Gb    1  Code  Hi   0x10
    500  am_hal_debug_error         0x00000991   Wk    1  Code  Hi   0x2
    501  am_hal_flash_page_erase    0x00000995   Gb    1  Code  Hi   0x6
    502  am_hal_flash_program_main  0x000009a1   Gb    1  Code  Hi   0xa
    503  am_hal_gpio_int_clear      0x000009b1   Gb    1  Code  Hi   0xc
    504  am_hal_gpio_int_disable    0x000009c1   Gb    1  Code  Hi   0x1c
    505  am_hal_gpio_int_enable     0x000009e1   Gb    1  Code  Hi   0x18
    506  am_hal_interrupt_enable    0x000009fd   Gb    1  Code  Hi   0x46
    507  am_hal_iom_config          0x00000a49   Gb    1  Code  Hi   0x52
    508  am_hal_iom_disable         0x00000aa1   Gb    1  Code  Hi   0x76
    509  am_hal_iom_enable          0x00000b21   Gb    1  Code  Hi   0x60
    510  am_hal_iom_fifo_read       0x00000b89   Gb    1  Code  Hi   0x88
    511  am_hal_iom_fifo_write      0x00000c59   Gb    1  Code  Hi   0x8c
    512  am_hal_iom_queue_spi_read  0x00000d29   Gb    1  Code  Hi   0xdc
    513  am_hal_iom_sleeping_queue_flush
                                    0x00000e1d   Gb    1  Code  Hi   0x4e
    514  am_hal_iom_spi_read        0x00000e71   Gb    1  Code  Hi   0xea
    515  am_hal_iom_spi_write       0x00000f91   Gb    1  Code  Hi   0x142
    516  am_hal_iom_spi_write_nb    0x00001111   Gb    1  Code  Hi   0x92
    517  am_hal_ios_access_int_clear
                                    0x000011d5   Gb    1  Code  Hi   0xa
    518  am_hal_ios_access_int_enable
                                    0x000011df   Gb    1  Code  Hi   0x10
    519  am_hal_ios_access_int_status_get
                                    0x000011ef   Gb    1  Code  Hi   0x14
    520  am_hal_ios_config          0x00001205   Gb    1  Code  Hi   0x88
    521  am_hal_ios_fifo_service    0x00001291   Gb    1  Code  Hi   0x8e
    522  am_hal_ios_int_clear       0x00001329   Gb    1  Code  Hi   0xa
    523  am_hal_ios_int_enable      0x00001333   Gb    1  Code  Hi   0x10
    524  am_hal_ios_int_status_get  0x00001343   Gb    1  Code  Hi   0x14
    525  am_hal_mcuctrl_bandgap_disable
                                    0x00001359   Gb    1  Code  Hi   0xc
    526  am_hal_mcuctrl_bucks_enable
                                    0x00001369   Gb    1  Code  Hi   0x24
    527  am_hal_queue_item_add      0x00001391   Gb    1  Code  Hi   0x9e
    528  am_hal_reset_poi           0x0000142f   Gb    1  Code  Hi   0xa
    529  am_hal_rtc_osc_disable     0x00001439   Gb    1  Code  Hi   0xe
    530  am_hal_rtc_osc_select      0x00001447   Gb    1  Code  Hi   0x16
    531  am_hal_sysctrl_sleep       0x0000145d   Gb    1  Code  Hi   0x2a
    532  am_hal_systick_count       0x00001491   Gb    1  Code  Hi   0x8
    533  am_hal_systick_load        0x00001499   Gb    1  Code  Hi   0x8
    534  am_hal_systick_start       0x000014a1   Gb    1  Code  Hi   0xe
    535  am_hal_uart_char_transmit_polled
                                    0x000014b1   Gb    1  Code  Hi   0xe
    536  am_hal_uart_clock_enable   0x000014c5   Gb    1  Code  Hi   0x20
    537  am_hal_uart_config         0x000014e9   Gb    1  Code  Hi   0x4e
    538  am_hal_uart_disable        0x0000153d   Gb    1  Code  Hi   0x10
    539  am_hal_uart_enable         0x00001551   Gb    1  Code  Hi   0xe
    540  am_hal_uart_fifo_config    0x00001565   Gb    1  Code  Hi   0xe
    541  am_hal_uart_int_clear      0x00001579   Gb    1  Code  Hi   0x6
    542  am_hal_uart_int_enable     0x00001585   Gb    1  Code  Hi   0xa
    543  am_hal_uart_int_status_get 0x00001595   Gb    1  Code  Hi   0xc
    544  am_hal_vcomp_disable       0x000015a5   Gb    1  Code  Hi   0x8
    545  am_ioslave_acc_isr         0x000015b1   Gb    1  Code  Hi   0x100
    546  am_ioslave_ios_isr         0x000016d5   Gb    1  Code  Hi   0x18
    547  am_uart_isr                0x000016ed   Gb    1  Code  Hi   0x1e8
    548  am_util_delay_ms           0x00001921   Gb    1  Code  Hi   0x1c
    549  cleanup_ios_interface      0x0000193d   Gb    1  Code  Hi   0xb8
    550  configure_spiflash_pins    0x000019f9   Gb    1  Code  Hi   0x30
    551  image_load_from_external_flash
                                    0x00001c11   Gb    1  Code  Hi   0xd6
    552  image_load_from_internal_flash
                                    0x00001cf1   Gb    1  Code  Hi   0xc4
    553  main                       0x00001e59   Gb    1  Code  Hi   0x108
    554  ser_out                    0x00001f71   Gb    1  Code  Hi   0x14
    555  setup_ios_interface        0x00001f89   Gb    1  Code  Hi   0x194
    556  setup_serial               0x00002129   Gb    1  Code  Hi   0xb0
    557  _fp_init                   0x000021fd   Gb    1  Code  De   0xa
    558  __fplib_config_fpu_vfp     0x00002205   Gb    1  Code  De 
    559  __fplib_config_pureend_doubles
                                    0x00002205   Gb    1  Code  De 
    560  am_hal_ios_pui8LRAM        0x00002608   Gb    1  Data  Hi   0x4
    561  Region$$Table$$Base        0x00002680   Gb    1   --   Hi 
    562  Region$$Table$$Limit       0x000026a0   Gb    1   --   Hi 
    563  g_psBootImage              0x10000000   Gb    2  Data  Hi   0x4
    564  g_sSpiFlash                0x10000004   Gb    2  Data  Hi   0x8
    565  g_sIOMConfig               0x1000000c   Gb    2  Data  Hi   0xc
    566  g_bIOSActive               0x10000018   Gb    2  Data  Hi   0x1
    567  g_pui8TxBuffer             0x10000034   Gb    2  Data  Hi   0x8
    568  g_pui8RxBuffer             0x1000003c   Gb    2  Data  Hi   0x4
    569  g_ui32BytesInBuffer        0x10000040   Gb    2  Data  Hi   0x4
    570  g_pui32WriteAddress        0x10000044   Gb    2  Data  Hi   0x4
    571  g_ui32BytesReceived        0x10000048   Gb    2  Data  Hi   0x4
    572  g_bImageValid              0x1000004c   Gb    2  Data  Hi   0x1
    573  g_ui32CRC                  0x10000050   Gb    2  Data  Hi   0x4
    574  g_sUartConfig              0x10000054   Gb    2  Data  Hi   0x14
    575  ui32_serial_status         0x10000068   Gb    2  Data  Hi   0x4
    576  cRecChar                   0x1000006c   Gb    2  Data  Hi   0x1
    577  RX_FIFO_FULL               0x1000006d   Gb    2  Data  Hi   0x1
    578  RX_FIFO_EMPTY              0x1000006e   Gb    2  Data  Hi   0x1
    579  uart_RX_cnt                0x1000006f   Gb    2  Data  Hi   0x1
    580  uart_RX_head               0x10000070   Gb    2  Data  Hi   0x1
    581  uart_RX_tail               0x10000071   Gb    2  Data  Hi   0x1
    582  cTxChar                    0x10000072   Gb    2  Data  Hi   0x1
    583  TX_FIFO_FULL               0x10000073   Gb    2  Data  Hi   0x1
    584  TX_FIFO_EMPTY              0x10000074   Gb    2  Data  Hi   0x1
    585  uart_TX_cnt                0x10000075   Gb    2  Data  Hi   0x1
    586  uart_TX_head               0x10000076   Gb    2  Data  Hi   0x1
    587  uart_TX_tail               0x10000077   Gb    2  Data  Hi   0x1
    588  command                    0x10000078   Gb    2  Data  Hi   0x4
    589  packet_cnt                 0x1000007c   Gb    2  Data  Hi   0x1
    590  pkt_size                   0x1000007d   Gb    2  Data  Hi   0x1
    591  g_psIOMSettings            0x10000080   Gb    2  Data  Hi   0x4
    592  g_ui32HALflags             0x10000084   Gb    2  Data  Hi   0x4
    593  SRAM_load_ui32             0x10000088   Gb    2  Data  Hi   0x8
    594  g_am_hal_flash             0x10000090   Gb    2  Data  Hi   0x20
    595  g_ui32Mod0Interface        0x100000b0   Gb    2  Data  Hi   0x4
    596  g_ui32Mod1Interface        0x100000b4   Gb    2  Data  Hi   0x4
    597  am_hal_iom_queue_flush     0x100000b8   Gb    2  Data  Hi   0x4
    598  g_pui8FIFOBase             0x100000bc   Gb    2  Data  Hi   0x4
    599  g_pui8FIFOEnd              0x100000c0   Gb    2  Data  Hi   0x4
    600  g_pui8FIFOPtr              0x100000c4   Gb    2  Data  Hi   0x4
    601  g_ui32FlashLoadingBuffer   0x100000c8   Gb    3  Data  Hi   0x800
    602  g_pui32RxBuffer            0x100008c8   Gb    3  Data  Hi   0x800
    603  g_TestArray                0x100010c8   Gb    3  Data  Hi   0x80
    604  g_sImage                   0x10001148   Gb    3  Data  Hi   0x3c
    605  uart_RX_buffer             0x10001184   Gb    3  Data  Hi   0x80
    606  uart_TX_buffer             0x10001204   Gb    3  Data  Hi   0x80
    607  g_psIOMBuffers             0x10001284   Gb    3  Data  Hi   0x20
    608  g_psIOMQueue               0x100012a4   Gb    3  Data  Hi   0x30
    609  g_sSRAMBuffer              0x100012d4   Gb    3  Data  Hi   0x14
    610  __libspace_start           0x100012e8   Gb    3  Data  De   0x60
    611  __temporary_stack_top$libspace
                                    0x10001348   Gb    3  Data  De 


** Section #12 '.strtab' (SHT_STRTAB)
    Size   : 9160 bytes

            #  Offset String
        ====================================

            1      1: $d
            2      4: $t
            3      7: $d.realdata
            4     19: ../src/image_boot_handlers.c
            5     48: i.configure_spiflash_pins
            6     74: i.image_load_from_external_flash
            7    107: i.image_load_from_internal_flash
            8    140: .bss
            9    145: .data
           10    151: ../src/ios_boot_handlers.c
           11    178: i.am_ioslave_acc_isr
           12    199: i.am_ioslave_ios_isr
           13    220: i.cleanup_ios_interface
           14    244: i.image_data_packet_read
           15    269: image_data_packet_read
           16    292: i.image_start_packet_read
           17    318: image_start_packet_read
           18    342: i.setup_ios_interface
           19    364: g_sIOSConfig
           20    377: ../src/multi_boot.c
           21    397: i.am_gpio_isr
           22    411: i.main
           23    418: ../src/uart_boot_handlers.c
           24    446: i.am_uart_isr
           25    460: i.ser_out
           26    470: i.setup_serial
           27    485: ..\..\..\..\..\utils\am_util_delay.c
           28    522: .emb_text
           29    532: $v0
           30    536: ../../../../../utils/am_util_delay.c
           31    573: i.am_util_delay_ms
           32    592: ../../../../../utils/am_util_stdio.c
           33    629: ..\..\..\..\..\devices\am_devices_spiflash.c
           34    674: i.am_devices_spiflash_init
           35    701: i.am_devices_spiflash_read
           36    728: ..\..\..\..\..\bootloader\am_bootloader.c
           37    770: ../../../../../bootloader/am_bootloader.c
           38    812: i.am_bootloader_boot_from_storage
           39    846: i.am_bootloader_fast_crc32
           40    873: i.am_bootloader_flag_page_update
           41    906: i.am_bootloader_flash_check
           42    934: i.am_bootloader_image_check
           43    962: i.am_bootloader_new_image_check
           44    994: i.am_bootloader_partial_crc32
           45   1024: .constdata
           46   1035: g_pui32CRC32Table
           47   1053: ../keil/startup_keil.s
           48   1076: STACK
           49   1082: StackMem
           50   1091: HEAP
           51   1096: HeapMem
           52   1104: RESET
           53   1110: .text
           54   1116: ../am_hal_global.c
           55   1135: ../am_hal_clkgen.c
           56   1154: i.am_hal_clkgen_osc_stop
           57   1179: i.am_hal_clkgen_sysclk_get
           58   1206: i.am_hal_clkgen_sysclk_select
           59   1236: ../am_hal_flash.c
           60   1254: i.am_hal_flash_page_erase
           61   1280: i.am_hal_flash_program_main
           62   1308: ../am_hal_gpio.c
           63   1325: i.am_hal_gpio_int_clear
           64   1349: i.am_hal_gpio_int_disable
           65   1375: i.am_hal_gpio_int_enable
           66   1400: ..\am_hal_interrupt.c
           67   1422: ../am_hal_interrupt.c
           68   1444: i.am_hal_interrupt_enable
           69   1470: ../am_hal_iom.c
           70   1486: i.am_hal_iom_config
           71   1506: i.am_hal_iom_disable
           72   1527: i.am_hal_iom_enable
           73   1547: i.am_hal_iom_fifo_read
           74   1570: i.am_hal_iom_fifo_write
           75   1594: i.am_hal_iom_queue_spi_read
           76   1622: i.am_hal_iom_sleeping_queue_flush
           77   1656: i.am_hal_iom_spi_read
           78   1678: i.am_hal_iom_spi_write
           79   1701: i.am_hal_iom_spi_write_nb
           80   1727: .conststring
           81   1740: ../am_hal_ios.c
           82   1756: i.am_hal_ios_access_int_clear
           83   1786: i.am_hal_ios_access_int_enable
           84   1817: i.am_hal_ios_access_int_status_get
           85   1852: i.am_hal_ios_config
           86   1872: i.am_hal_ios_fifo_service
           87   1898: i.am_hal_ios_int_clear
           88   1921: i.am_hal_ios_int_enable
           89   1945: i.am_hal_ios_int_status_get
           90   1973: ../am_hal_mcuctrl.c
           91   1993: i.am_hal_mcuctrl_bandgap_disable
           92   2026: i.am_hal_mcuctrl_bucks_enable
           93   2056: ../am_hal_reset.c
           94   2074: i.am_hal_reset_poi
           95   2093: ../am_hal_systick.c
           96   2113: i.am_hal_systick_count
           97   2136: i.am_hal_systick_load
           98   2158: i.am_hal_systick_start
           99   2181: ../am_hal_uart.c
          100   2198: i.am_hal_uart_char_transmit_polled
          101   2233: i.am_hal_uart_clock_enable
          102   2260: i.am_hal_uart_config
          103   2281: i.am_hal_uart_disable
          104   2303: i.am_hal_uart_enable
          105   2324: i.am_hal_uart_fifo_config
          106   2350: i.am_hal_uart_int_clear
          107   2374: i.am_hal_uart_int_enable
          108   2399: i.am_hal_uart_int_status_get
          109   2428: ../am_bsp.c
          110   2440: i.am_bsp_iom_spi_pins_disable
          111   2470: i.am_bsp_iom_spi_pins_enable
          112   2499: i.am_bsp_low_power_init
          113   2523: ../am_hal_debug.c
          114   2541: i.am_hal_debug_error
          115   2562: ../am_hal_i2c_bit_bang.c
          116   2587: ..\am_hal_itm.c
          117   2603: ../am_hal_itm.c
          118   2619: ../am_hal_queue.c
          119   2637: i.am_hal_queue_item_add
          120   2661: ../am_hal_rtc.c
          121   2677: i.am_hal_rtc_osc_disable
          122   2702: i.am_hal_rtc_osc_select
          123   2726: ../am_hal_sysctrl.c
          124   2746: i.am_hal_sysctrl_sleep
          125   2769: ../am_hal_tpiu.c
          126   2786: ../am_hal_vcomp.c
          127   2804: i.am_hal_vcomp_disable
          128   2827: dc.s
          129   2832: ../clib/memcpset.s
          130   2851: ../clib/heapaux.c
          131   2869: ../clib/angel/startup.s
          132   2893: !!!main
          133   2901: ../fplib/d2f.s
          134   2916: ../clib/angel/kernel.s
          135   2939: .ARM.Collect$$rtentry$$00000000
          136   2971: ../fplib/dnaninf.s
          137   2990: ../fplib/fretinf.s
          138   3009: ../fplib/usenofp.s
          139   3028: .ARM.Collect$$rtentry$$00000002
          140   3060: .ARM.Collect$$rtentry$$00000009
          141   3092: .ARM.Collect$$rtentry$$0000000A
          142   3124: .ARM.Collect$$rtentry$$0000000C
          143   3156: .ARM.Collect$$rtentry$$0000000D
          144   3188: .ARM.Collect$$rtentry$$00000004
          145   3220: ../clib/angel/sys.s
          146   3240: ../clib/stdlib.c
          147   3257: ../clib/angel/boardlib.s
          148   3282: ../clib/libinit.s
          149   3300: .ARM.Collect$$libinit$$00000000
          150   3332: .ARM.Collect$$rtexit$$00000000
          151   3363: .ARM.Collect$$libinit$$00000001
          152   3395: .ARM.Collect$$libinit$$00000004
          153   3427: .ARM.Collect$$libinit$$0000000A
          154   3459: .ARM.Collect$$libinit$$0000000C
          155   3491: .ARM.Collect$$libinit$$0000000E
          156   3523: .ARM.Collect$$libinit$$00000011
          157   3555: .ARM.Collect$$libinit$$00000013
          158   3587: .ARM.Collect$$libinit$$00000015
          159   3619: .ARM.Collect$$libinit$$00000017
          160   3651: .ARM.Collect$$libinit$$00000019
          161   3683: .ARM.Collect$$libinit$$0000001B
          162   3715: .ARM.Collect$$libinit$$0000001D
          163   3747: .ARM.Collect$$libinit$$0000001F
          164   3779: .ARM.Collect$$libinit$$00000021
          165   3811: .ARM.Collect$$libinit$$00000023
          166   3843: .ARM.Collect$$libinit$$00000025
          167   3875: .ARM.Collect$$libinit$$0000002C
          168   3907: .ARM.Collect$$libinit$$0000002E
          169   3939: .ARM.Collect$$libinit$$00000030
          170   3971: .ARM.Collect$$libinit$$00000032
          171   4003: .ARM.Collect$$libinit$$00000033
          172   4035: .ARM.Collect$$rtexit$$00000002
          173   4066: .ARM.Collect$$rtexit$$00000003
          174   4097: .ARM.Collect$$rtexit$$00000004
          175   4128: ../clib/armsys.c
          176   4145: ../fplib/fpinit.s
          177   4163: x$fpl$fpinit
          178   4176: ../clib/angel/sysapp.c
          179   4199: .ARM.Collect$$libshutdown$$00000000
          180   4235: ../clib/heapalloc.c
          181   4255: ../clib/signal.c
          182   4272: .ARM.Collect$$libshutdown$$00000002
          183   4308: .ARM.Collect$$libshutdown$$00000004
          184   4344: .ARM.Collect$$libshutdown$$00000007
          185   4380: .ARM.Collect$$libshutdown$$0000000A
          186   4416: .ARM.Collect$$libshutdown$$0000000C
          187   4452: .ARM.Collect$$libshutdown$$0000000F
          188   4488: .ARM.Collect$$libshutdown$$00000010
          189   4524: ../clib/angel/rt.s
          190   4543: ../clib/signal.s
          191   4560: ../clib/angel/scatter.s
          192   4584: !!!scatter
          193   4595: ../clib/angel/handlers.s
          194   4620: !!handler_copy
          195   4635: !!handler_zi
          196   4648: BuildAttributes$$THM_ISAv4$E$P$D$K$B$S$7EM$VFPi3$EXTD16$VFPS$VFMA$PE$A:L22UL41UL21$X:L11$S22US41US21$IEEE1$IW$USESV6$~STKCKD$USESV7$~SHL$OTIME$ROPI$EBA8$UX$STANDARDLIB$REQ8$EABIv2
          197   4828: __ARM_use_no_argv
          198   4846: __Vectors
          199   4856: Reset_Handler
          200   4870: am_nmi_isr
          201   4881: am_fault_isr
          202   4894: am_memmanage_isr
          203   4911: am_mpufault_isr
          204   4927: am_busfault_isr
          205   4943: am_usagefault_isr
          206   4961: am_adc_isr
          207   4972: am_brownout_isr
          208   4988: am_clkgen_isr
          209   5002: am_ctimer_isr
          210   5016: am_debugmon_isr
          211   5032: am_iomaster0_isr
          212   5049: am_iomaster1_isr
          213   5066: am_pendsv_isr
          214   5080: am_svcall_isr
          215   5094: am_systick_isr
          216   5109: am_vcomp_isr
          217   5122: am_watchdog_isr
          218   5138: __main
          219   5145: __scatterload
          220   5159: __scatterload_rt2
          221   5177: __scatterload_rt2_thumb_only
          222   5206: __scatterload_null
          223   5225: __scatterload_copy
          224   5244: __scatterload_zeroinit
          225   5267: __rt_lib_init
          226   5281: __rt_lib_init_fp_1
          227   5300: __rt_lib_init_alloca_1
          228   5323: __rt_lib_init_argv_1
          229   5344: __rt_lib_init_atexit_1
          230   5367: __rt_lib_init_clock_1
          231   5389: __rt_lib_init_cpp_1
          232   5409: __rt_lib_init_exceptions_1
          233   5436: __rt_lib_init_fp_trap_1
          234   5460: __rt_lib_init_getenv_1
          235   5483: __rt_lib_init_heap_1
          236   5504: __rt_lib_init_lc_collate_1
          237   5531: __rt_lib_init_lc_ctype_1
          238   5556: __rt_lib_init_lc_monetary_1
          239   5584: __rt_lib_init_lc_numeric_1
          240   5611: __rt_lib_init_lc_time_1
          241   5635: __rt_lib_init_preinit_1
          242   5659: __rt_lib_init_rand_1
          243   5680: __rt_lib_init_return
          244   5701: __rt_lib_init_signal_1
          245   5724: __rt_lib_init_stdio_1
          246   5746: __rt_lib_init_user_alloc_1
          247   5773: __rt_lib_shutdown
          248   5791: __rt_lib_shutdown_cpp_1
          249   5815: __rt_lib_shutdown_fp_trap_1
          250   5843: __rt_lib_shutdown_heap_1
          251   5868: __rt_lib_shutdown_return
          252   5893: __rt_lib_shutdown_signal_1
          253   5920: __rt_lib_shutdown_stdio_1
          254   5946: __rt_lib_shutdown_user_alloc_1
          255   5977: __rt_entry
          256   5988: __rt_entry_presh_1
          257   6007: __rt_entry_sh
          258   6021: __rt_entry_li
          259   6035: __rt_entry_postsh_1
          260   6055: __rt_entry_main
          261   6071: __rt_entry_postli_1
          262   6091: __rt_exit
          263   6101: __rt_exit_ls
          264   6114: __rt_exit_prels_1
          265   6132: __rt_exit_exit
          266   6147: am_util_delay_cycles
          267   6168: am_bootloader_image_run
          268   6192: am_hal_interrupt_master_enable
          269   6223: am_hal_interrupt_master_disable
          270   6255: am_hal_interrupt_master_set
          271   6283: __user_initial_stackheap
          272   6308: __aeabi_memcpy4
          273   6324: __aeabi_memcpy8
          274   6340: __rt_memcpy_w
          275   6354: _memcpy_lastbytes_aligned
          276   6380: __use_two_region_memory
          277   6404: __rt_heap_escrow$2region
          278   6429: __rt_heap_expand$2region
          279   6454: __user_setup_stackheap
          280   6477: exit
          281   6482: __user_libspace
          282   6498: __user_perproc_libspace
          283   6522: __user_perthread_libspace
          284   6548: _sys_exit
          285   6558: __I$use$semihosting
          286   6578: __use_no_semihosting_swi
          287   6603: __semihosting_library_function
          288   6634: am_bootloader_boot_from_storage
          289   6666: am_bootloader_fast_crc32
          290   6691: am_bootloader_flag_page_update
          291   6722: am_bootloader_flash_check
          292   6748: am_bootloader_image_check
          293   6774: am_bootloader_new_image_check
          294   6804: am_bootloader_partial_crc32
          295   6832: am_bsp_iom_spi_pins_disable
          296   6860: am_bsp_iom_spi_pins_enable
          297   6887: am_bsp_low_power_init
          298   6909: am_devices_spiflash_init
          299   6934: am_devices_spiflash_read
          300   6959: am_gpio_isr
          301   6971: am_hal_clkgen_osc_stop
          302   6994: am_hal_clkgen_sysclk_get
          303   7019: am_hal_clkgen_sysclk_select
          304   7047: am_hal_debug_error
          305   7066: am_hal_flash_page_erase
          306   7090: am_hal_flash_program_main
          307   7116: am_hal_gpio_int_clear
          308   7138: am_hal_gpio_int_disable
          309   7162: am_hal_gpio_int_enable
          310   7185: am_hal_interrupt_enable
          311   7209: am_hal_iom_config
          312   7227: am_hal_iom_disable
          313   7246: am_hal_iom_enable
          314   7264: am_hal_iom_fifo_read
          315   7285: am_hal_iom_fifo_write
          316   7307: am_hal_iom_queue_spi_read
          317   7333: am_hal_iom_sleeping_queue_flush
          318   7365: am_hal_iom_spi_read
          319   7385: am_hal_iom_spi_write
          320   7406: am_hal_iom_spi_write_nb
          321   7430: am_hal_ios_access_int_clear
          322   7458: am_hal_ios_access_int_enable
          323   7487: am_hal_ios_access_int_status_get
          324   7520: am_hal_ios_config
          325   7538: am_hal_ios_fifo_service
          326   7562: am_hal_ios_int_clear
          327   7583: am_hal_ios_int_enable
          328   7605: am_hal_ios_int_status_get
          329   7631: am_hal_mcuctrl_bandgap_disable
          330   7662: am_hal_mcuctrl_bucks_enable
          331   7690: am_hal_queue_item_add
          332   7712: am_hal_reset_poi
          333   7729: am_hal_rtc_osc_disable
          334   7752: am_hal_rtc_osc_select
          335   7774: am_hal_sysctrl_sleep
          336   7795: am_hal_systick_count
          337   7816: am_hal_systick_load
          338   7836: am_hal_systick_start
          339   7857: am_hal_uart_char_transmit_polled
          340   7890: am_hal_uart_clock_enable
          341   7915: am_hal_uart_config
          342   7934: am_hal_uart_disable
          343   7954: am_hal_uart_enable
          344   7973: am_hal_uart_fifo_config
          345   7997: am_hal_uart_int_clear
          346   8019: am_hal_uart_int_enable
          347   8042: am_hal_uart_int_status_get
          348   8069: am_hal_vcomp_disable
          349   8090: am_ioslave_acc_isr
          350   8109: am_ioslave_ios_isr
          351   8128: am_uart_isr
          352   8140: am_util_delay_ms
          353   8157: cleanup_ios_interface
          354   8179: configure_spiflash_pins
          355   8203: image_load_from_external_flash
          356   8234: image_load_from_internal_flash
          357   8265: main
          358   8270: ser_out
          359   8278: setup_ios_interface
          360   8298: setup_serial
          361   8311: _fp_init
          362   8320: __fplib_config_fpu_vfp
          363   8343: __fplib_config_pureend_doubles
          364   8374: am_hal_ios_pui8LRAM
          365   8394: Region$$Table$$Base
          366   8414: Region$$Table$$Limit
          367   8435: g_psBootImage
          368   8449: g_sSpiFlash
          369   8461: g_sIOMConfig
          370   8474: g_bIOSActive
          371   8487: g_pui8TxBuffer
          372   8502: g_pui8RxBuffer
          373   8517: g_ui32BytesInBuffer
          374   8537: g_pui32WriteAddress
          375   8557: g_ui32BytesReceived
          376   8577: g_bImageValid
          377   8591: g_ui32CRC
          378   8601: g_sUartConfig
          379   8615: ui32_serial_status
          380   8634: cRecChar
          381   8643: RX_FIFO_FULL
          382   8656: RX_FIFO_EMPTY
          383   8670: uart_RX_cnt
          384   8682: uart_RX_head
          385   8695: uart_RX_tail
          386   8708: cTxChar
          387   8716: TX_FIFO_FULL
          388   8729: TX_FIFO_EMPTY
          389   8743: uart_TX_cnt
          390   8755: uart_TX_head
          391   8768: uart_TX_tail
          392   8781: command
          393   8789: packet_cnt
          394   8800: pkt_size
          395   8809: g_psIOMSettings
          396   8825: g_ui32HALflags
          397   8840: SRAM_load_ui32
          398   8855: g_am_hal_flash
          399   8870: g_ui32Mod0Interface
          400   8890: g_ui32Mod1Interface
          401   8910: am_hal_iom_queue_flush
          402   8933: g_pui8FIFOBase
          403   8948: g_pui8FIFOEnd
          404   8962: g_pui8FIFOPtr
          405   8976: g_ui32FlashLoadingBuffer
          406   9001: g_pui32RxBuffer
          407   9017: g_TestArray
          408   9029: g_sImage
          409   9038: uart_RX_buffer
          410   9053: uart_TX_buffer
          411   9068: g_psIOMBuffers
          412   9083: g_psIOMQueue
          413   9096: g_sSRAMBuffer
          414   9110: __libspace_start
          415   9127: __temporary_stack_top$libspace
          416   9158: 
          417   9159: 


** Section #13 '.note' (SHT_NOTE)
    Size   : 28 bytes (alignment 4)


** Section #14 '.comment' (SHT_PROGBITS)
    Size   : 20956 bytes


** Section #15 '.shstrtab' (SHT_STRTAB)
    Size   : 148 bytes

            #  Offset String
        ====================================

            1      1: FLASH
            2      7: SRAM
            3     12: .debug_abbrev
            4     26: .debug_frame
            5     39: .debug_info
            6     51: .debug_line
            7     63: .debug_loc
            8     74: .debug_macinfo
            9     89: .debug_pubnames
           10    105: .symtab
           11    113: .strtab
           12    121: .note
           13    127: .comment
           14    136: .shstrtab
           15    146: 
           16    147: 


